carray
array
p0
(S'd'
p1
(lp2
F14.0
aF28.0
aF1.0
aF1.0
aF1.0
aF1.0
aF1.0
aF1.0
aF1.0
aF1.0
aF1.0
aF1.0
aF1.0
aF1.0
aF1.0
aF1.0
aF1.0
aF1.0
aF1.0
aF1.0
aF1.0
aF1.0
aF1.0
aF1.0
aF1.0
aF1.0
aF1.0
aF1.0
aF1.0
aF1.0
aF1.0
aF1.0
aF1.0
aF1.0
aF1.0
aF1.0
aF1.0
aF1.0
aF1.0
aF1.0
aF1.0
aF1.0
aF1.0
aF1.0
aF1.0
aF14.0
aF1.0
aF1.0
aF1.0
aF1.0
aF1.0
aF1.0
aF1.0
aF1.0
aF1.0
aF1.0
aF1.0
aF1.0
aF1.0
aF1.0
aF1.0
aF1.0
aF1.0
aF1.0
aF1.0
aF1.0
aF1.0
aF1.0
aF1.0
aF1.0
aF1.0
aF1.0
aF1.0
aF14.0
aF1.0
aF1.0
aF1.0
aF1.0
aF1.0
aF1.0
aF1.0
aF1.0
aF1.0
aF1.0
aF1.0
aF1.0
aF1.0
aF1.0
aF1.0
aF1.0
aF1.0
aF1.0
aF1.0
aF1.0
aF1.0
aF1.0
aF1.0
aF1.0
aF1.0
aF1.0
aF1.0
aF1.0
aF1.0
aF1.0
aF1.0
aF14.0
aF1.0
aF5.0
aF5.0
aF1.0
aF5.0
aF5.0
aF1.0
aF1.0
aF5.0
aF1.0
aF5.0
aF5.0
aF1.0
aF5.0
aF1.0
aF5.0
aF5.0
aF1.0
aF1.0
aF5.0
aF5.0
aF1.0
aF5.0
aF5.0
aF1.0
aF1.0
aF5.0
aF5.0
aF1.0
aF1.0
aF5.0
aF5.0
aF1.0
aF5.0
aF1.0
aF5.0
aF5.0
aF1.0
aF5.0
aF1.0
aF5.0
aF1.0
aF5.0
aF5.0
aF1.0
aF5.0
aF1.0
aF5.0
aF5.0
aF1.0
aF5.0
aF1.0
aF5.0
aF5.0
aF1.0
aF5.0
aF5.0
aF1.0
aF5.0
aF5.0
aF1.0
aF5.0
aF1.0
aF5.0
aF5.0
aF1.0
aF5.0
aF1.0
aF5.0
aF5.0
aF1.0
aF5.0
aF1.0
aF1.0
aF1.0
aF5.0
aF5.0
aF1.0
aF5.0
aF5.0
aF1.0
aF5.0
aF1.0
aF14.0
aF1.0
aF1.0
aF1.0
aF1.0
aF5.0
aF5.0
aF1.0
aF5.0
aF1.0
aF5.0
aF5.0
aF14.0
aF1.0
aF28.0
aF5.0
aF1.0
aF5.0
aF1.0
aF5.0
aF28.0
aF1.0
aF1.0
aF1.0
aF1.0
aF1.0
aF14.0
aF1.0
aF28.0
aF5.0
aF5.0
aF5.0
aF28.0
aF1.0
aF5.0
aF1.0
aF1.0
aF1.0
aF1.0
aF1.0
aF1.0
aF1.0
aF1.0
aF1.0
aF1.0
aF1.0
aF1.0
aF14.0
aF1.0
aF1.0
aF1.0
aF1.0
aF1.0
aF1.0
aF1.0
aF1.0
aF1.0
aF1.0
aF1.0
aF1.0
aF1.0
aF1.0
aF1.0
aF1.0
aF1.0
aF1.0
aF1.0
aF1.0
aF1.0
aF1.0
aF1.0
aF1.0
aF1.0
aF1.0
aF1.0
aF1.0
aF1.0
aF1.0
aF1.0
aF1.0
aF1.0
aF1.0
aF1.0
aF1.0
aF1.0
aF1.0
aF1.0
aF1.0
aF1.0
aF1.0
aF1.0
aF1.0
aF1.0
aF1.0
aF1.0
aF1.0
aF1.0
aF1.0
aF1.0
aF1.0
aF1.0
aF1.0
aF1.0
aF1.0
aF1.0
aF1.0
aF1.0
aF1.0
aF1.0
aF1.0
aF1.0
aF1.0
aF1.0
aF1.0
aF1.0
aF1.0
aF1.0
aF1.0
aF1.0
aF1.0
aF5.0
aF1.0
aF1.0
aF1.0
aF1.0
aF1.0
aF1.0
aF1.0
aF1.0
aF1.0
aF1.0
aF1.0
aF1.0
aF1.0
aF1.0
aF1.0
aF1.0
aF1.0
aF1.0
aF1.0
aF1.0
aF1.0
aF1.0
aF1.0
aF1.0
aF1.0
aF1.0
aF1.0
aF1.0
aF1.0
aF1.0
aF1.0
aF1.0
aF1.0
aF1.0
aF1.0
aF1.0
aF1.0
aF1.0
aF1.0
aF1.0
aF1.0
aF1.0
aF1.0
aF1.0
aF1.0
aF1.0
aF1.0
aF1.0
aF1.0
aF1.0
aF1.0
aF1.0
aF1.0
aF1.0
aF1.0
aF1.0
aF1.0
aF1.0
aF1.0
aF1.0
aF1.0
aF1.0
aF1.0
aF1.0
aF1.0
aF1.0
aF1.0
aF1.0
aF1.0
aF1.0
aF1.0
aF1.0
aF1.0
aF1.0
aF1.0
aF1.0
aF1.0
aF1.0
aF1.0
aF1.0
aF1.0
aF1.0
aF1.0
aF1.0
aF1.0
aF1.0
aF1.0
aF1.0
aF1.0
aF1.0
aF1.0
aF1.0
aF1.0
aF1.0
aF1.0
aF1.0
aF1.0
aF1.0
aF1.0
aF1.0
aF1.0
aF1.0
aF1.0
aF1.0
aF1.0
aF1.0
aF1.0
aF1.0
aF1.0
aF1.0
aF1.0
aF1.0
aF1.0
aF1.0
aF1.0
aF1.0
aF1.0
aF1.0
aF1.0
aF1.0
aF1.0
aF1.0
aF1.0
aF1.0
aF1.0
aF1.0
aF1.0
aF1.0
aF1.0
aF1.0
aF1.0
aF1.0
aF1.0
aF1.0
aF1.0
aF1.0
aF1.0
aF1.0
aF1.0
aF1.0
aF1.0
aF1.0
aF1.0
aF1.0
aF1.0
aF1.0
aF1.0
aF1.0
aF1.0
aF1.0
aF1.0
aF1.0
aF1.0
aF1.0
aF1.0
aF1.0
aF1.0
aF1.0
aF1.0
aF1.0
aF14.0
aF1.0
aF1.0
aF1.0
aF14.0
aF1.0
aF1.0
aF1.0
aF1.0
aF1.0
aF1.0
aF1.0
aF1.0
aF1.0
aF1.0
aF1.0
aF1.0
aF1.0
aF1.0
aF1.0
aF1.0
aF1.0
aF1.0
aF1.0
aF1.0
aF1.0
aF5.0
aF1.0
aF1.0
aF1.0
aF1.0
aF1.0
aF1.0
aF5.0
aF14.0
aF1.0
aF1.0
aF1.0
aF1.0
aF14.0
aF1.0
aF1.0
aF1.0
aF1.0
aF1.0
aF1.0
aF1.0
aF1.0
aF1.0
aF1.0
aF1.0
aF1.0
aF1.0
aF1.0
aF1.0
aF1.0
aF1.0
aF1.0
aF1.0
aF1.0
aF1.0
aF1.0
aF1.0
aF1.0
aF1.0
aF14.0
aF1.0
aF1.0
aF1.0
aF1.0
aF1.0
aF1.0
aF1.0
aF1.0
aF1.0
aF1.0
aF1.0
aF1.0
aF1.0
aF1.0
aF1.0
aF1.0
aF1.0
aF1.0
aF1.0
aF1.0
aF1.0
aF1.0
aF1.0
aF1.0
aF1.0
aF1.0
aF1.0
aF1.0
aF1.0
aF1.0
aF1.0
aF1.0
aF14.0
aF1.0
aF1.0
aF1.0
aF1.0
aF1.0
aF1.0
aF1.0
aF1.0
aF1.0
aF1.0
aF1.0
aF1.0
aF1.0
aF1.0
aF1.0
aF1.0
aF1.0
aF1.0
aF1.0
aF1.0
aF1.0
aF1.0
aF1.0
aF1.0
aF1.0
aF1.0
aF1.0
aF1.0
aF1.0
aF1.0
aF1.0
aF1.0
aF1.0
aF1.0
aF1.0
aF1.0
aF1.0
aF1.0
aF1.0
aF1.0
aF1.0
aF1.0
aF1.0
aF1.0
aF1.0
aF1.0
aF1.0
aF1.0
aF1.0
aF1.0
aF1.0
aF1.0
aF1.0
aF1.0
aF1.0
aF1.0
aF1.0
aF1.0
aF1.0
aF1.0
aF1.0
aF1.0
aF1.0
aF1.0
aF1.0
aF1.0
aF1.0
aF1.0
aF1.0
aF1.0
aF1.0
aF1.0
aF1.0
aF1.0
aF1.0
aF1.0
aF1.0
aF1.0
aF1.0
aF1.0
aF1.0
aF1.0
aF1.0
aF1.0
aF1.0
aF1.0
aF1.0
aF1.0
aF1.0
aF14.0
aF1.0
aF1.0
aF1.0
aF1.0
aF1.0
aF1.0
aF1.0
aF1.0
aF1.0
aF1.0
aF1.0
aF1.0
aF1.0
aF1.0
aF1.0
aF1.0
aF1.0
aF1.0
aF1.0
aF1.0
aF1.0
aF1.0
aF1.0
aF1.0
aF1.0
aF1.0
aF1.0
aF1.0
aF1.0
aF1.0
aF1.0
aF1.0
aF1.0
aF1.0
aF1.0
aF1.0
aF1.0
aF1.0
aF1.0
aF1.0
aF1.0
aF1.0
aF1.0
aF1.0
aF1.0
aF1.0
aF14.0
aF1.0
aF1.0
aF1.0
aF1.0
aF1.0
aF1.0
aF1.0
aF1.0
aF1.0
aF1.0
aF1.0
aF1.0
aF1.0
aF1.0
aF1.0
aF1.0
aF1.0
aF1.0
aF1.0
aF14.0
aF1.0
aF1.0
aF1.0
aF1.0
aF1.0
aF1.0
aF1.0
aF1.0
aF1.0
aF1.0
aF1.0
aF1.0
aF1.0
aF1.0
aF1.0
aF1.0
aF1.0
aF1.0
aF1.0
aF1.0
aF1.0
aF1.0
aF1.0
aF1.0
aF1.0
aF1.0
aF1.0
aF1.0
aF1.0
aF1.0
aF1.0
aF1.0
aF1.0
aF1.0
aF1.0
aF1.0
aF1.0
aF1.0
aF1.0
aF1.0
aF1.0
aF1.0
aF1.0
aF1.0
aF1.0
aF1.0
aF1.0
aF1.0
aF1.0
aF1.0
aF1.0
aF1.0
aF1.0
aF1.0
aF1.0
aF1.0
aF1.0
aF1.0
aF1.0
aF1.0
aF1.0
aF1.0
aF1.0
aF1.0
aF5.0
aF1.0
aF1.0
aF1.0
aF1.0
aF28.0
aF5.0
aF14.0
aF1.0
aF5.0
aF1.0
aF5.0
aF28.0
aF1.0
aF1.0
aF5.0
aF1.0
aF5.0
aF1.0
aF1.0
aF1.0
aF14.0
aF1.0
aF5.0
aF1.0
aF1.0
aF1.0
aF5.0
aF5.0
aF1.0
aF1.0
aF5.0
aF1.0
aF5.0
aF1.0
aF1.0
aF1.0
aF5.0
aF1.0
aF1.0
aF5.0
aF5.0
aF1.0
aF5.0
aF1.0
aF1.0
aF5.0
aF5.0
aF1.0
aF28.0
aF5.0
aF1.0
aF5.0
aF1.0
aF5.0
aF1.0
aF5.0
aF1.0
aF5.0
aF1.0
aF5.0
aF1.0
aF5.0
aF1.0
aF5.0
aF1.0
aF5.0
aF1.0
aF5.0
aF1.0
aF5.0
aF1.0
aF5.0
aF1.0
aF5.0
aF1.0
aF5.0
aF1.0
aF5.0
aF1.0
aF5.0
aF1.0
aF5.0
aF1.0
aF5.0
aF1.0
aF5.0
aF1.0
aF5.0
aF1.0
aF5.0
aF1.0
aF5.0
aF1.0
aF5.0
aF1.0
aF5.0
aF1.0
aF5.0
aF1.0
aF5.0
aF1.0
aF5.0
aF1.0
aF5.0
aF1.0
aF5.0
aF1.0
aF5.0
aF1.0
aF5.0
aF1.0
aF5.0
aF1.0
aF5.0
aF1.0
aF5.0
aF1.0
aF5.0
aF1.0
aF5.0
aF1.0
aF5.0
aF1.0
aF5.0
aF1.0
aF5.0
aF1.0
aF5.0
aF1.0
aF5.0
aF1.0
aF5.0
aF1.0
aF5.0
aF1.0
aF5.0
aF1.0
aF5.0
aF1.0
aF5.0
aF1.0
aF5.0
aF1.0
aF5.0
aF1.0
aF5.0
aF1.0
aF5.0
aF1.0
aF5.0
aF1.0
aF5.0
aF1.0
aF5.0
aF1.0
aF5.0
aF1.0
aF5.0
aF1.0
aF5.0
aF1.0
aF5.0
aF1.0
aF5.0
aF1.0
aF5.0
aF1.0
aF5.0
aF1.0
aF5.0
aF1.0
aF5.0
aF1.0
aF5.0
aF1.0
aF5.0
aF1.0
aF5.0
aF1.0
aF5.0
aF1.0
aF5.0
aF1.0
aF5.0
aF1.0
aF5.0
aF1.0
aF5.0
aF1.0
aF5.0
aF1.0
aF5.0
aF1.0
aF5.0
aF1.0
aF5.0
aF1.0
aF5.0
aF1.0
aF5.0
aF1.0
aF5.0
aF1.0
aF5.0
aF1.0
aF5.0
aF1.0
aF5.0
aF1.0
aF5.0
aF1.0
aF5.0
aF5.0
aF1.0
aF5.0
aF1.0
aF5.0
aF5.0
aF1.0
aF5.0
aF1.0
aF5.0
aF1.0
aF5.0
aF1.0
aF5.0
aF1.0
aF5.0
aF1.0
aF5.0
aF1.0
aF5.0
aF1.0
aF5.0
aF1.0
aF5.0
aF1.0
aF5.0
aF1.0
aF5.0
aF1.0
aF5.0
aF28.0
aF1.0
aF1.0
aF5.0
aF5.0
aF1.0
aF28.0
aF5.0
aF1.0
aF5.0
aF1.0
aF5.0
aF1.0
aF5.0
aF28.0
aF1.0
aF1.0
aF1.0
aF1.0
aF5.0
aF5.0
aF1.0
aF1.0
aF1.0
aF1.0
aF28.0
aF5.0
aF1.0
aF5.0
aF1.0
aF5.0
aF28.0
aF1.0
aF1.0
aF5.0
aF5.0
aF1.0
aF5.0
aF1.0
aF5.0
aF1.0
aF1.0
aF1.0
aF14.0
aF1.0
aF1.0
aF5.0
aF1.0
aF1.0
aF1.0
aF1.0
aF1.0
aF1.0
aF1.0
aF1.0
aF1.0
aF1.0
aF1.0
aF1.0
aF1.0
aF1.0
aF1.0
aF1.0
aF1.0
aF1.0
aF1.0
aF1.0
aF1.0
aF1.0
aF1.0
aF1.0
aF1.0
aF1.0
aF1.0
aF1.0
aF1.0
aF1.0
aF1.0
aF1.0
aF1.0
aF1.0
aF1.0
aF1.0
aF1.0
aF1.0
aF1.0
aF1.0
aF1.0
aF1.0
aF1.0
aF1.0
aF14.0
aF1.0
aF1.0
aF1.0
aF1.0
aF1.0
aF1.0
aF5.0
aF5.0
aF1.0
aF28.0
aF5.0
aF1.0
aF5.0
aF1.0
aF5.0
aF1.0
aF5.0
aF28.0
aF1.0
aF1.0
aF5.0
aF5.0
aF1.0
aF5.0
aF1.0
aF1.0
aF1.0
aF5.0
aF5.0
aF1.0
aF5.0
aF1.0
aF5.0
aF1.0
aF1.0
aF1.0
aF1.0
aF1.0
aF1.0
aF1.0
aF5.0
aF1.0
aF1.0
aF1.0
aF1.0
aF1.0
aF5.0
aF1.0
aF1.0
aF1.0
aF5.0
aF5.0
aF1.0
aF5.0
aF1.0
aF1.0
aF1.0
aF5.0
aF5.0
aF1.0
aF5.0
aF1.0
aF1.0
aF1.0
aF1.0
aF1.0
aF1.0
aF1.0
aF1.0
aF1.0
aF1.0
aF1.0
aF1.0
aF1.0
aF1.0
aF1.0
aF1.0
aF1.0
aF1.0
aF1.0
aF1.0
aF1.0
aF1.0
aF1.0
aF1.0
aF1.0
aF1.0
aF1.0
aF1.0
aF1.0
aF1.0
aF1.0
aF1.0
aF1.0
aF1.0
aF1.0
aF1.0
aF1.0
aF1.0
aF1.0
aF1.0
aF1.0
aF14.0
aF1.0
aF1.0
aF1.0
aF1.0
aF1.0
aF1.0
aF1.0
aF1.0
aF5.0
aF1.0
aF5.0
aF1.0
aF1.0
aF1.0
aF1.0
aF5.0
aF5.0
aF1.0
aF5.0
aF1.0
aF5.0
aF5.0
aF1.0
aF28.0
aF5.0
aF1.0
aF5.0
aF1.0
aF5.0
aF1.0
aF5.0
aF1.0
aF5.0
aF1.0
aF5.0
aF1.0
aF5.0
aF1.0
aF5.0
aF1.0
aF5.0
aF1.0
aF5.0
aF1.0
aF5.0
aF28.0
aF1.0
aF1.0
aF1.0
aF5.0
aF5.0
aF1.0
aF5.0
aF1.0
aF5.0
aF5.0
aF1.0
aF5.0
aF1.0
aF5.0
aF1.0
aF14.0
aF1.0
aF5.0
aF1.0
aF1.0
aF5.0
aF5.0
aF1.0
aF28.0
aF5.0
aF1.0
aF5.0
aF1.0
aF5.0
aF28.0
aF1.0
aF1.0
aF5.0
aF5.0
aF1.0
aF5.0
aF1.0
aF1.0
aF1.0
aF1.0
aF5.0
aF1.0
aF1.0
aF1.0
aF1.0
aF5.0
aF1.0
aF1.0
aF5.0
aF5.0
aF1.0
aF28.0
aF5.0
aF1.0
aF5.0
aF1.0
aF5.0
aF28.0
aF1.0
aF1.0
aF5.0
aF5.0
aF1.0
aF5.0
aF1.0
aF1.0
aF5.0
aF5.0
aF1.0
aF28.0
aF5.0
aF1.0
aF5.0
aF1.0
aF5.0
aF1.0
aF5.0
aF1.0
aF5.0
aF14.0
aF1.0
aF5.0
aF1.0
aF5.0
aF1.0
aF5.0
aF1.0
aF5.0
aF1.0
aF5.0
aF1.0
aF5.0
aF1.0
aF5.0
aF1.0
aF5.0
aF1.0
aF5.0
aF1.0
aF5.0
aF1.0
aF5.0
aF1.0
aF5.0
aF1.0
aF5.0
aF1.0
aF5.0
aF1.0
aF5.0
aF1.0
aF5.0
aF1.0
aF5.0
aF1.0
aF5.0
aF1.0
aF5.0
aF1.0
aF5.0
aF1.0
aF5.0
aF1.0
aF5.0
aF1.0
aF5.0
aF1.0
aF5.0
aF28.0
aF1.0
aF1.0
aF1.0
aF5.0
aF1.0
aF1.0
aF1.0
aF1.0
aF5.0
aF1.0
aF1.0
aF1.0
aF1.0
aF1.0
aF1.0
aF1.0
aF1.0
aF5.0
aF1.0
aF1.0
aF1.0
aF1.0
aF1.0
aF5.0
aF1.0
aF1.0
aF5.0
aF1.0
aF1.0
aF28.0
aF5.0
aF1.0
aF5.0
aF1.0
aF5.0
aF1.0
aF5.0
aF5.0
aF1.0
aF5.0
aF1.0
aF5.0
aF1.0
aF5.0
aF1.0
aF5.0
aF1.0
aF5.0
aF1.0
aF5.0
aF1.0
aF5.0
aF28.0
aF1.0
aF1.0
aF28.0
aF5.0
aF1.0
aF5.0
aF1.0
aF5.0
aF1.0
aF5.0
aF1.0
aF5.0
aF28.0
aF1.0
aF1.0
aF28.0
aF5.0
aF1.0
aF5.0
aF1.0
aF5.0
aF1.0
aF5.0
aF28.0
aF1.0
aF1.0
aF5.0
aF1.0
aF1.0
aF28.0
aF5.0
aF1.0
aF5.0
aF1.0
aF5.0
aF1.0
aF5.0
aF1.0
aF5.0
aF1.0
aF5.0
aF1.0
aF5.0
aF1.0
aF5.0
aF1.0
aF5.0
aF1.0
aF5.0
aF28.0
aF1.0
aF1.0
aF1.0
aF5.0
aF1.0
aF1.0
aF1.0
aF1.0
aF1.0
aF1.0
aF1.0
aF1.0
aF1.0
aF1.0
aF1.0
aF1.0
aF1.0
aF1.0
aF1.0
aF1.0
aF1.0
aF1.0
aF1.0
aF1.0
aF1.0
aF1.0
aF1.0
aF1.0
aF1.0
aF1.0
aF1.0
aF1.0
aF1.0
aF1.0
aF1.0
aF1.0
aF1.0
aF1.0
aF1.0
aF1.0
aF1.0
aF1.0
aF1.0
aF1.0
aF1.0
aF1.0
aF1.0
aF1.0
aF1.0
aF1.0
aF1.0
aF1.0
aF1.0
aF1.0
aF1.0
aF1.0
aF1.0
aF1.0
aF1.0
aF1.0
aF1.0
aF1.0
aF1.0
aF1.0
aF1.0
aF1.0
aF1.0
aF1.0
aF1.0
aF1.0
aF1.0
aF1.0
aF1.0
aF1.0
aF1.0
aF1.0
aF1.0
aF1.0
aF1.0
aF1.0
aF1.0
aF1.0
aF1.0
aF1.0
aF1.0
aF1.0
aF1.0
aF1.0
aF1.0
aF1.0
aF1.0
aF1.0
aF1.0
aF1.0
aF1.0
aF1.0
aF1.0
aF1.0
aF1.0
aF1.0
aF1.0
aF1.0
aF1.0
aF1.0
aF1.0
aF1.0
aF1.0
aF1.0
aF1.0
aF1.0
aF1.0
aF1.0
aF1.0
aF1.0
aF1.0
aF1.0
aF1.0
aF1.0
aF1.0
aF1.0
aF1.0
aF1.0
aF1.0
aF1.0
aF1.0
aF1.0
aF1.0
aF1.0
aF1.0
aF1.0
aF1.0
aF1.0
aF1.0
aF1.0
aF1.0
aF1.0
aF1.0
aF1.0
aF1.0
aF14.0
aF1.0
aF1.0
aF1.0
aF1.0
aF1.0
aF1.0
aF1.0
aF1.0
aF1.0
aF1.0
aF1.0
aF1.0
aF1.0
aF1.0
aF1.0
aF1.0
aF1.0
aF5.0
aF1.0
aF1.0
aF5.0
aF1.0
aF1.0
aF28.0
aF5.0
aF1.0
aF5.0
aF1.0
aF5.0
aF1.0
aF5.0
aF5.0
aF1.0
aF5.0
aF1.0
aF5.0
aF1.0
aF5.0
aF1.0
aF5.0
aF1.0
aF5.0
aF1.0
aF5.0
aF1.0
aF5.0
aF1.0
aF5.0
aF1.0
aF5.0
aF1.0
aF5.0
aF1.0
aF5.0
aF1.0
aF5.0
aF1.0
aF5.0
aF1.0
aF5.0
aF1.0
aF5.0
aF1.0
aF5.0
aF1.0
aF5.0
aF1.0
aF5.0
aF1.0
aF5.0
aF1.0
aF5.0
aF1.0
aF5.0
aF1.0
aF5.0
aF1.0
aF5.0
aF1.0
aF5.0
aF1.0
aF5.0
aF1.0
aF5.0
aF1.0
aF5.0
aF1.0
aF5.0
aF1.0
aF5.0
aF28.0
aF1.0
aF1.0
aF5.0
aF5.0
aF1.0
aF5.0
aF1.0
aF1.0
aF5.0
aF5.0
aF1.0
aF28.0
aF5.0
aF1.0
aF5.0
aF1.0
aF5.0
aF1.0
aF5.0
aF1.0
aF5.0
aF1.0
aF5.0
aF5.0
aF1.0
aF5.0
aF1.0
aF5.0
aF1.0
aF5.0
aF1.0
aF5.0
aF1.0
aF5.0
aF1.0
aF5.0
aF1.0
aF5.0
aF1.0
aF5.0
aF1.0
aF5.0
aF1.0
aF5.0
aF1.0
aF5.0
aF1.0
aF5.0
aF1.0
aF5.0
aF1.0
aF5.0
aF1.0
aF5.0
aF1.0
aF5.0
aF1.0
aF5.0
aF1.0
aF5.0
aF1.0
aF5.0
aF1.0
aF5.0
aF1.0
aF5.0
aF1.0
aF5.0
aF5.0
aF1.0
aF5.0
aF14.0
aF1.0
aF5.0
aF5.0
aF1.0
aF5.0
aF1.0
aF5.0
aF5.0
aF28.0
aF1.0
aF1.0
aF1.0
aF5.0
aF5.0
aF1.0
aF1.0
aF5.0
aF5.0
aF1.0
aF5.0
aF5.0
aF1.0
aF1.0
aF1.0
aF1.0
aF5.0
aF5.0
aF1.0
aF1.0
aF1.0
aF1.0
aF1.0
aF1.0
aF1.0
aF1.0
aF1.0
aF1.0
aF1.0
aF1.0
aF1.0
aF1.0
aF1.0
aF1.0
aF1.0
aF1.0
aF1.0
aF1.0
aF1.0
aF1.0
aF1.0
aF1.0
aF1.0
aF1.0
aF14.0
aF1.0
aF1.0
aF1.0
aF1.0
aF1.0
aF5.0
aF5.0
aF1.0
aF1.0
aF1.0
aF1.0
aF5.0
aF5.0
aF1.0
aF1.0
aF1.0
aF5.0
aF5.0
aF1.0
aF1.0
aF5.0
aF5.0
aF1.0
aF1.0
aF5.0
aF5.0
aF1.0
aF1.0
aF5.0
aF5.0
aF1.0
aF5.0
aF5.0
aF1.0
aF1.0
aF5.0
aF5.0
aF1.0
aF1.0
aF5.0
aF5.0
aF1.0
aF1.0
aF5.0
aF5.0
aF1.0
aF1.0
aF5.0
aF5.0
aF1.0
aF1.0
aF5.0
aF5.0
aF1.0
aF5.0
aF5.0
aF1.0
aF1.0
aF5.0
aF5.0
aF1.0
aF5.0
aF5.0
aF1.0
aF1.0
aF5.0
aF5.0
aF1.0
aF1.0
aF5.0
aF5.0
aF1.0
aF1.0
aF5.0
aF5.0
aF1.0
aF1.0
aF5.0
aF5.0
aF1.0
aF1.0
aF5.0
aF5.0
aF1.0
aF1.0
aF5.0
aF5.0
aF1.0
aF5.0
aF5.0
aF1.0
aF5.0
aF5.0
aF1.0
aF5.0
aF1.0
aF5.0
aF5.0
aF14.0
aF1.0
aF5.0
aF5.0
aF1.0
aF5.0
aF1.0
aF5.0
aF5.0
aF1.0
aF28.0
aF5.0
aF1.0
aF1.0
aF5.0
aF1.0
aF1.0
aF5.0
aF1.0
aF1.0
aF5.0
aF5.0
aF1.0
aF1.0
aF5.0
aF28.0
aF1.0
aF5.0
aF5.0
aF1.0
aF1.0
aF5.0
aF5.0
aF1.0
aF1.0
aF5.0
aF5.0
aF1.0
aF1.0
aF1.0
aF5.0
aF5.0
aF1.0
aF1.0
aF5.0
aF5.0
aF1.0
aF1.0
aF5.0
aF1.0
aF5.0
aF1.0
aF1.0
aF1.0
aF1.0
aF5.0
aF5.0
aF1.0
aF5.0
aF1.0
aF1.0
aF1.0
aF1.0
aF1.0
aF1.0
aF5.0
aF5.0
aF1.0
aF5.0
aF1.0
aF1.0
aF14.0
aF5.0
aF5.0
aF1.0
aF5.0
aF1.0
aF5.0
aF5.0
aF1.0
aF28.0
aF5.0
aF1.0
aF5.0
aF1.0
aF5.0
aF1.0
aF5.0
aF1.0
aF5.0
aF1.0
aF5.0
aF1.0
aF5.0
aF1.0
aF5.0
aF1.0
aF5.0
aF1.0
aF5.0
aF5.0
aF1.0
aF5.0
aF28.0
aF1.0
aF1.0
aF5.0
aF5.0
aF1.0
aF28.0
aF5.0
aF1.0
aF5.0
aF1.0
aF5.0
aF28.0
aF1.0
aF1.0
aF5.0
aF5.0
aF1.0
aF5.0
aF1.0
aF5.0
aF5.0
aF14.0
aF1.0
aF1.0
aF1.0
aF1.0
aF5.0
aF1.0
aF1.0
aF1.0
aF5.0
aF5.0
aF1.0
atp3
Rp4
.