carray
array
p0
(S'd'
p1
(lp2
F28.0
aF12.0
aF12.0
aF12.0
aF12.0
aF12.0
aF12.0
aF12.0
aF12.0
aF12.0
aF12.0
aF12.0
aF12.0
aF12.0
aF12.0
aF12.0
aF12.0
aF12.0
aF12.0
aF12.0
aF12.0
aF12.0
aF12.0
aF12.0
aF12.0
aF12.0
aF12.0
aF12.0
aF12.0
aF12.0
aF12.0
aF12.0
aF12.0
aF12.0
aF12.0
aF12.0
aF12.0
aF12.0
aF12.0
aF12.0
aF12.0
aF12.0
aF12.0
aF12.0
aF12.0
aF12.0
aF12.0
aF12.0
aF12.0
aF12.0
aF12.0
aF12.0
aF12.0
aF12.0
aF12.0
aF12.0
aF12.0
aF12.0
aF12.0
aF12.0
aF12.0
aF12.0
aF12.0
aF12.0
aF12.0
aF12.0
aF12.0
aF12.0
aF12.0
aF12.0
aF12.0
aF12.0
aF12.0
aF12.0
aF12.0
aF12.0
aF12.0
aF12.0
aF12.0
aF12.0
aF12.0
aF12.0
aF12.0
aF12.0
aF12.0
aF12.0
aF12.0
aF12.0
aF12.0
aF12.0
aF12.0
aF12.0
aF12.0
aF12.0
aF12.0
aF12.0
aF12.0
aF12.0
aF12.0
aF12.0
aF12.0
aF12.0
aF12.0
aF12.0
aF12.0
aF12.0
aF5.0
aF12.0
aF12.0
aF12.0
aF12.0
aF12.0
aF12.0
aF12.0
aF12.0
aF12.0
aF12.0
aF12.0
aF12.0
aF12.0
aF12.0
aF12.0
aF12.0
aF12.0
aF12.0
aF12.0
aF12.0
aF12.0
aF12.0
aF12.0
aF12.0
aF12.0
aF12.0
aF12.0
aF12.0
aF12.0
aF12.0
aF12.0
aF12.0
aF12.0
aF12.0
aF12.0
aF12.0
aF12.0
aF12.0
aF12.0
aF12.0
aF12.0
aF12.0
aF12.0
aF12.0
aF12.0
aF12.0
aF12.0
aF12.0
aF12.0
aF12.0
aF12.0
aF12.0
aF12.0
aF12.0
aF12.0
aF12.0
aF12.0
aF12.0
aF12.0
aF12.0
aF12.0
aF12.0
aF12.0
aF12.0
aF12.0
aF12.0
aF12.0
aF12.0
aF12.0
aF12.0
aF12.0
aF12.0
aF12.0
aF12.0
aF12.0
aF12.0
aF12.0
aF12.0
aF12.0
aF12.0
aF12.0
aF12.0
aF12.0
aF12.0
aF12.0
aF12.0
aF12.0
aF12.0
aF12.0
aF12.0
aF12.0
aF12.0
aF12.0
aF12.0
aF12.0
aF12.0
aF12.0
aF12.0
aF12.0
aF12.0
aF12.0
aF12.0
aF12.0
aF12.0
aF12.0
aF12.0
aF12.0
aF12.0
aF12.0
aF12.0
aF12.0
aF12.0
aF12.0
aF12.0
aF12.0
aF12.0
aF12.0
aF12.0
aF12.0
aF12.0
aF12.0
aF12.0
aF12.0
aF12.0
aF12.0
aF12.0
aF12.0
aF12.0
aF12.0
aF12.0
aF12.0
aF12.0
aF12.0
aF12.0
aF12.0
aF12.0
aF12.0
aF12.0
aF12.0
aF12.0
aF12.0
aF12.0
aF12.0
aF12.0
aF12.0
aF12.0
aF12.0
aF12.0
aF12.0
aF12.0
aF12.0
aF12.0
aF12.0
aF12.0
aF12.0
aF12.0
aF12.0
aF12.0
aF12.0
aF12.0
aF12.0
aF12.0
aF12.0
aF12.0
aF12.0
aF12.0
aF12.0
aF12.0
aF12.0
aF12.0
aF12.0
aF12.0
aF12.0
aF12.0
aF12.0
aF12.0
aF12.0
aF12.0
aF12.0
aF12.0
aF12.0
aF12.0
aF12.0
aF12.0
aF12.0
aF12.0
aF12.0
aF12.0
aF12.0
aF12.0
aF12.0
aF12.0
aF12.0
aF12.0
aF12.0
aF12.0
aF12.0
aF12.0
aF12.0
aF12.0
aF5.0
aF12.0
aF12.0
aF12.0
aF12.0
aF12.0
aF12.0
aF12.0
aF12.0
aF12.0
aF12.0
aF12.0
aF12.0
aF12.0
aF12.0
aF12.0
aF12.0
aF12.0
aF12.0
aF12.0
aF12.0
aF12.0
aF12.0
aF12.0
aF12.0
aF12.0
aF12.0
aF12.0
aF12.0
aF12.0
aF12.0
aF12.0
aF12.0
aF12.0
aF12.0
aF12.0
aF12.0
aF12.0
aF12.0
aF12.0
aF12.0
aF12.0
aF12.0
aF12.0
aF12.0
aF12.0
aF12.0
aF12.0
aF12.0
aF12.0
aF12.0
aF12.0
aF12.0
aF12.0
aF12.0
aF12.0
aF12.0
aF12.0
aF12.0
aF12.0
aF12.0
aF12.0
aF12.0
aF12.0
aF12.0
aF12.0
aF12.0
aF12.0
aF12.0
aF12.0
aF12.0
aF12.0
aF12.0
aF12.0
aF12.0
aF12.0
aF12.0
aF12.0
aF12.0
aF12.0
aF12.0
aF12.0
aF12.0
aF12.0
aF12.0
aF12.0
aF12.0
aF12.0
aF12.0
aF12.0
aF12.0
aF12.0
aF12.0
aF12.0
aF12.0
aF12.0
aF12.0
aF12.0
aF12.0
aF12.0
aF12.0
aF12.0
aF12.0
aF12.0
aF12.0
aF12.0
aF12.0
aF12.0
aF12.0
aF12.0
aF12.0
aF12.0
aF12.0
aF12.0
aF12.0
aF12.0
aF12.0
aF12.0
aF12.0
aF12.0
aF12.0
aF12.0
aF12.0
aF12.0
aF12.0
aF12.0
aF12.0
aF12.0
aF12.0
aF12.0
aF12.0
aF12.0
aF12.0
aF12.0
aF12.0
aF12.0
aF12.0
aF12.0
aF12.0
aF12.0
aF12.0
aF12.0
aF12.0
aF12.0
aF12.0
aF12.0
aF12.0
aF12.0
aF12.0
aF12.0
aF12.0
aF12.0
aF12.0
aF12.0
aF12.0
aF12.0
aF12.0
aF12.0
aF12.0
aF12.0
aF12.0
aF12.0
aF12.0
aF12.0
aF12.0
aF12.0
aF12.0
aF12.0
aF12.0
aF12.0
aF12.0
aF12.0
aF12.0
aF12.0
aF12.0
aF12.0
aF12.0
aF12.0
aF12.0
aF12.0
aF12.0
aF12.0
aF12.0
aF12.0
aF12.0
aF12.0
aF12.0
aF12.0
aF12.0
aF12.0
aF12.0
aF12.0
aF12.0
aF12.0
aF12.0
aF12.0
aF12.0
aF12.0
aF12.0
aF12.0
aF12.0
aF12.0
aF12.0
aF12.0
aF12.0
aF12.0
aF12.0
aF12.0
aF12.0
aF12.0
aF12.0
aF12.0
aF12.0
aF12.0
aF12.0
aF12.0
aF12.0
aF12.0
aF12.0
aF12.0
aF12.0
aF12.0
aF12.0
aF12.0
aF12.0
aF12.0
aF12.0
aF12.0
aF12.0
aF12.0
aF12.0
aF12.0
aF12.0
aF12.0
aF12.0
aF12.0
aF12.0
aF12.0
aF12.0
aF12.0
aF12.0
aF12.0
aF12.0
aF12.0
aF12.0
aF12.0
aF12.0
aF12.0
aF12.0
aF12.0
aF12.0
aF12.0
aF12.0
aF12.0
aF12.0
aF12.0
aF12.0
aF12.0
aF12.0
aF12.0
aF12.0
aF12.0
aF12.0
aF12.0
aF12.0
aF12.0
aF12.0
aF12.0
aF12.0
aF12.0
aF12.0
aF12.0
aF12.0
aF12.0
aF12.0
aF12.0
aF12.0
aF12.0
aF12.0
aF12.0
aF12.0
aF12.0
aF12.0
aF12.0
aF12.0
aF12.0
aF12.0
aF12.0
aF12.0
aF5.0
aF12.0
aF12.0
aF12.0
aF12.0
aF12.0
aF12.0
aF12.0
aF12.0
aF12.0
aF12.0
aF12.0
aF12.0
aF12.0
aF12.0
aF12.0
aF12.0
aF12.0
aF12.0
aF12.0
aF12.0
aF12.0
aF12.0
aF12.0
aF12.0
aF12.0
aF12.0
aF12.0
aF12.0
aF12.0
aF12.0
aF12.0
aF12.0
aF12.0
aF12.0
aF12.0
aF12.0
aF12.0
aF12.0
aF12.0
aF12.0
aF12.0
aF12.0
aF12.0
aF12.0
aF12.0
aF12.0
aF12.0
aF12.0
aF12.0
aF12.0
aF12.0
aF12.0
aF12.0
aF12.0
aF12.0
aF12.0
aF12.0
aF12.0
aF12.0
aF12.0
aF12.0
aF12.0
aF12.0
aF12.0
aF12.0
aF12.0
aF12.0
aF12.0
aF12.0
aF12.0
aF12.0
aF12.0
aF12.0
aF12.0
aF12.0
aF12.0
aF12.0
aF12.0
aF12.0
aF12.0
aF12.0
aF12.0
aF12.0
aF12.0
aF12.0
aF12.0
aF12.0
aF12.0
aF12.0
aF12.0
aF12.0
aF12.0
aF12.0
aF12.0
aF12.0
aF12.0
aF12.0
aF12.0
aF12.0
aF12.0
aF12.0
aF5.0
aF12.0
aF12.0
aF12.0
aF12.0
aF12.0
aF12.0
aF12.0
aF12.0
aF12.0
aF12.0
aF12.0
aF12.0
aF12.0
aF12.0
aF12.0
aF12.0
aF12.0
aF12.0
aF12.0
aF12.0
aF12.0
aF12.0
aF12.0
aF12.0
aF12.0
aF12.0
aF5.0
aF12.0
aF12.0
aF12.0
aF12.0
aF12.0
aF12.0
aF12.0
aF12.0
aF12.0
aF12.0
aF12.0
aF12.0
aF12.0
aF12.0
aF12.0
aF12.0
aF12.0
aF12.0
aF12.0
aF12.0
aF12.0
aF12.0
aF12.0
aF12.0
aF12.0
aF12.0
aF12.0
aF12.0
aF12.0
aF12.0
aF12.0
aF12.0
aF12.0
aF12.0
aF12.0
aF12.0
aF12.0
aF12.0
aF12.0
aF12.0
aF12.0
aF12.0
aF12.0
aF12.0
aF12.0
aF12.0
aF12.0
aF12.0
aF12.0
aF12.0
aF12.0
aF12.0
aF12.0
aF12.0
aF12.0
aF12.0
aF12.0
aF12.0
aF12.0
aF12.0
aF12.0
aF12.0
aF12.0
aF12.0
aF12.0
aF12.0
aF12.0
aF12.0
aF12.0
aF12.0
aF12.0
aF12.0
aF12.0
aF12.0
aF12.0
aF12.0
aF12.0
aF12.0
aF12.0
aF12.0
aF12.0
aF12.0
aF12.0
aF12.0
aF12.0
aF12.0
aF12.0
aF12.0
aF12.0
aF12.0
aF12.0
aF12.0
aF12.0
aF12.0
aF12.0
aF12.0
aF12.0
aF12.0
aF12.0
aF12.0
aF12.0
aF12.0
aF12.0
aF12.0
aF12.0
aF12.0
aF12.0
aF12.0
aF12.0
aF12.0
aF12.0
aF12.0
aF12.0
aF12.0
aF12.0
aF12.0
aF12.0
aF12.0
aF12.0
aF12.0
aF12.0
aF12.0
aF12.0
aF12.0
aF12.0
aF12.0
aF12.0
aF12.0
aF12.0
aF12.0
aF12.0
aF12.0
aF12.0
aF12.0
aF12.0
aF12.0
aF12.0
aF12.0
aF12.0
aF12.0
aF12.0
aF12.0
aF12.0
aF12.0
aF12.0
aF12.0
aF12.0
aF12.0
aF12.0
aF12.0
aF12.0
aF12.0
aF12.0
aF12.0
aF12.0
aF12.0
aF12.0
aF12.0
aF12.0
aF12.0
aF12.0
aF12.0
aF12.0
aF12.0
aF5.0
aF12.0
aF12.0
aF12.0
aF12.0
aF12.0
aF12.0
aF12.0
aF12.0
aF12.0
aF12.0
aF12.0
aF12.0
aF12.0
aF12.0
aF12.0
aF12.0
aF12.0
aF12.0
aF12.0
aF12.0
aF12.0
aF12.0
aF12.0
aF12.0
aF12.0
aF12.0
aF12.0
aF12.0
aF12.0
aF12.0
aF12.0
aF12.0
aF12.0
aF12.0
aF5.0
aF12.0
aF12.0
aF12.0
aF12.0
aF12.0
aF12.0
aF12.0
aF12.0
aF12.0
aF12.0
aF12.0
aF12.0
aF12.0
aF12.0
aF12.0
aF12.0
aF12.0
aF5.0
aF12.0
aF12.0
aF12.0
aF12.0
aF12.0
aF12.0
aF12.0
aF12.0
aF12.0
aF12.0
aF12.0
aF12.0
aF12.0
aF12.0
aF12.0
aF12.0
aF12.0
aF12.0
aF12.0
aF12.0
aF12.0
aF12.0
aF12.0
aF12.0
aF12.0
aF12.0
aF5.0
aF12.0
aF12.0
aF12.0
aF12.0
aF12.0
aF12.0
aF12.0
aF12.0
aF12.0
aF12.0
aF12.0
aF12.0
aF12.0
aF12.0
aF12.0
aF12.0
aF12.0
aF12.0
aF12.0
aF12.0
aF12.0
aF12.0
aF12.0
aF12.0
aF12.0
aF12.0
aF5.0
aF12.0
aF12.0
aF12.0
aF12.0
aF12.0
aF12.0
aF12.0
aF12.0
aF12.0
aF12.0
aF12.0
aF12.0
aF12.0
aF12.0
aF12.0
aF12.0
aF12.0
aF12.0
aF12.0
aF12.0
aF12.0
aF12.0
aF12.0
aF12.0
aF12.0
aF12.0
aF12.0
aF12.0
aF12.0
aF12.0
aF12.0
aF12.0
aF12.0
aF12.0
aF12.0
aF12.0
aF12.0
aF12.0
aF12.0
aF12.0
aF12.0
aF5.0
aF12.0
aF12.0
aF12.0
aF12.0
aF12.0
aF12.0
aF12.0
aF12.0
aF12.0
aF12.0
aF12.0
aF12.0
aF12.0
aF12.0
aF12.0
aF12.0
aF12.0
aF12.0
aF12.0
aF12.0
aF12.0
aF12.0
aF12.0
aF12.0
aF12.0
aF12.0
aF12.0
aF12.0
aF12.0
aF5.0
aF12.0
aF12.0
aF12.0
aF12.0
aF12.0
aF12.0
aF12.0
aF12.0
aF12.0
aF12.0
aF12.0
aF12.0
aF12.0
aF12.0
aF12.0
aF12.0
aF5.0
aF12.0
aF12.0
aF12.0
aF12.0
aF12.0
aF12.0
aF12.0
aF12.0
aF12.0
aF12.0
aF12.0
aF5.0
aF12.0
aF12.0
aF12.0
aF12.0
aF12.0
aF12.0
aF12.0
aF12.0
aF12.0
aF12.0
aF12.0
aF12.0
aF12.0
aF12.0
aF12.0
aF12.0
aF12.0
aF12.0
aF12.0
aF12.0
aF12.0
aF12.0
aF12.0
aF12.0
aF12.0
aF12.0
aF12.0
aF12.0
aF12.0
aF12.0
aF12.0
aF12.0
aF12.0
aF12.0
aF12.0
aF12.0
aF12.0
aF12.0
aF12.0
aF12.0
aF12.0
aF12.0
aF12.0
aF12.0
aF12.0
aF12.0
aF12.0
aF12.0
aF5.0
aF12.0
aF12.0
aF12.0
aF12.0
aF12.0
aF12.0
aF12.0
aF12.0
aF12.0
aF12.0
aF12.0
aF12.0
aF12.0
aF12.0
aF12.0
aF12.0
aF12.0
aF12.0
aF12.0
aF12.0
aF5.0
aF12.0
aF12.0
aF12.0
aF12.0
aF12.0
aF12.0
aF12.0
aF12.0
aF12.0
aF12.0
aF12.0
aF12.0
aF12.0
aF12.0
aF12.0
aF12.0
aF12.0
aF12.0
aF12.0
aF5.0
aF12.0
aF12.0
aF5.0
aF12.0
aF12.0
aF12.0
aF12.0
aF12.0
aF12.0
aF12.0
aF12.0
aF12.0
aF12.0
aF12.0
aF12.0
aF12.0
aF12.0
aF5.0
aF12.0
aF12.0
aF12.0
aF12.0
aF12.0
aF12.0
aF12.0
aF12.0
aF12.0
aF12.0
aF12.0
aF12.0
aF12.0
aF12.0
aF12.0
aF12.0
aF12.0
aF12.0
aF12.0
aF12.0
aF12.0
aF12.0
aF12.0
aF12.0
aF12.0
aF12.0
aF12.0
aF12.0
aF12.0
aF12.0
aF12.0
aF12.0
aF5.0
aF12.0
aF12.0
aF12.0
aF12.0
aF12.0
aF12.0
aF12.0
aF12.0
aF12.0
aF12.0
aF12.0
aF12.0
aF12.0
aF12.0
aF12.0
aF12.0
aF12.0
aF12.0
aF5.0
aF12.0
aF12.0
aF12.0
aF12.0
aF12.0
aF12.0
aF12.0
aF12.0
aF12.0
aF12.0
aF12.0
aF12.0
aF12.0
aF12.0
aF12.0
aF12.0
aF12.0
aF12.0
aF12.0
aF12.0
aF5.0
aF12.0
aF12.0
aF12.0
aF12.0
aF12.0
aF12.0
aF12.0
aF12.0
aF12.0
aF12.0
aF12.0
aF12.0
aF12.0
aF12.0
aF12.0
aF12.0
aF12.0
aF12.0
aF12.0
aF12.0
aF12.0
aF12.0
aF12.0
aF12.0
aF12.0
aF12.0
aF12.0
aF12.0
aF5.0
aF12.0
aF12.0
aF12.0
aF12.0
aF12.0
aF12.0
aF12.0
aF12.0
aF12.0
aF12.0
aF12.0
aF12.0
aF12.0
aF12.0
aF12.0
aF12.0
aF12.0
aF12.0
aF12.0
aF12.0
aF5.0
aF12.0
aF12.0
aF12.0
aF12.0
aF12.0
aF12.0
aF12.0
aF12.0
aF12.0
aF12.0
aF12.0
aF12.0
aF5.0
aF12.0
aF12.0
aF12.0
aF12.0
aF12.0
aF12.0
aF12.0
aF12.0
aF12.0
aF5.0
aF12.0
aF12.0
aF12.0
aF12.0
aF12.0
aF12.0
aF12.0
aF12.0
aF12.0
aF12.0
aF12.0
aF12.0
aF12.0
aF5.0
aF12.0
aF12.0
aF12.0
aF12.0
aF12.0
aF12.0
aF12.0
aF12.0
aF12.0
aF5.0
aF12.0
aF12.0
aF12.0
aF12.0
aF12.0
aF12.0
aF12.0
aF12.0
aF12.0
aF5.0
aF12.0
aF12.0
aF12.0
aF12.0
aF12.0
aF12.0
aF12.0
aF12.0
aF12.0
aF12.0
aF12.0
aF5.0
aF12.0
aF12.0
aF12.0
aF12.0
aF12.0
aF12.0
aF12.0
aF12.0
aF12.0
aF12.0
aF12.0
aF12.0
aF12.0
aF12.0
aF12.0
aF12.0
aF12.0
aF12.0
aF5.0
aF12.0
aF12.0
aF12.0
aF12.0
aF12.0
aF12.0
aF12.0
aF12.0
aF12.0
aF5.0
aF12.0
aF12.0
aF12.0
aF12.0
aF12.0
aF12.0
aF12.0
aF12.0
aF12.0
aF12.0
aF12.0
aF12.0
aF12.0
aF12.0
aF12.0
aF12.0
aF12.0
aF12.0
aF12.0
aF12.0
aF12.0
aF12.0
aF12.0
aF12.0
aF12.0
aF12.0
aF12.0
aF12.0
aF12.0
aF12.0
aF12.0
aF12.0
aF12.0
aF12.0
aF12.0
aF12.0
aF12.0
aF12.0
aF12.0
aF12.0
aF14.0
aF12.0
aF12.0
aF12.0
aF14.0
aF12.0
aF12.0
aF12.0
aF12.0
aF12.0
aF12.0
aF12.0
aF12.0
aF12.0
aF12.0
aF12.0
aF12.0
aF12.0
aF12.0
aF12.0
aF12.0
aF12.0
aF12.0
aF12.0
aF12.0
aF12.0
aF12.0
aF12.0
aF5.0
aF12.0
aF12.0
aF12.0
aF12.0
aF12.0
aF12.0
aF12.0
aF12.0
aF12.0
aF12.0
aF12.0
aF12.0
aF12.0
aF12.0
aF12.0
aF12.0
aF12.0
aF12.0
aF12.0
aF12.0
aF12.0
aF12.0
aF12.0
aF12.0
aF12.0
aF12.0
aF12.0
aF12.0
aF12.0
aF12.0
aF12.0
aF12.0
aF12.0
aF12.0
aF12.0
aF12.0
aF12.0
aF12.0
aF12.0
aF12.0
aF12.0
aF12.0
aF12.0
aF12.0
aF12.0
aF12.0
aF12.0
aF12.0
aF12.0
aF12.0
aF12.0
aF12.0
aF12.0
aF12.0
aF12.0
aF12.0
aF12.0
aF12.0
aF12.0
aF12.0
aF12.0
aF12.0
aF12.0
aF12.0
aF12.0
aF12.0
aF12.0
aF12.0
aF12.0
aF12.0
aF12.0
aF12.0
aF12.0
aF12.0
aF12.0
aF12.0
aF12.0
aF12.0
aF12.0
aF12.0
aF12.0
aF12.0
aF12.0
aF12.0
aF12.0
aF12.0
aF12.0
aF12.0
aF12.0
aF12.0
aF12.0
aF12.0
aF12.0
aF12.0
aF12.0
aF12.0
aF12.0
aF12.0
aF12.0
aF12.0
aF12.0
aF12.0
aF12.0
aF12.0
aF12.0
aF12.0
aF12.0
aF12.0
aF12.0
aF12.0
aF12.0
aF12.0
aF12.0
aF12.0
aF12.0
aF12.0
aF12.0
aF12.0
aF12.0
aF12.0
aF12.0
aF12.0
aF12.0
aF12.0
aF12.0
aF12.0
aF12.0
aF12.0
aF12.0
aF12.0
aF12.0
aF12.0
aF12.0
aF12.0
aF12.0
aF12.0
aF12.0
aF12.0
aF12.0
aF5.0
aF12.0
aF12.0
aF12.0
aF12.0
aF12.0
aF12.0
aF12.0
aF12.0
aF12.0
aF12.0
aF12.0
aF12.0
aF12.0
aF12.0
aF12.0
aF12.0
aF12.0
aF5.0
aF12.0
aF12.0
aF12.0
aF12.0
aF12.0
aF12.0
aF12.0
aF12.0
aF12.0
aF5.0
aF12.0
aF12.0
aF12.0
aF12.0
aF12.0
aF12.0
aF12.0
aF12.0
aF12.0
aF5.0
aF12.0
aF12.0
aF12.0
aF12.0
aF12.0
aF5.0
aF12.0
aF12.0
aF5.0
aF12.0
aF12.0
aF12.0
aF5.0
aF12.0
aF12.0
aF12.0
aF5.0
aF12.0
aF5.0
aF12.0
aF12.0
aF12.0
aF12.0
aF12.0
aF12.0
aF12.0
aF12.0
aF12.0
aF12.0
aF12.0
aF12.0
aF12.0
aF12.0
aF12.0
aF12.0
aF12.0
aF12.0
aF12.0
aF12.0
aF12.0
aF12.0
aF12.0
aF12.0
aF12.0
aF12.0
aF12.0
aF12.0
aF12.0
aF12.0
aF12.0
aF12.0
aF12.0
aF12.0
aF12.0
aF12.0
aF12.0
aF12.0
aF12.0
aF12.0
aF12.0
aF12.0
aF12.0
aF12.0
aF12.0
aF12.0
aF12.0
aF12.0
aF12.0
aF12.0
aF12.0
aF12.0
aF12.0
aF12.0
aF12.0
aF12.0
aF12.0
aF12.0
aF12.0
aF12.0
aF12.0
aF12.0
aF12.0
aF12.0
aF12.0
aF12.0
aF12.0
aF12.0
aF12.0
aF12.0
aF12.0
aF12.0
aF12.0
aF12.0
aF12.0
aF12.0
aF12.0
aF12.0
aF12.0
aF12.0
aF12.0
aF12.0
aF12.0
aF12.0
aF12.0
aF5.0
aF12.0
aF12.0
aF12.0
aF12.0
aF12.0
aF12.0
aF5.0
aF12.0
aF12.0
aF12.0
aF12.0
aF12.0
aF12.0
aF12.0
aF12.0
aF12.0
aF12.0
aF12.0
aF12.0
aF12.0
aF12.0
aF12.0
aF12.0
aF12.0
aF12.0
aF12.0
aF12.0
aF12.0
aF12.0
aF12.0
aF12.0
aF12.0
aF12.0
aF12.0
aF12.0
aF12.0
aF12.0
aF12.0
aF12.0
aF12.0
aF12.0
aF12.0
aF12.0
aF5.0
aF12.0
aF12.0
aF12.0
aF12.0
aF12.0
aF12.0
aF12.0
aF12.0
aF12.0
aF12.0
aF12.0
aF12.0
aF12.0
aF5.0
aF12.0
aF12.0
aF12.0
aF12.0
aF12.0
aF12.0
aF5.0
aF12.0
aF12.0
aF12.0
aF12.0
aF12.0
aF12.0
aF12.0
aF12.0
aF12.0
aF12.0
aF12.0
aF12.0
aF12.0
aF12.0
aF12.0
aF12.0
aF12.0
aF12.0
aF12.0
aF12.0
aF12.0
aF5.0
aF12.0
aF12.0
aF12.0
aF12.0
aF12.0
aF5.0
aF12.0
aF12.0
aF12.0
aF12.0
aF12.0
aF5.0
aF12.0
aF12.0
aF12.0
aF12.0
aF12.0
aF5.0
aF12.0
aF12.0
aF12.0
aF12.0
aF12.0
aF12.0
aF12.0
aF12.0
aF12.0
aF12.0
aF12.0
aF12.0
aF12.0
aF12.0
aF12.0
aF12.0
aF12.0
aF12.0
aF12.0
aF12.0
aF12.0
aF12.0
aF12.0
aF12.0
aF12.0
aF12.0
aF12.0
aF12.0
aF12.0
aF12.0
aF12.0
aF12.0
aF12.0
aF12.0
aF12.0
aF12.0
aF12.0
aF12.0
aF12.0
aF12.0
aF12.0
aF12.0
aF12.0
aF12.0
aF12.0
aF12.0
aF12.0
aF12.0
aF12.0
aF12.0
aF12.0
aF12.0
aF12.0
aF12.0
aF12.0
aF12.0
aF12.0
aF12.0
aF12.0
aF12.0
aF12.0
aF12.0
aF12.0
aF12.0
aF12.0
aF12.0
aF12.0
aF12.0
aF12.0
aF12.0
aF12.0
aF12.0
aF12.0
aF12.0
aF12.0
aF12.0
aF12.0
aF12.0
aF12.0
aF12.0
aF12.0
aF12.0
aF12.0
aF12.0
aF12.0
aF12.0
aF12.0
aF12.0
aF12.0
aF12.0
aF12.0
aF12.0
aF12.0
aF12.0
aF12.0
aF12.0
aF12.0
aF12.0
aF12.0
aF12.0
aF12.0
aF12.0
aF12.0
aF12.0
aF12.0
aF12.0
aF12.0
aF12.0
aF12.0
aF12.0
aF12.0
aF12.0
aF12.0
aF12.0
aF12.0
aF12.0
aF12.0
aF12.0
aF12.0
aF12.0
aF12.0
aF12.0
aF12.0
aF12.0
aF12.0
aF12.0
aF12.0
aF12.0
aF12.0
aF12.0
aF12.0
aF12.0
aF12.0
aF12.0
aF12.0
aF12.0
aF12.0
aF12.0
aF12.0
aF12.0
aF12.0
aF12.0
aF12.0
aF12.0
aF12.0
aF12.0
aF12.0
aF12.0
aF12.0
aF12.0
aF12.0
aF5.0
aF12.0
aF12.0
aF12.0
aF12.0
aF12.0
aF12.0
aF12.0
aF12.0
aF12.0
aF12.0
aF12.0
aF12.0
aF12.0
aF5.0
aF12.0
aF12.0
aF12.0
aF12.0
aF12.0
aF12.0
aF12.0
aF5.0
aF12.0
aF12.0
aF12.0
aF12.0
aF12.0
aF12.0
aF12.0
aF5.0
aF12.0
aF12.0
aF12.0
aF12.0
aF12.0
aF12.0
aF12.0
aF12.0
aF12.0
aF12.0
aF12.0
aF12.0
aF12.0
aF12.0
aF12.0
aF5.0
aF12.0
aF12.0
aF12.0
aF12.0
aF12.0
aF12.0
aF12.0
aF12.0
aF12.0
aF12.0
aF12.0
aF5.0
aF12.0
aF12.0
aF12.0
aF12.0
aF12.0
aF12.0
aF12.0
aF12.0
aF12.0
aF12.0
aF12.0
aF12.0
aF12.0
aF12.0
aF12.0
aF12.0
aF12.0
aF12.0
aF12.0
aF12.0
aF12.0
aF12.0
aF12.0
aF12.0
aF12.0
aF12.0
aF12.0
aF12.0
aF12.0
aF12.0
aF12.0
aF12.0
aF5.0
aF12.0
aF12.0
aF12.0
aF12.0
aF5.0
aF12.0
aF12.0
aF12.0
aF12.0
aF12.0
aF12.0
aF12.0
atp3
Rp4
.