carray
array
p0
(S'd'
p1
(lp2
F0.041666666666666664
aF0.34444444444444444
aF1.0611111111111111
aF1.788888888888889
aF2.477777777777778
aF3.191666666666667
aF3.8694444444444445
aF4.5777777777777775
aF5.252777777777778
aF5.963888888888889
aF6.644444444444445
aF7.305555555555555
aF8.0
aF8.688888888888888
aF9.380555555555556
aF10.061111111111112
aF10.752777777777778
aF11.441666666666666
aF12.133333333333333
aF12.844444444444445
aF13.530555555555555
aF14.219444444444445
aF14.891666666666667
aF15.602777777777778
aF16.291666666666668
aF16.969444444444445
aF17.669444444444444
aF18.36111111111111
aF19.06111111111111
aF19.769444444444446
aF20.491666666666667
aF21.20277777777778
aF21.908333333333335
aF22.63888888888889
aF23.34722222222222
aF24.05
aF24.744444444444444
aF25.466666666666665
aF26.177777777777777
aF26.880555555555556
aF27.61111111111111
aF28.319444444444443
aF29.01388888888889
aF29.727777777777778
aF30.45
aF31.166666666666668
aF31.84722222222222
aF32.58888888888889
aF33.269444444444446
aF33.977777777777774
aF34.69444444444444
aF35.40277777777778
aF36.105555555555554
aF36.80277777777778
aF37.53333333333333
aF38.227777777777774
aF38.925
aF39.605555555555554
aF40.294444444444444
aF40.99166666666667
aF41.666666666666664
aF42.388888888888886
aF43.080555555555556
aF43.775
aF44.483333333333334
aF45.19166666666667
aF45.91111111111111
aF46.608333333333334
aF47.31666666666667
aF48.00555555555555
aF48.708333333333336
aF49.416666666666664
aF50.13611111111111
aF50.81944444444444
aF51.516666666666666
aF52.225
aF52.916666666666664
aF53.625
aF54.31111111111111
aF55.019444444444446
aF55.71388888888889
aF56.42777777777778
aF57.15277777777778
aF57.86944444444445
aF58.577777777777776
aF59.291666666666664
aF60.00277777777778
aF60.71666666666667
aF61.41388888888889
aF62.13055555555555
aF62.80833333333333
aF63.513888888888886
aF64.21111111111111
aF64.925
aF65.61111111111111
aF66.3
aF67.0111111111111
aF67.69444444444444
aF68.40555555555555
aF69.08888888888889
aF69.78888888888889
aF70.47777777777777
aF71.18333333333334
aF71.88333333333334
aF72.56944444444444
aF73.25
aF73.93888888888888
aF74.63333333333334
aF75.31944444444444
aF76.00277777777778
aF76.69166666666666
aF77.38055555555556
aF78.075
aF78.7611111111111
aF79.46944444444445
aF80.16111111111111
aF80.85555555555555
aF81.55555555555556
aF82.25
aF82.96111111111111
aF83.63888888888889
aF84.33611111111111
aF85.01944444444445
aF85.71111111111111
aF86.40277777777777
aF87.09722222222223
aF87.775
aF88.46388888888889
aF89.15555555555555
aF89.84444444444445
aF90.53888888888889
aF91.21388888888889
aF91.89722222222223
aF92.59166666666667
aF93.28055555555555
aF93.97222222222223
aF94.66666666666667
aF95.34166666666667
aF96.01666666666667
aF96.71388888888889
aF97.38888888888889
aF98.06388888888888
aF98.7388888888889
aF99.41388888888889
aF100.09722222222223
aF100.78333333333333
aF101.48611111111111
aF102.17777777777778
aF102.8638888888889
aF103.55555555555556
aF104.25833333333334
aF104.95833333333333
aF105.63888888888889
aF106.34444444444445
aF107.04722222222222
aF107.73611111111111
aF108.45
aF109.15277777777777
aF109.85277777777777
aF110.53611111111111
aF111.25
aF111.94722222222222
aF112.64444444444445
aF113.34166666666667
aF114.04722222222222
aF114.75
aF115.43333333333334
aF116.15833333333333
aF116.84444444444445
aF117.53611111111111
aF118.24722222222222
aF118.95
aF119.65
aF120.33055555555555
aF121.03611111111111
aF121.71388888888889
aF122.41388888888889
aF123.10277777777777
aF123.78888888888889
aF124.48055555555555
aF125.16111111111111
aF125.88055555555556
aF126.575
aF127.26944444444445
aF127.96388888888889
aF128.66944444444445
aF129.36111111111111
aF130.0638888888889
aF130.7888888888889
aF131.49444444444444
aF132.19444444444446
aF132.9111111111111
aF133.63611111111112
aF134.34166666666667
aF135.02777777777777
aF135.75
aF136.45
aF137.15833333333333
aF137.88611111111112
aF138.59722222222223
aF139.29444444444445
aF139.99722222222223
aF140.73611111111111
aF141.44444444444446
aF142.1611111111111
aF142.88055555555556
aF143.59444444444443
aF144.30277777777778
aF145.01944444444445
aF145.74444444444444
aF146.45
aF147.1611111111111
aF147.88055555555556
aF148.59444444444443
aF149.29722222222222
aF149.97222222222223
aF150.67222222222222
aF151.35833333333332
aF152.04722222222222
aF152.75555555555556
aF153.45
aF154.14166666666668
aF154.8361111111111
aF155.54166666666666
aF156.23333333333332
aF156.93333333333334
aF157.63055555555556
aF158.33333333333334
aF159.03333333333333
aF159.73055555555555
aF160.44722222222222
aF161.13888888888889
aF161.84166666666667
aF162.54722222222222
aF163.24444444444444
aF163.95277777777778
aF164.64444444444445
aF165.35555555555555
aF166.05277777777778
aF166.75277777777777
aF167.45277777777778
aF168.15833333333333
aF168.85
aF169.5388888888889
aF170.25
aF170.9361111111111
aF171.63611111111112
aF172.31944444444446
aF173.01666666666668
aF173.72222222222223
aF174.41944444444445
aF175.13333333333333
aF175.825
aF176.53055555555557
aF177.24166666666667
aF177.97222222222223
aF178.69166666666666
aF179.3972222222222
aF180.11388888888888
aF180.83333333333334
aF181.5388888888889
aF182.25555555555556
aF182.97222222222223
aF183.68333333333334
aF184.38888888888889
aF185.125
aF185.8388888888889
aF186.55555555555554
aF187.28055555555557
aF187.99444444444444
aF188.7277777777778
aF189.44722222222222
aF190.18055555555554
aF190.8972222222222
aF191.61388888888888
aF192.35555555555555
aF193.08333333333334
aF193.80833333333334
aF194.51666666666668
aF195.23333333333332
aF195.9388888888889
aF196.65277777777777
aF197.37222222222223
aF198.08055555555555
aF198.76388888888889
aF199.49444444444444
aF200.19166666666666
aF200.90555555555557
aF201.59722222222223
aF202.31666666666666
aF203.02777777777777
aF203.7277777777778
aF204.45555555555555
aF205.1472222222222
aF205.84722222222223
aF206.5388888888889
aF207.24722222222223
aF207.9361111111111
aF208.60555555555555
aF209.3111111111111
aF210.0
aF210.6888888888889
aF211.39166666666668
aF212.10833333333332
aF212.81944444444446
aF213.525
aF214.26388888888889
aF214.9777777777778
aF215.6861111111111
aF216.38333333333333
aF217.09444444444443
aF217.80555555555554
aF218.50555555555556
aF219.23611111111111
aF219.92777777777778
aF220.61388888888888
aF221.3361111111111
aF222.04166666666666
aF222.74444444444444
aF223.43055555555554
aF224.15
aF224.8527777777778
aF225.56944444444446
aF226.29722222222222
aF227.01944444444445
aF227.7111111111111
aF228.425
aF229.1472222222222
aF229.85833333333332
aF230.55277777777778
aF231.26666666666668
aF231.96944444444443
aF232.67777777777778
aF233.38611111111112
aF234.11666666666667
aF234.8111111111111
aF235.5222222222222
aF236.26388888888889
aF236.99166666666667
aF237.72222222222223
aF238.43333333333334
aF239.1638888888889
aF239.86666666666667
aF240.59722222222223
aF241.3388888888889
aF242.06944444444446
aF242.7888888888889
aF243.53055555555557
aF244.25
aF244.975
aF245.68055555555554
aF246.40277777777777
aF247.11666666666667
aF247.825
aF248.5611111111111
aF249.26111111111112
aF249.98055555555555
aF250.6861111111111
aF251.4138888888889
aF252.11388888888888
aF252.81666666666666
aF253.51666666666668
aF254.2111111111111
aF254.90277777777777
aF255.6
aF256.2916666666667
aF256.975
aF257.6611111111111
aF258.3611111111111
aF259.0472222222222
aF259.7472222222222
aF260.4194444444444
aF261.1111111111111
aF261.78055555555557
aF262.46944444444443
aF263.14444444444445
aF263.825
aF264.5
aF265.1722222222222
aF265.8666666666667
aF266.5388888888889
aF267.22777777777776
aF267.89166666666665
aF268.575
aF269.25555555555553
aF269.93888888888887
aF270.6166666666667
aF271.30555555555554
aF271.96944444444443
aF272.65277777777777
aF273.34166666666664
aF274.025
aF274.7138888888889
aF275.3888888888889
aF276.075
aF276.78333333333336
aF277.4861111111111
aF278.19444444444446
aF278.8833333333333
aF279.5833333333333
aF280.27222222222224
aF280.98333333333335
aF281.6972222222222
aF282.3888888888889
aF283.10277777777776
aF283.7944444444444
aF284.5111111111111
aF285.2027777777778
aF285.9277777777778
aF286.625
aF287.31666666666666
aF288.03055555555557
aF288.73333333333335
aF289.43333333333334
aF290.10277777777776
aF290.7972222222222
aF291.47222222222223
aF292.15555555555557
aF292.85277777777776
aF293.53055555555557
aF294.2138888888889
aF294.8861111111111
aF295.5805555555556
aF296.26666666666665
aF296.93888888888887
aF297.6166666666667
aF298.2972222222222
aF298.97777777777776
aF299.64166666666665
aF300.34722222222223
aF301.01944444444445
aF301.69166666666666
aF302.3777777777778
aF303.0777777777778
aF303.75555555555553
aF304.4194444444444
aF305.1166666666667
aF305.7916666666667
aF306.46944444444443
aF307.15555555555557
aF307.85833333333335
aF308.55
aF309.22777777777776
aF309.9555555555556
aF310.65277777777777
aF311.3611111111111
aF312.0472222222222
aF312.76666666666665
aF313.46666666666664
aF314.18055555555554
aF314.90277777777777
aF315.60833333333335
aF316.31111111111113
aF317.02777777777777
aF317.7472222222222
aF318.46666666666664
aF319.15555555555557
aF319.875
aF320.56944444444446
aF321.275
aF322.0
aF322.7083333333333
aF323.4111111111111
aF324.1111111111111
aF324.84444444444443
aF325.55555555555554
aF326.25555555555553
aF326.96666666666664
aF327.6722222222222
aF328.3777777777778
aF329.10833333333335
aF329.84444444444443
aF330.5527777777778
aF331.27222222222224
aF332.0138888888889
aF332.74444444444447
aF333.4472222222222
aF334.175
aF334.86944444444447
aF335.5833333333333
aF336.2944444444444
aF337.025
aF337.73333333333335
aF338.44166666666666
aF339.15555555555557
aF339.8638888888889
aF340.56388888888887
aF341.23333333333335
aF341.95
aF342.6277777777778
aF343.31944444444446
aF344.01944444444445
aF344.725
aF345.4138888888889
aF346.1166666666667
aF346.8305555555556
aF347.525
aF348.225
aF348.90833333333336
aF349.59444444444443
aF350.2861111111111
aF350.96944444444443
aF351.6777777777778
aF352.34722222222223
aF353.0361111111111
aF353.72222222222223
aF354.4277777777778
aF355.1222222222222
aF355.81388888888887
aF356.525
aF357.1972222222222
aF357.90833333333336
aF358.59722222222223
aF359.31388888888887
aF359.9972222222222
aF360.68611111111113
aF361.39444444444445
aF362.09166666666664
aF362.7916666666667
aF363.47777777777776
aF364.1777777777778
aF364.8722222222222
aF365.5722222222222
aF366.28333333333336
aF366.98333333333335
aF367.69444444444446
aF368.3861111111111
aF369.1
aF369.7944444444444
aF370.4888888888889
aF371.18888888888887
aF371.8611111111111
aF372.56111111111113
aF373.24444444444447
aF373.94444444444446
aF374.63055555555553
aF375.30833333333334
aF376.00555555555553
aF376.7027777777778
aF377.39444444444445
aF378.0777777777778
aF378.76944444444445
aF379.4611111111111
aF380.15555555555557
aF380.8611111111111
aF381.55555555555554
aF382.2611111111111
aF382.9527777777778
aF383.65555555555557
aF384.35
aF385.0472222222222
aF385.725
aF386.4222222222222
aF387.10833333333335
aF387.7944444444444
aF388.4861111111111
aF389.18333333333334
aF389.8666666666667
aF390.55
aF391.2583333333333
aF391.95
aF392.6361111111111
aF393.3388888888889
aF394.02777777777777
aF394.7111111111111
aF395.40555555555557
aF396.1111111111111
aF396.7944444444444
aF397.4638888888889
aF398.1611111111111
aF398.85
aF399.5472222222222
aF400.21944444444443
aF400.9277777777778
aF401.625
aF402.31944444444446
aF403.03333333333336
aF403.7388888888889
aF404.4472222222222
aF405.14722222222224
aF405.8861111111111
aF406.60555555555555
aF407.31666666666666
aF408.0361111111111
aF408.75555555555553
aF409.4583333333333
aF410.18055555555554
aF410.8888888888889
aF411.59444444444443
aF412.28333333333336
aF413.01944444444445
aF413.725
aF414.43888888888887
aF415.1388888888889
aF415.85555555555555
aF416.56388888888887
aF417.28333333333336
aF418.025
aF418.74444444444447
aF419.4527777777778
aF420.18888888888887
aF420.9138888888889
aF421.6333333333333
aF422.3305555555556
aF423.05
aF423.7611111111111
aF424.47777777777776
aF425.21666666666664
aF425.9277777777778
aF426.64166666666665
aF427.3611111111111
aF428.0805555555556
aF428.7944444444444
aF429.4888888888889
aF430.2138888888889
aF430.9194444444444
aF431.625
aF432.35277777777776
aF433.06388888888887
aF433.77777777777777
aF434.48333333333335
aF435.2111111111111
aF435.90555555555557
aF436.59722222222223
aF437.2972222222222
aF437.99444444444447
aF438.6694444444444
aF439.3722222222222
aF440.06666666666666
aF440.7583333333333
aF441.44166666666666
aF442.15833333333336
aF442.85
aF443.5472222222222
aF444.2111111111111
aF444.9277777777778
aF445.60833333333335
aF446.2944444444444
aF446.9972222222222
aF447.6972222222222
aF448.39166666666665
aF449.0861111111111
aF449.8027777777778
aF450.50555555555553
aF451.2111111111111
aF451.90833333333336
aF452.6111111111111
aF453.31944444444446
aF454.0361111111111
aF454.7527777777778
aF455.4555555555556
aF456.1611111111111
aF456.8861111111111
aF457.60277777777776
aF458.31666666666666
aF459.0083333333333
aF459.72777777777776
aF460.4138888888889
aF461.1222222222222
aF461.8361111111111
aF462.5388888888889
aF463.2472222222222
aF463.94166666666666
aF464.6694444444444
aF465.3638888888889
aF466.075
aF466.76666666666665
aF467.4638888888889
aF468.1638888888889
aF468.8722222222222
aF469.5861111111111
aF470.2888888888889
aF470.9888888888889
aF471.6972222222222
aF472.40833333333336
aF473.1222222222222
aF473.8277777777778
aF474.5416666666667
aF475.2527777777778
aF475.9638888888889
aF476.68611111111113
aF477.39166666666665
aF478.11944444444447
aF478.8333333333333
aF479.5777777777778
aF480.3027777777778
aF481.0138888888889
aF481.7388888888889
aF482.4472222222222
aF483.1722222222222
aF483.8777777777778
aF484.6
aF485.3027777777778
aF486.0083333333333
aF486.72777777777776
aF487.44444444444446
aF488.15
aF488.85
aF489.56388888888887
aF490.275
aF490.9861111111111
aF491.7138888888889
aF492.4222222222222
aF493.13055555555553
aF493.8611111111111
aF494.5777777777778
aF495.2916666666667
aF495.9888888888889
aF496.6972222222222
aF497.40555555555557
aF498.1111111111111
aF498.8305555555556
aF499.5388888888889
aF500.24444444444447
aF500.9638888888889
aF501.69166666666666
aF502.4111111111111
aF503.1138888888889
aF503.8305555555556
aF504.5388888888889
aF505.25555555555553
aF505.9861111111111
aF506.7111111111111
aF507.43055555555554
aF508.1388888888889
aF508.8777777777778
aF509.60277777777776
aF510.31111111111113
aF511.0472222222222
aF511.76666666666665
aF512.4916666666667
aF513.2361111111111
aF513.9805555555556
aF514.7222222222222
aF515.4611111111111
aF516.2138888888888
aF516.9611111111111
aF517.6722222222222
aF518.4222222222222
aF519.1555555555556
aF519.8777777777777
aF520.6194444444444
aF521.3416666666667
aF522.0583333333333
aF522.775
aF523.5166666666667
aF524.2472222222223
aF524.9583333333334
aF525.7027777777778
aF526.4277777777778
aF527.1444444444444
aF527.8805555555556
aF528.6083333333333
aF529.3333333333334
aF530.0555555555555
aF530.8027777777778
aF531.5222222222222
aF532.225
aF532.9527777777778
aF533.6583333333333
aF534.3777777777777
aF535.1027777777778
aF535.8166666666667
aF536.5166666666667
aF537.2361111111111
aF537.9527777777778
aF538.6638888888889
aF539.3611111111111
aF540.05
aF540.7555555555556
aF541.4388888888889
aF542.125
aF542.8222222222222
aF543.5083333333333
aF544.1666666666666
aF544.8583333333333
aF545.5583333333333
aF546.25
aF546.9166666666666
aF547.6277777777777
aF548.2972222222222
aF548.9916666666667
aF549.6916666666667
aF550.4027777777778
aF551.0888888888888
aF551.775
aF552.4888888888889
aF553.1833333333333
aF553.8833333333333
aF554.5583333333333
aF555.2472222222223
aF555.9388888888889
aF556.6305555555556
aF557.3305555555555
aF558.0333333333333
aF558.7194444444444
aF559.425
aF560.1472222222222
aF560.85
aF561.5555555555555
aF562.2583333333333
aF562.9555555555555
aF563.65
aF564.3444444444444
aF565.0472222222222
aF565.7361111111111
aF566.4194444444445
aF567.1083333333333
aF567.8083333333333
aF568.4944444444444
aF569.1833333333333
aF569.8833333333333
aF570.5722222222222
aF571.2694444444444
aF571.9694444444444
aF572.6722222222222
aF573.3583333333333
aF574.0527777777778
aF574.7472222222223
aF575.4333333333333
aF576.1305555555556
aF576.7888888888889
aF577.4888888888889
aF578.1722222222222
aF578.8527777777778
aF579.5527777777778
aF580.2333333333333
aF580.9277777777778
aF581.6138888888889
aF582.3222222222222
aF583.0166666666667
aF583.7166666666667
aF584.4055555555556
aF585.0972222222222
aF585.7833333333333
aF586.4888888888889
aF587.1805555555555
aF587.8611111111111
aF588.5388888888889
aF589.2222222222222
aF589.9138888888889
aF590.5972222222222
aF591.2611111111111
aF591.9444444444445
aF592.6166666666667
aF593.2972222222222
aF593.9833333333333
aF594.6722222222222
aF595.3555555555556
aF596.0361111111112
aF596.7305555555556
aF597.4277777777778
aF598.1277777777777
aF598.8
aF599.4972222222223
aF600.1777777777778
aF600.8666666666667
aF601.5638888888889
aF602.2583333333333
aF602.9472222222222
aF603.6305555555556
aF604.3388888888888
aF605.0305555555556
aF605.7222222222222
aF606.4111111111112
aF607.0888888888888
aF607.7861111111112
aF608.4805555555556
aF609.2
aF609.9
aF610.5972222222222
aF611.3194444444445
aF612.025
aF612.7361111111111
aF613.4055555555556
aF614.1194444444444
aF614.8027777777778
aF615.4972222222223
aF616.2
aF616.9055555555556
aF617.6055555555556
aF618.3027777777778
aF619.0277777777778
aF619.7333333333333
aF620.4277777777778
aF621.1361111111111
aF621.8416666666667
aF622.5388888888889
aF623.25
aF623.9583333333334
aF624.6638888888889
aF625.3527777777778
aF626.0833333333334
aF626.7777777777778
aF627.4777777777778
aF628.1638888888889
aF628.8666666666667
aF629.5611111111111
aF630.2472222222223
aF630.9666666666667
aF631.6611111111112
aF632.3472222222222
aF633.0527777777778
aF633.7694444444444
aF634.4833333333333
aF635.1666666666666
aF635.8916666666667
aF636.5888888888888
aF637.2944444444445
aF638.0166666666667
aF638.7305555555556
aF639.4222222222222
aF640.1166666666667
aF640.8444444444444
aF641.55
aF642.2527777777777
aF642.9472222222222
aF643.6555555555556
aF644.3444444444444
aF645.0527777777778
aF645.7638888888889
aF646.4555555555555
aF647.1388888888889
aF647.8444444444444
aF648.55
aF649.2444444444444
aF649.9305555555555
aF650.6361111111111
aF651.325
aF652.0027777777777
aF652.7
aF653.3972222222222
aF654.075
aF654.7638888888889
aF655.4777777777778
aF656.1611111111112
aF656.8638888888889
aF657.5472222222222
aF658.2583333333333
aF658.9388888888889
aF659.6444444444444
aF660.3388888888888
aF661.0305555555556
aF661.7194444444444
aF662.4111111111112
aF663.125
aF663.8083333333333
aF664.4916666666667
aF665.1888888888889
aF665.8777777777777
aF666.5666666666667
aF667.2666666666667
aF667.9777777777778
aF668.6638888888889
aF669.3583333333333
aF670.0722222222222
aF670.775
aF671.4861111111111
aF672.1638888888889
aF672.875
aF673.5527777777778
aF674.2444444444444
aF674.9416666666667
aF675.6222222222223
aF676.3
aF676.9777777777778
aF677.6805555555555
aF678.3666666666667
aF679.0638888888889
aF679.275
aF679.7444444444444
aF680.4388888888889
aF681.1444444444444
aF681.8555555555556
aF682.5694444444445
aF683.2666666666667
aF683.9611111111111
aF684.6611111111112
aF685.3638888888889
aF686.0694444444445
aF686.7555555555556
aF687.4472222222222
aF688.1333333333333
aF688.8222222222222
aF689.5166666666667
aF690.2194444444444
aF690.9055555555556
aF691.6
aF692.3111111111111
aF693.0277777777778
aF693.7416666666667
aF694.4472222222222
aF694.9833333333333
aF695.1611111111112
aF695.8805555555556
aF696.5888888888888
aF697.3027777777778
aF697.9972222222223
aF698.7055555555555
aF699.4083333333333
aF700.1222222222223
aF700.8444444444444
aF701.5583333333333
aF702.3083333333333
aF703.05
aF703.8111111111111
aF704.4388888888889
aF705.4027777777778
aF706.2138888888888
aF707.0527777777778
aF707.8444444444444
aF708.5916666666667
aF709.3416666666667
aF710.0722222222222
aF710.7944444444445
aF711.5166666666667
aF712.2222222222222
aF712.9416666666667
aF713.6277777777777
aF714.3611111111111
aF715.0583333333333
aF715.7666666666667
aF716.4527777777778
aF717.1583333333333
aF717.8583333333333
aF718.5527777777778
aF719.2694444444444
aF719.9555555555555
aF720.6444444444444
aF721.3361111111111
aF722.0305555555556
aF722.7277777777778
aF723.3916666666667
aF724.0861111111111
aF724.7694444444444
aF725.4583333333334
aF726.1555555555556
aF726.8555555555556
aF727.55
aF728.225
aF728.9472222222222
aF729.6444444444444
aF730.3416666666667
aF731.0277777777778
aF731.7277777777778
aF732.4166666666666
aF733.1055555555556
aF733.8138888888889
aF734.5138888888889
aF735.1861111111111
aF735.8666666666667
aF736.5666666666667
aF737.2416666666667
aF737.9027777777778
aF738.5916666666667
aF739.2583333333333
aF739.9361111111111
aF740.6222222222223
aF741.3277777777778
aF742.0083333333333
aF742.6861111111111
aF743.3972222222222
aF744.0861111111111
aF744.775
aF745.45
aF746.1583333333333
aF746.8583333333333
aF747.55
aF748.2611111111111
aF748.9777777777778
aF749.6694444444445
aF750.3694444444444
aF751.0888888888888
aF751.7916666666666
aF752.4777777777778
aF753.1805555555555
aF753.8666666666667
aF754.5611111111111
aF755.2472222222223
aF755.9416666666667
aF756.6222222222223
aF757.3
aF757.9972222222223
aF758.6972222222222
aF759.375
aF760.0444444444445
aF760.7472222222223
aF761.2694444444444
aF761.4111111111112
aF762.0916666666667
aF762.7861111111112
aF763.4777777777778
aF764.1583333333333
aF764.8444444444444
aF765.5472222222222
aF766.2416666666667
aF766.925
aF767.5972222222222
aF768.2861111111112
aF768.9611111111111
aF769.6388888888889
aF770.3277777777778
aF771.0166666666667
aF771.6861111111111
aF772.3555555555556
aF773.0611111111111
aF773.5916666666667
aF774.4111111111112
aF775.0833333333334
aF775.7805555555556
aF776.4611111111111
aF777.1694444444445
aF777.875
aF778.5805555555555
aF779.2888888888889
aF779.9972222222223
aF780.7222222222222
aF781.4361111111111
aF782.1361111111111
aF782.3138888888889
aF782.8472222222222
aF783.5361111111112
aF784.2333333333333
aF784.9361111111111
aF785.6277777777777
aF786.3222222222222
aF787.0166666666667
aF787.7388888888889
aF788.4305555555555
aF789.1472222222222
aF789.8361111111111
aF790.5416666666666
aF791.2416666666667
aF791.9444444444445
aF792.6555555555556
aF793.3361111111111
aF794.0305555555556
aF794.7194444444444
aF795.4138888888889
aF796.1027777777778
aF796.7833333333333
aF797.4694444444444
aF798.1527777777778
aF798.8416666666667
aF799.5333333333333
aF800.225
aF800.9083333333333
aF801.5916666666667
aF802.2916666666666
aF802.9805555555556
aF803.6722222222222
aF804.3305555555555
aF805.0166666666667
aF805.6861111111111
aF806.3611111111111
aF807.0388888888889
aF807.4527777777778
aF807.7138888888888
aF808.375
aF809.0361111111112
aF809.7138888888888
aF810.3833333333333
aF811.0583333333333
aF811.7138888888888
aF812.3861111111111
aF813.0638888888889
aF813.7388888888889
aF814.4333333333333
aF815.1111111111111
aF815.7944444444445
aF816.4611111111111
aF817.1666666666666
aF817.8472222222222
aF818.0138888888889
aF818.5277777777778
aF819.1944444444445
aF819.8694444444444
aF820.5277777777778
aF821.1916666666667
aF821.8722222222223
aF822.5333333333333
aF822.7916666666666
aF823.1888888888889
aF823.8472222222222
aF824.2222222222222
aF824.5222222222222
aF825.1944444444445
aF825.8527777777778
aF826.5055555555556
aF827.1666666666666
aF827.8361111111111
aF828.5
aF829.175
aF829.4472222222222
aF829.8416666666667
aF830.5083333333333
aF831.1666666666666
aF831.8527777777778
aF832.5222222222222
aF833.1861111111111
aF833.85
aF834.525
aF834.7805555555556
aF835.1944444444445
aF835.8611111111111
aF836.5611111111111
aF837.225
aF837.8972222222222
aF838.5694444444445
aF839.2666666666667
aF839.9333333333333
aF840.5944444444444
aF841.2666666666667
aF841.9388888888889
aF842.6055555555556
aF843.2694444444444
aF843.9444444444445
aF844.6055555555556
aF845.2666666666667
aF845.9361111111111
aF846.6138888888889
aF847.2861111111112
aF847.95
aF848.6222222222223
aF849.3027777777778
aF849.9888888888889
aF850.6583333333333
aF851.35
aF852.0305555555556
aF852.6916666666667
aF853.375
aF854.0694444444445
aF854.7444444444444
aF855.4027777777778
aF856.0916666666667
aF856.7638888888889
aF857.4333333333333
aF858.1222222222223
aF858.8111111111111
aF859.4833333333333
aF860.1527777777778
aF860.8444444444444
aF861.5305555555556
aF862.2222222222222
aF862.8833333333333
aF863.5833333333334
aF864.2583333333333
aF864.9361111111111
aF865.6277777777777
aF866.325
aF866.9972222222223
aF867.6888888888889
aF868.3916666666667
aF869.0833333333334
aF869.7666666666667
aF870.4388888888889
aF871.1333333333333
aF871.8138888888889
aF872.5
aF873.2055555555555
aF873.8916666666667
aF874.5833333333334
aF875.2638888888889
aF875.9722222222222
aF876.6527777777778
aF877.3305555555555
aF878.0222222222222
aF878.7083333333334
aF879.3888888888889
aF880.0777777777778
aF880.7805555555556
aF881.4666666666667
aF882.1638888888889
aF882.875
aF883.5833333333334
aF884.2833333333333
aF884.9833333333333
aF885.6972222222222
aF886.4055555555556
aF887.1138888888889
aF887.8416666666667
aF888.5555555555555
aF889.2666666666667
aF889.9777777777778
aF890.7083333333334
aF891.4111111111112
aF892.1194444444444
aF892.8305555555555
aF893.5333333333333
aF894.2472222222223
aF894.9527777777778
aF895.6722222222222
aF896.3694444444444
aF897.0666666666667
aF897.7944444444445
aF898.4972222222223
aF899.2166666666667
aF899.9138888888889
aF900.6277777777777
aF901.3277777777778
aF902.0388888888889
aF902.7527777777777
aF903.45
aF904.1444444444444
aF904.8583333333333
aF905.5583333333333
aF906.2777777777778
aF906.9638888888888
aF907.6777777777778
aF908.375
aF909.0972222222222
aF909.8222222222222
aF910.5444444444445
aF911.2583333333333
aF911.9722222222222
aF912.6888888888889
aF913.4138888888889
aF914.1083333333333
aF914.8138888888889
aF915.5027777777777
aF916.2083333333334
aF916.925
aF917.6388888888889
aF918.35
aF919.0527777777778
aF919.7833333333333
aF920.4888888888889
aF921.1972222222222
aF921.8972222222222
aF922.6027777777778
aF923.3055555555555
aF924.0166666666667
aF924.7305555555556
aF925.4361111111111
aF926.1472222222222
aF926.8666666666667
aF927.5694444444445
aF928.2888888888889
aF928.9861111111111
aF929.7027777777778
aF930.4166666666666
aF931.1277777777777
aF931.8472222222222
aF932.5583333333333
aF933.2611111111111
aF933.975
aF934.6888888888889
aF935.4055555555556
aF936.0944444444444
aF936.8138888888889
aF937.5194444444444
aF938.2333333333333
aF938.9472222222222
aF939.6694444444445
aF940.3611111111111
aF941.0527777777778
aF941.7694444444444
aF942.4805555555556
aF943.1666666666666
aF943.8611111111111
aF944.5583333333333
aF945.2638888888889
aF945.9694444444444
aF946.6805555555555
aF947.3861111111111
aF948.075
aF948.7805555555556
aF949.4833333333333
aF950.1944444444445
aF950.875
aF951.5805555555555
aF952.275
aF952.975
aF953.6861111111111
aF954.3916666666667
aF955.0805555555555
aF955.7805555555556
aF956.4972222222223
aF957.2
aF957.8944444444444
aF958.6111111111111
aF959.3166666666667
aF960.025
aF960.7361111111111
aF961.4583333333334
aF962.1583333333333
aF962.8527777777778
aF963.5666666666667
aF964.2722222222222
aF964.9805555555556
aF965.6666666666666
aF966.3833333333333
aF967.0805555555555
aF967.775
aF968.4861111111111
aF969.1861111111111
aF969.8777777777777
aF970.5777777777778
aF971.2888888888889
aF971.9888888888889
aF972.675
aF973.3777777777777
aF974.075
aF974.7666666666667
aF975.4694444444444
aF976.1805555555555
aF976.875
aF977.5611111111111
aF978.2833333333333
aF978.9805555555556
aF979.6916666666667
aF980.3861111111111
aF981.1194444444444
aF981.8416666666667
aF982.5694444444445
aF983.3111111111111
aF984.0388888888889
aF984.7666666666667
aF985.5083333333333
aF986.25
aF986.9805555555556
aF987.6916666666667
aF988.4305555555555
aF989.1444444444444
aF989.8638888888889
aF990.6027777777778
aF991.325
aF992.0416666666666
aF992.7694444444444
aF993.5222222222222
aF994.25
aF994.9583333333334
aF995.6944444444445
aF996.4055555555556
aF997.1305555555556
aF997.8611111111111
aF998.5694444444445
aF999.2694444444444
aF999.9777777777778
aF1000.6916666666667
aF1001.3777777777777
aF1002.0694444444445
aF1002.7666666666667
aF1003.4583333333334
aF1004.15
aF1004.8611111111111
aF1005.5805555555555
aF1006.2861111111112
aF1006.9916666666667
aF1007.725
aF1008.4305555555555
aF1009.1583333333333
aF1009.8527777777778
aF1010.5666666666667
aF1011.2583333333333
aF1011.9666666666667
aF1012.675
aF1013.3472222222222
aF1014.0388888888889
aF1014.7416666666667
aF1015.4361111111111
aF1016.1361111111111
aF1016.8166666666667
aF1017.5305555555556
aF1018.2194444444444
aF1018.9194444444445
aF1019.625
aF1020.3222222222222
aF1021.0194444444444
aF1021.7111111111111
aF1022.4361111111111
aF1023.1194444444444
aF1023.825
aF1024.5166666666667
aF1025.2194444444444
aF1025.9333333333334
aF1026.6555555555556
aF1027.375
aF1028.088888888889
aF1028.8055555555557
aF1029.55
aF1030.263888888889
aF1030.9888888888888
aF1031.6944444444443
aF1032.3972222222221
aF1033.111111111111
aF1033.8166666666666
aF1034.536111111111
aF1035.2388888888888
aF1035.9388888888889
aF1036.6416666666667
aF1037.35
aF1038.0777777777778
aF1038.7666666666667
aF1039.4916666666666
aF1040.2166666666667
aF1040.9444444444443
aF1041.6861111111111
aF1042.411111111111
aF1043.15
aF1043.8833333333334
aF1044.6166666666666
aF1045.361111111111
aF1046.075
aF1046.8055555555557
aF1047.5277777777778
aF1048.2527777777777
aF1048.9805555555556
aF1049.6972222222223
aF1050.4194444444445
aF1051.1305555555555
aF1051.8555555555556
aF1052.5694444444443
aF1053.2777777777778
aF1053.986111111111
aF1054.7
aF1055.4027777777778
aF1056.1083333333333
aF1056.8194444444443
aF1057.5166666666667
aF1058.2083333333333
aF1058.925
aF1059.6166666666666
aF1060.3083333333334
aF1060.9972222222223
aF1061.6944444444443
aF1062.388888888889
aF1063.0833333333333
aF1063.7944444444445
aF1064.4916666666666
aF1065.1888888888889
aF1065.8916666666667
aF1066.6083333333333
aF1067.3194444444443
aF1068.0055555555555
aF1068.7111111111112
aF1069.4166666666667
aF1070.125
aF1070.8333333333333
aF1071.5555555555557
aF1072.2583333333334
aF1072.9555555555555
aF1073.6916666666666
aF1074.4
aF1075.1083333333333
aF1075.8027777777777
aF1076.5166666666667
aF1077.2222222222222
aF1077.9222222222222
aF1078.6472222222221
aF1079.3472222222222
aF1080.0305555555556
aF1080.7472222222223
aF1081.4583333333333
aF1082.1694444444445
aF1082.85
aF1083.5666666666666
aF1084.2611111111112
aF1084.9555555555555
aF1085.6666666666667
aF1086.3833333333334
aF1087.0833333333333
aF1087.7805555555556
aF1088.5166666666667
aF1089.2277777777779
aF1089.9416666666666
aF1090.6666666666667
aF1091.3805555555555
aF1092.088888888889
aF1092.8055555555557
aF1093.5333333333333
aF1094.236111111111
aF1094.9361111111111
aF1095.6638888888888
aF1096.3694444444445
aF1097.0805555555555
aF1097.7694444444444
aF1098.4805555555556
aF1099.1777777777777
aF1099.8861111111112
aF1100.611111111111
aF1101.3194444444443
aF1102.013888888889
aF1102.7305555555556
aF1103.4472222222223
aF1104.1555555555556
aF1104.8416666666667
aF1105.5638888888889
aF1106.2555555555555
aF1106.9527777777778
aF1107.6555555555556
aF1108.3694444444445
aF1109.0638888888889
aF1109.7555555555555
aF1110.4944444444445
aF1111.1888888888889
aF1111.8972222222221
aF1112.611111111111
aF1113.3222222222223
aF1114.0333333333333
aF1114.7694444444444
aF1115.5166666666667
aF1116.2305555555556
aF1116.9583333333333
aF1117.7166666666667
aF1118.4361111111111
aF1119.1722222222222
aF1119.8944444444444
aF1120.6055555555556
aF1121.3277777777778
aF1122.0555555555557
aF1122.7944444444445
aF1123.513888888889
aF1124.2388888888888
aF1124.9916666666666
aF1125.713888888889
aF1126.4416666666666
aF1127.1694444444445
aF1127.8944444444444
aF1128.6083333333333
aF1129.3527777777779
aF1130.0805555555555
aF1130.7972222222222
aF1131.5194444444444
aF1132.2583333333334
aF1132.9777777777779
aF1133.6972222222223
aF1134.4361111111111
aF1135.1472222222221
aF1135.8694444444445
aF1136.6083333333333
aF1137.3444444444444
aF1138.0777777777778
aF1138.8055555555557
aF1139.5583333333334
aF1140.2777777777778
aF1141.0055555555555
aF1141.725
aF1142.4333333333334
aF1143.15
aF1143.8777777777777
aF1144.6027777777779
aF1145.3138888888889
aF1146.0305555555556
aF1146.7611111111112
aF1147.4777777777779
aF1148.1944444444443
aF1148.9027777777778
aF1149.6194444444445
aF1150.3444444444444
aF1151.0777777777778
aF1151.8111111111111
aF1152.5277777777778
aF1153.25
aF1153.9888888888888
aF1154.7083333333333
aF1155.4277777777777
aF1156.1305555555555
aF1156.838888888889
aF1157.5527777777777
aF1158.2666666666667
aF1158.9944444444445
aF1159.7083333333333
aF1160.4194444444445
aF1161.1416666666667
aF1161.8722222222223
aF1162.6083333333333
aF1163.3222222222223
aF1164.0527777777777
aF1164.775
aF1165.5055555555555
aF1166.236111111111
aF1166.9583333333333
aF1167.675
aF1168.388888888889
aF1169.1055555555556
aF1169.825
aF1170.5305555555556
aF1171.2527777777777
aF1171.9694444444444
aF1172.6916666666666
aF1173.4166666666667
aF1174.1555555555556
aF1174.8777777777777
aF1175.588888888889
aF1176.3277777777778
aF1177.0472222222222
aF1177.763888888889
aF1178.4805555555556
aF1179.1972222222223
aF1179.9138888888888
aF1180.6333333333334
aF1181.375
aF1182.0916666666667
aF1182.8138888888889
aF1183.5527777777777
aF1184.2777777777778
aF1185.0055555555555
aF1185.7277777777779
aF1186.463888888889
aF1187.1861111111111
aF1187.9166666666667
aF1188.6583333333333
aF1189.3833333333334
aF1190.1055555555556
aF1190.8416666666667
aF1191.5666666666666
aF1192.286111111111
aF1193.0027777777777
aF1193.7305555555556
aF1194.4583333333333
aF1195.1888888888889
aF1195.9361111111111
aF1196.661111111111
aF1197.3777777777777
aF1198.125
aF1198.8555555555556
aF1199.5833333333333
aF1200.3027777777777
aF1201.0305555555556
aF1201.75
aF1202.4833333333333
aF1203.2166666666667
aF1203.9361111111111
aF1204.6444444444444
aF1205.3916666666667
aF1206.1222222222223
aF1206.861111111111
aF1207.588888888889
aF1208.3305555555555
aF1209.0666666666666
aF1209.8055555555557
aF1210.5611111111111
aF1211.2944444444445
aF1212.013888888889
aF1212.7583333333334
aF1213.4888888888888
aF1214.2166666666667
aF1214.9472222222223
aF1215.6777777777777
aF1216.3944444444444
aF1217.1194444444445
aF1217.8638888888888
aF1218.5833333333333
aF1219.2916666666667
aF1220.0416666666667
aF1220.7611111111112
aF1221.4888888888888
aF1222.2111111111112
aF1222.9388888888889
aF1223.661111111111
aF1224.3777777777777
aF1225.1194444444445
aF1225.8305555555555
aF1226.55
aF1227.2805555555556
aF1228.0111111111112
aF1228.725
aF1229.4361111111111
aF1230.1694444444445
aF1230.888888888889
aF1231.625
aF1232.3666666666666
aF1233.088888888889
aF1233.8111111111111
aF1234.5583333333334
aF1235.286111111111
aF1236.0111111111112
aF1236.7222222222222
aF1237.4472222222223
aF1238.1638888888888
aF1238.8861111111112
aF1239.6194444444445
aF1240.3277777777778
aF1241.0333333333333
aF1241.7666666666667
aF1242.4805555555556
aF1243.2027777777778
aF1243.9083333333333
aF1244.6361111111112
aF1245.3555555555556
aF1246.0805555555555
aF1246.8305555555555
aF1247.5416666666667
aF1248.2583333333334
aF1248.9916666666666
aF1249.7222222222222
aF1250.4472222222223
aF1251.1555555555556
aF1251.8972222222221
aF1252.6138888888888
aF1253.3472222222222
aF1254.0944444444444
aF1254.8277777777778
aF1255.5611111111111
aF1256.3138888888889
aF1257.0583333333334
aF1257.8055555555557
aF1258.5333333333333
aF1259.2777777777778
aF1260.0
aF1260.7222222222222
aF1261.4555555555555
aF1262.1694444444445
aF1262.8861111111112
aF1263.6083333333333
aF1264.3333333333333
aF1265.0472222222222
aF1265.7527777777777
aF1266.4805555555556
aF1267.1916666666666
aF1267.9166666666667
aF1268.6527777777778
aF1269.375
aF1270.0972222222222
aF1270.8222222222223
aF1271.5611111111111
aF1272.2833333333333
aF1272.986111111111
aF1273.7166666666667
aF1274.4277777777777
aF1275.1527777777778
aF1275.8777777777777
aF1276.5972222222222
aF1277.3138888888889
aF1278.0277777777778
aF1278.7694444444444
aF1279.4777777777779
aF1280.1972222222223
aF1280.9055555555556
aF1281.6222222222223
aF1282.3416666666667
aF1283.0666666666666
aF1283.7916666666667
aF1284.5027777777777
aF1285.213888888889
aF1285.9472222222223
aF1286.6638888888888
aF1287.3861111111112
aF1288.0916666666667
aF1288.8055555555557
aF1289.5277777777778
aF1290.2472222222223
aF1290.9833333333333
aF1291.6972222222223
aF1292.4166666666667
aF1293.1472222222221
aF1293.8777777777777
aF1294.6222222222223
aF1295.3277777777778
aF1296.0638888888889
aF1296.786111111111
aF1297.513888888889
aF1298.2527777777777
aF1298.9777777777779
aF1299.6944444444443
aF1300.4138888888888
aF1301.138888888889
aF1301.8638888888888
aF1302.5666666666666
aF1303.2944444444445
aF1304.0166666666667
aF1304.736111111111
aF1305.4805555555556
aF1306.2111111111112
aF1306.9444444444443
aF1307.6833333333334
aF1308.4277777777777
aF1309.1694444444445
aF1309.8833333333334
aF1310.6277777777777
aF1311.3583333333333
aF1312.0916666666667
aF1312.8361111111112
aF1313.5805555555555
aF1314.3166666666666
aF1315.0666666666666
aF1315.8194444444443
aF1316.5611111111111
aF1317.2944444444445
aF1318.05
aF1318.8
aF1319.5472222222222
aF1320.3166666666666
aF1321.0583333333334
aF1321.7888888888888
aF1322.5527777777777
aF1323.2888888888888
aF1324.0194444444444
aF1324.75
aF1325.4777777777779
aF1326.2027777777778
aF1326.9388888888889
aF1327.6777777777777
aF1328.4055555555556
aF1329.125
aF1329.8861111111112
aF1330.6361111111112
aF1331.361111111111
aF1332.111111111111
aF1332.8444444444444
aF1333.5722222222223
aF1334.3111111111111
aF1335.0444444444445
aF1335.763888888889
aF1336.4777777777779
aF1337.225
aF1337.9472222222223
aF1338.661111111111
aF1339.388888888889
aF1340.1027777777779
aF1340.8166666666666
aF1341.5444444444445
aF1342.2805555555556
aF1343.0083333333334
aF1343.713888888889
aF1344.4583333333333
aF1345.175
aF1345.8861111111112
aF1346.6055555555556
aF1347.3222222222223
aF1348.0388888888888
aF1348.763888888889
aF1349.5055555555555
aF1350.2194444444444
aF1350.9361111111111
aF1351.6888888888889
aF1352.4222222222222
aF1353.1527777777778
aF1353.888888888889
aF1354.6277777777777
aF1355.35
aF1356.088888888889
aF1356.825
aF1357.536111111111
aF1358.2527777777777
aF1358.9944444444445
aF1359.7111111111112
aF1360.4083333333333
aF1361.1194444444445
aF1361.8277777777778
aF1362.536111111111
aF1363.2444444444445
aF1363.986111111111
aF1364.6916666666666
aF1365.4194444444445
aF1366.1583333333333
aF1366.8861111111112
aF1367.6083333333333
aF1368.3111111111111
aF1369.0416666666667
aF1369.75
aF1370.4805555555556
aF1371.213888888889
aF1371.9333333333334
aF1372.6472222222221
aF1373.388888888889
aF1374.1222222222223
aF1374.8638888888888
aF1375.5833333333333
aF1376.325
aF1377.0527777777777
aF1377.8
aF1378.5527777777777
aF1379.2777777777778
aF1380.0
aF1380.736111111111
aF1381.475
aF1382.1972222222223
aF1382.911111111111
aF1383.6361111111112
aF1384.3444444444444
aF1385.0611111111111
aF1385.7916666666667
aF1386.513888888889
aF1387.2277777777779
aF1387.9583333333333
aF1388.6916666666666
aF1389.4277777777777
aF1390.1361111111112
aF1390.8777777777777
aF1391.5916666666667
aF1392.3138888888889
aF1393.05
aF1393.7777777777778
aF1394.513888888889
aF1395.2444444444445
aF1395.9833333333333
aF1396.713888888889
aF1397.4361111111111
aF1398.175
aF1398.8944444444444
aF1399.6194444444445
aF1400.3638888888888
aF1401.0916666666667
aF1401.825
aF1402.5583333333334
aF1403.3055555555557
aF1404.0472222222222
aF1404.7666666666667
aF1405.5166666666667
aF1406.2388888888888
aF1406.9833333333333
aF1407.725
aF1408.4583333333333
aF1409.1916666666666
aF1409.9277777777777
aF1410.6777777777777
aF1411.4166666666667
aF1412.1472222222221
aF1412.8833333333334
aF1413.625
aF1414.3694444444445
aF1415.1194444444445
aF1415.861111111111
aF1416.5944444444444
aF1417.338888888889
aF1418.0861111111112
aF1418.8361111111112
aF1419.5527777777777
aF1420.2944444444445
aF1421.0222222222221
aF1421.7555555555555
aF1422.5
aF1423.225
aF1423.9583333333333
aF1424.6944444444443
aF1425.4333333333334
aF1426.175
aF1426.888888888889
aF1427.6194444444445
aF1428.3416666666667
aF1429.0694444444443
aF1429.7972222222222
aF1430.5166666666667
aF1431.2416666666666
aF1431.9666666666667
aF1432.6972222222223
aF1433.425
aF1434.1277777777777
aF1434.8527777777779
aF1435.5722222222223
aF1436.2916666666667
aF1437.025
aF1437.7527777777777
aF1438.4805555555556
aF1439.2194444444444
aF1439.9555555555555
aF1440.6944444444443
aF1441.4083333333333
aF1442.1361111111112
aF1442.8722222222223
aF1443.588888888889
aF1444.325
aF1445.05
aF1445.763888888889
aF1446.5
aF1447.2194444444444
aF1447.9555555555555
aF1448.6472222222221
aF1449.375
aF1450.0916666666667
aF1450.8194444444443
aF1451.55
aF1452.2722222222221
aF1452.9916666666666
aF1453.713888888889
aF1454.4583333333333
aF1455.1861111111111
aF1455.8916666666667
aF1456.625
aF1457.3527777777779
aF1458.0805555555555
aF1458.8305555555555
aF1459.5722222222223
aF1460.3055555555557
aF1461.0444444444445
aF1461.8055555555557
aF1462.5611111111111
aF1463.2805555555556
aF1464.0416666666667
aF1464.775
aF1465.5166666666667
aF1466.2694444444444
aF1467.0055555555555
aF1467.7305555555556
aF1468.4722222222222
aF1469.2111111111112
aF1469.9416666666666
aF1470.6527777777778
aF1471.388888888889
aF1472.1194444444445
aF1472.8361111111112
aF1473.588888888889
aF1474.3194444444443
aF1475.0472222222222
aF1475.7972222222222
aF1476.5388888888888
aF1477.2888888888888
aF1478.0055555555555
aF1478.7555555555555
aF1479.4888888888888
aF1480.2194444444444
aF1480.9694444444444
aF1481.7055555555555
aF1482.4361111111111
aF1483.1861111111111
aF1483.9361111111111
aF1484.6722222222222
aF1485.4027777777778
aF1486.1583333333333
aF1486.8972222222221
aF1487.638888888889
aF1488.4
aF1489.1305555555555
aF1489.8638888888888
aF1490.611111111111
aF1491.3416666666667
aF1492.0722222222223
aF1492.7805555555556
aF1493.5166666666667
aF1494.2305555555556
aF1494.9611111111112
aF1495.7055555555555
aF1496.4194444444445
aF1497.15
aF1497.8944444444444
aF1498.638888888889
aF1499.3833333333334
aF1500.1055555555556
aF1500.85
aF1501.575
aF1502.3138888888889
aF1503.0722222222223
aF1503.7944444444445
aF1504.525
aF1505.286111111111
aF1506.0305555555556
aF1506.7833333333333
aF1507.5277777777778
aF1508.2694444444444
aF1509.0166666666667
aF1509.786111111111
aF1510.5611111111111
aF1511.2916666666667
aF1512.0333333333333
aF1512.8
aF1513.5388888888888
aF1514.286111111111
aF1515.0333333333333
aF1515.7555555555555
aF1516.4916666666666
aF1517.2305555555556
aF1517.9666666666667
aF1518.7
aF1519.425
aF1520.1861111111111
aF1520.9194444444445
aF1521.6555555555556
aF1522.4055555555556
aF1523.1305555555555
aF1523.8694444444445
aF1524.6222222222223
aF1525.361111111111
aF1526.0972222222222
aF1526.8444444444444
aF1527.5916666666667
aF1528.3277777777778
aF1529.0555555555557
aF1529.7972222222222
aF1530.5305555555556
aF1531.275
aF1532.0305555555556
aF1532.7666666666667
aF1533.5111111111112
aF1534.2583333333334
aF1535.0083333333334
aF1535.7472222222223
aF1536.4555555555555
aF1537.1916666666666
aF1537.9055555555556
aF1538.638888888889
aF1539.3722222222223
aF1540.088888888889
aF1540.8083333333334
aF1541.55
aF1542.2833333333333
aF1543.025
aF1543.7472222222223
aF1544.4833333333333
aF1545.213888888889
aF1545.9583333333333
aF1546.7055555555555
aF1547.4333333333334
aF1548.1722222222222
aF1548.9083333333333
aF1549.6472222222221
aF1550.388888888889
aF1551.1055555555556
aF1551.838888888889
aF1552.5583333333334
aF1553.2916666666667
aF1554.0333333333333
aF1554.7583333333334
aF1555.486111111111
aF1556.2305555555556
aF1556.9611111111112
aF1557.7
aF1558.4222222222222
aF1559.1555555555556
aF1559.8805555555555
aF1560.6083333333333
aF1561.3444444444444
aF1562.0666666666666
aF1562.7888888888888
aF1563.5194444444444
aF1564.2416666666666
aF1564.9694444444444
aF1565.6805555555557
aF1566.4055555555556
aF1567.1333333333334
aF1567.8527777777779
aF1568.5861111111112
aF1569.3055555555557
aF1570.0194444444444
aF1570.75
aF1571.4666666666667
aF1572.1972222222223
aF1572.8916666666667
aF1573.6222222222223
aF1574.3333333333333
aF1575.05
aF1575.7694444444444
aF1576.4833333333333
aF1577.2
aF1577.911111111111
aF1578.6444444444444
aF1579.3638888888888
aF1580.0694444444443
aF1580.7888888888888
aF1581.5111111111112
aF1582.2277777777779
aF1582.9583333333333
aF1583.6861111111111
aF1584.4083333333333
aF1585.1166666666666
aF1585.8583333333333
aF1586.5833333333333
aF1587.2944444444445
aF1588.0111111111112
aF1588.725
aF1589.4444444444443
aF1590.15
aF1590.8861111111112
aF1591.588888888889
aF1592.2972222222222
aF1593.025
aF1593.7444444444445
aF1594.463888888889
aF1595.1722222222222
aF1595.8944444444444
aF1596.6083333333333
aF1597.3277777777778
aF1598.0611111111111
aF1598.7888888888888
aF1599.4972222222223
aF1600.2333333333333
aF1600.9527777777778
aF1601.6833333333334
aF1602.3805555555555
aF1603.1166666666666
aF1603.8305555555555
aF1604.5416666666667
aF1605.275
aF1605.9833333333333
aF1606.6972222222223
aF1607.4138888888888
aF1608.1416666666667
aF1608.8555555555556
aF1609.5583333333334
aF1610.2805555555556
aF1610.9972222222223
aF1611.7027777777778
aF1612.4333333333334
aF1613.1444444444444
aF1613.861111111111
aF1614.5805555555555
aF1615.3194444444443
aF1616.0416666666667
aF1616.7444444444445
aF1617.486111111111
aF1618.2083333333333
aF1618.9361111111111
aF1619.6722222222222
aF1620.4055555555556
aF1621.1277777777777
aF1621.861111111111
aF1622.6055555555556
aF1623.3222222222223
aF1624.0305555555556
aF1624.7527777777777
aF1625.4694444444444
aF1626.1722222222222
aF1626.9027777777778
aF1627.611111111111
aF1628.3194444444443
aF1629.036111111111
aF1629.7722222222221
aF1630.4972222222223
aF1631.2027777777778
aF1631.9444444444443
aF1632.6583333333333
aF1633.3833333333334
aF1634.1222222222223
aF1634.8527777777779
aF1635.5722222222223
aF1636.3027777777777
aF1637.05
aF1637.7777777777778
aF1638.4916666666666
aF1639.2333333333333
aF1639.9555555555555
aF1640.6777777777777
aF1641.4194444444445
aF1642.1472222222221
aF1642.8694444444445
aF1643.6
aF1644.3416666666667
aF1645.0527777777777
aF1645.7583333333334
aF1646.486111111111
aF1647.1944444444443
aF1647.9
aF1648.625
aF1649.338888888889
aF1650.0555555555557
aF1650.775
aF1651.513888888889
aF1652.2388888888888
aF1652.9416666666666
aF1653.6833333333334
aF1654.3972222222221
aF1655.1277777777777
aF1655.8777777777777
aF1656.611111111111
aF1657.338888888889
aF1658.0611111111111
aF1658.8138888888889
aF1659.5277777777778
aF1660.2444444444445
aF1660.9722222222222
aF1661.6805555555557
aF1662.4083333333333
aF1663.1416666666667
aF1663.875
aF1664.5916666666667
aF1665.3222222222223
aF1666.075
aF1666.8
aF1667.525
aF1668.2555555555555
aF1668.9722222222222
aF1669.6972222222223
aF1670.4277777777777
aF1671.1555555555556
aF1671.8638888888888
aF1672.5805555555555
aF1673.3194444444443
aF1674.0388888888888
aF1674.7583333333334
aF1675.4833333333333
aF1676.2
aF1676.9222222222222
aF1677.6583333333333
aF1678.3916666666667
aF1679.1138888888888
aF1679.8305555555555
aF1680.575
aF1681.2916666666667
aF1682.013888888889
aF1682.7305555555556
aF1683.4361111111111
aF1684.1555555555556
aF1684.8694444444445
aF1685.5972222222222
aF1686.3027777777777
aF1687.0222222222221
aF1687.7472222222223
aF1688.4666666666667
aF1689.1916666666666
aF1689.9027777777778
aF1690.625
aF1691.3416666666667
aF1692.0666666666666
aF1692.7944444444445
aF1693.5083333333334
aF1694.2194444444444
aF1694.9388888888889
aF1695.65
aF1696.3638888888888
aF1697.05
aF1697.7666666666667
aF1698.4694444444444
aF1699.1888888888889
aF1699.911111111111
aF1700.6277777777777
aF1701.3527777777779
aF1702.0722222222223
aF1702.8083333333334
aF1703.5388888888888
aF1704.2472222222223
aF1704.9694444444444
aF1705.6861111111111
aF1706.4055555555556
aF1707.1333333333334
aF1707.8555555555556
aF1708.5722222222223
aF1709.2805555555556
aF1710.0222222222221
aF1710.7416666666666
aF1711.463888888889
aF1712.1861111111111
aF1712.9
aF1713.6305555555555
aF1714.3527777777779
aF1715.0944444444444
aF1715.8138888888889
aF1716.525
aF1717.2694444444444
aF1717.9916666666666
aF1718.7166666666667
aF1719.4361111111111
aF1720.161111111111
aF1720.8833333333334
aF1721.6194444444445
aF1722.361111111111
aF1723.0944444444444
aF1723.8222222222223
aF1724.5805555555555
aF1725.3277777777778
aF1726.0666666666666
aF1726.8166666666666
aF1727.5527777777777
aF1728.2888888888888
aF1729.0305555555556
aF1729.775
aF1730.5111111111112
aF1731.2416666666666
aF1731.9972222222223
aF1732.7388888888888
aF1733.45
aF1734.2027777777778
aF1734.9333333333334
aF1735.661111111111
aF1736.4027777777778
aF1737.1305555555555
aF1737.8666666666666
aF1738.5916666666667
aF1739.338888888889
aF1740.0694444444443
aF1740.7666666666667
aF1741.5083333333334
aF1742.2166666666667
aF1742.9388888888889
aF1743.6583333333333
aF1744.3805555555555
aF1745.0861111111112
aF1745.8027777777777
aF1746.5305555555556
aF1747.2555555555555
aF1747.9583333333333
aF1748.6916666666666
aF1749.4138888888888
aF1750.1333333333334
aF1750.8777777777777
aF1751.6055555555556
aF1752.3333333333333
aF1753.0527777777777
aF1753.7972222222222
aF1754.5388888888888
aF1755.2416666666666
aF1755.986111111111
aF1756.7055555555555
aF1757.425
aF1758.161111111111
aF1758.8916666666667
aF1759.6083333333333
aF1760.3305555555555
aF1761.0722222222223
aF1761.8
aF1762.5083333333334
aF1763.25
aF1763.9722222222222
aF1764.7
aF1765.4388888888889
aF1766.1722222222222
aF1766.8944444444444
aF1767.6194444444445
aF1768.3666666666666
aF1769.088888888889
aF1769.8027777777777
aF1770.5388888888888
aF1771.2666666666667
aF1771.9888888888888
aF1772.7277777777779
aF1773.4666666666667
aF1774.1833333333334
aF1774.9138888888888
aF1775.6583333333333
aF1776.3805555555555
aF1777.0861111111112
aF1777.8194444444443
aF1778.5388888888888
aF1779.25
aF1779.9805555555556
aF1780.6944444444443
aF1781.4055555555556
aF1782.111111111111
aF1782.8555555555556
aF1783.5638888888889
aF1784.275
aF1784.9944444444445
aF1785.7083333333333
aF1786.425
aF1787.15
aF1787.888888888889
aF1788.6027777777779
aF1789.3222222222223
aF1790.0694444444443
aF1790.7888888888888
aF1791.5055555555555
aF1792.2222222222222
aF1792.9361111111111
aF1793.6472222222221
aF1794.3722222222223
aF1795.1083333333333
aF1795.8194444444443
aF1796.5305555555556
aF1797.2722222222221
aF1797.9916666666666
aF1798.7222222222222
aF1799.4388888888889
aF1800.1638888888888
aF1800.888888888889
aF1801.6166666666666
aF1802.3555555555556
aF1803.0694444444443
aF1803.7805555555556
aF1804.5166666666667
aF1805.2305555555556
atp3
Rp4
.