carray
array
p0
(S'd'
p1
(lp2
F0.1
aF0.4527777777777778
aF1.425
aF2.4277777777777776
aF3.3805555555555555
aF4.358333333333333
aF5.344444444444444
aF6.341666666666667
aF7.338888888888889
aF8.366666666666667
aF9.38888888888889
aF10.38888888888889
aF11.422222222222222
aF12.397222222222222
aF13.38888888888889
aF14.411111111111111
aF15.4
aF16.391666666666666
aF17.40277777777778
aF18.40277777777778
aF19.40277777777778
aF20.397222222222222
aF21.383333333333333
aF22.355555555555554
aF23.32777777777778
aF24.3
aF25.280555555555555
aF26.252777777777776
aF27.216666666666665
aF28.22222222222222
aF29.197222222222223
aF30.16111111111111
aF31.17222222222222
aF32.15833333333333
aF33.147222222222226
aF34.15277777777778
aF35.15277777777778
aF36.172222222222224
aF37.21111111111111
aF38.236111111111114
aF39.28055555555556
aF40.31944444444444
aF41.358333333333334
aF42.40833333333333
aF43.43611111111111
aF44.46388888888889
aF45.513888888888886
aF46.516666666666666
aF47.53611111111111
aF48.55555555555556
aF49.55277777777778
aF50.525
aF51.49722222222222
aF52.46111111111111
aF53.458333333333336
aF54.44166666666667
aF55.422222222222224
aF56.44444444444444
aF57.45
aF58.46944444444444
aF59.5
aF60.49722222222222
aF61.53055555555556
aF62.55277777777778
aF63.544444444444444
aF64.55555555555556
aF65.56388888888888
aF66.55555555555556
aF67.53611111111111
aF68.49722222222222
aF69.45555555555555
aF70.45
aF71.43333333333334
aF72.41111111111111
aF73.42777777777778
aF74.41944444444445
aF75.40277777777777
aF76.41944444444445
aF77.42777777777778
aF78.44166666666666
aF79.46666666666667
aF80.47222222222223
aF81.50277777777778
aF82.54166666666667
aF83.57777777777778
aF84.60277777777777
aF85.63888888888889
aF86.66388888888889
aF87.71944444444445
aF88.74444444444444
aF89.76388888888889
aF90.8
aF91.83333333333333
aF92.83611111111111
aF93.83611111111111
aF94.85833333333333
aF95.8861111111111
aF96.90555555555555
aF97.91944444444445
aF98.95277777777778
aF99.97777777777777
aF100.9888888888889
aF102.0111111111111
aF103.03055555555555
aF104.06388888888888
aF105.11111111111111
aF106.1361111111111
aF107.17777777777778
aF108.20833333333333
aF109.20555555555555
aF110.20833333333333
aF111.19166666666666
aF112.18055555555556
aF113.175
aF114.14166666666667
aF115.10833333333333
aF116.12222222222222
aF117.11111111111111
aF118.08055555555555
aF119.06944444444444
aF120.03611111111111
aF121.02222222222223
aF122.0111111111111
aF123.0
aF124.00277777777778
aF125.01666666666667
aF126.02222222222223
aF126.9888888888889
aF127.97777777777777
aF128.95833333333334
aF129.94444444444446
aF130.90833333333333
aF131.86944444444444
aF132.82777777777778
aF133.775
aF134.70277777777778
aF135.6472222222222
aF136.59722222222223
aF137.55
aF138.53055555555557
aF139.49166666666667
aF140.4638888888889
aF141.44444444444446
aF142.38055555555556
aF143.33055555555555
aF144.28055555555557
aF145.2111111111111
aF146.11944444444444
aF147.05555555555554
aF147.99444444444444
aF148.95
aF149.95
aF150.94444444444446
aF151.94166666666666
aF152.9611111111111
aF153.95555555555555
aF154.94166666666666
aF155.95
aF156.92222222222222
aF157.89444444444445
aF158.87222222222223
aF159.8388888888889
aF160.79444444444445
aF161.75
aF162.71666666666667
aF163.6861111111111
aF164.66944444444445
aF165.625
aF166.59444444444443
aF167.56666666666666
aF168.51666666666668
aF169.4638888888889
aF170.4138888888889
aF171.36666666666667
aF172.33055555555555
aF173.2861111111111
aF174.2277777777778
aF175.16666666666666
aF176.0888888888889
aF177.03055555555557
aF177.9361111111111
aF178.8527777777778
aF179.76666666666668
aF180.69166666666666
aF181.63888888888889
aF182.58333333333334
aF183.54166666666666
aF184.50277777777777
aF185.46666666666667
aF186.42222222222222
aF187.36944444444444
aF188.31944444444446
aF189.28333333333333
aF190.21666666666667
aF191.15277777777777
aF192.13055555555556
aF193.1027777777778
aF194.04444444444445
aF195.00833333333333
aF195.9777777777778
aF196.975
aF197.99722222222223
aF198.95277777777778
aF199.94166666666666
aF200.97222222222223
aF201.98611111111111
aF202.99166666666667
aF204.03333333333333
aF205.06666666666666
aF206.11111111111111
aF207.13333333333333
aF208.13055555555556
aF209.16666666666666
aF210.1888888888889
aF211.17777777777778
aF212.19444444444446
aF212.89444444444445
aF213.19722222222222
aF214.19444444444446
aF215.2
aF216.16944444444445
aF217.14166666666668
aF218.12777777777777
aF219.09722222222223
aF220.05555555555554
aF221.025
aF221.98611111111111
aF222.95277777777778
aF223.92777777777778
aF224.89166666666668
aF225.86388888888888
aF226.8138888888889
aF227.77777777777777
aF228.7277777777778
aF229.69166666666666
aF230.6611111111111
aF231.63888888888889
aF232.61111111111111
aF233.56666666666666
aF234.55277777777778
aF235.51388888888889
aF236.49444444444444
aF237.46666666666667
aF238.425
aF239.36111111111111
aF240.3138888888889
aF241.25555555555556
aF241.75277777777777
aF242.2
aF243.1611111111111
aF244.09722222222223
aF245.04722222222222
aF246.01111111111112
aF246.975
aF247.9638888888889
aF248.95833333333334
aF249.94166666666666
aF250.94722222222222
aF251.96666666666667
aF252.9638888888889
aF253.93055555555554
aF254.91666666666666
aF255.89166666666668
aF256.84722222222223
aF257.81388888888887
aF258.77777777777777
aF259.75
aF260.7472222222222
aF261.71944444444443
aF262.69166666666666
aF263.6694444444444
aF264.6666666666667
aF265.68055555555554
aF266.68611111111113
aF267.6722222222222
aF268.69166666666666
aF269.71944444444443
aF270.73333333333335
aF271.76944444444445
aF272.77777777777777
aF273.7972222222222
aF274.8305555555556
aF275.8305555555556
aF276.84444444444443
aF277.8611111111111
aF278.8722222222222
aF279.8777777777778
aF280.89166666666665
aF281.90833333333336
aF282.94444444444446
aF283.96944444444443
aF285.0027777777778
aF286.06388888888887
aF287.10555555555555
aF288.1361111111111
aF289.1722222222222
aF290.2027777777778
aF291.22777777777776
aF292.225
aF293.23333333333335
aF294.2611111111111
aF295.25555555555553
aF296.24444444444447
aF297.2472222222222
aF298.2416666666667
aF299.23333333333335
aF300.2361111111111
aF301.225
aF302.2055555555556
aF303.2
aF304.1972222222222
aF305.1777777777778
aF306.18333333333334
aF307.18888888888887
aF308.21666666666664
aF309.23055555555555
aF310.23055555555555
aF311.26666666666665
aF312.28333333333336
aF313.2972222222222
aF314.31666666666666
aF315.3388888888889
aF316.3722222222222
aF317.39444444444445
aF318.4
aF319.43055555555554
aF320.44166666666666
aF321.4222222222222
aF322.43333333333334
aF323.40555555555557
aF324.3722222222222
aF325.3722222222222
aF326.3277777777778
aF327.2888888888889
aF328.26944444444445
aF329.225
aF330.2027777777778
aF331.2027777777778
aF332.22777777777776
aF333.26944444444445
aF334.2861111111111
aF335.31111111111113
aF336.35555555555555
aF337.39166666666665
aF338.4138888888889
aF339.43333333333334
aF340.4472222222222
aF341.4527777777778
aF342.4638888888889
aF343.4583333333333
aF344.46944444444443
aF345.50555555555553
aF346.5111111111111
aF347.48055555555555
aF348.475
aF349.45
aF350.4472222222222
aF351.4472222222222
aF352.44166666666666
aF353.48055555555555
aF354.5083333333333
aF355.53333333333336
aF356.5722222222222
aF357.5722222222222
aF358.60555555555555
aF359.6638888888889
aF360.7083333333333
aF361.725
aF362.77222222222224
aF363.80833333333334
aF364.81666666666666
aF365.81666666666666
aF366.8277777777778
aF367.85555555555555
aF368.84166666666664
aF369.8277777777778
aF370.85277777777776
aF371.85277777777776
aF372.85
aF373.8666666666667
aF374.8638888888889
aF375.86944444444447
aF376.8833333333333
aF377.8861111111111
aF378.89444444444445
aF379.89444444444445
aF380.8888888888889
aF381.86944444444447
aF382.85277777777776
aF383.81944444444446
aF384.8333333333333
aF385.825
aF386.8027777777778
aF387.81111111111113
aF388.78055555555557
aF389.7388888888889
aF390.7083333333333
aF391.675
aF392.6361111111111
aF393.60277777777776
aF394.52222222222224
aF395.43333333333334
aF396.375
aF397.2861111111111
aF398.1638888888889
aF399.06111111111113
aF399.9222222222222
aF400.775
aF401.64444444444445
aF402.4972222222222
aF403.3638888888889
aF404.2472222222222
aF405.14444444444445
aF406.0527777777778
aF406.9472222222222
aF407.85277777777776
aF408.7416666666667
aF409.6333333333333
aF410.52777777777777
aF411.40277777777777
aF412.26666666666665
aF413.15555555555557
aF414.025
aF414.8833333333333
aF415.75555555555553
aF416.6388888888889
aF417.53333333333336
aF418.43888888888887
aF419.35277777777776
aF420.2888888888889
aF421.2472222222222
aF422.19166666666666
aF423.1111111111111
aF424.0527777777778
aF424.98055555555555
aF425.93611111111113
aF426.90277777777777
aF427.8638888888889
aF428.81944444444446
aF429.7861111111111
aF430.75
aF431.7
aF432.65
aF433.5888888888889
aF434.51666666666665
aF435.46666666666664
aF436.40277777777777
aF437.3388888888889
aF438.31388888888887
aF439.26944444444445
aF440.23055555555555
aF441.2027777777778
aF442.18888888888887
aF443.18611111111113
aF444.2083333333333
aF445.19444444444446
aF446.15277777777777
aF447.1388888888889
aF448.10555555555555
aF449.0472222222222
aF450.01944444444445
aF450.9888888888889
aF451.975
aF452.9555555555556
aF453.9111111111111
aF454.85
aF455.8222222222222
aF456.775
aF457.69444444444446
aF458.65
aF459.5833333333333
aF460.53055555555557
aF461.5
aF462.4583333333333
aF463.43888888888887
aF464.44166666666666
aF465.43888888888887
aF466.40277777777777
aF467.39444444444445
aF468.3777777777778
aF469.35
aF470.3277777777778
aF471.2916666666667
aF472.2861111111111
aF473.28333333333336
aF474.26944444444445
aF475.23333333333335
aF476.21666666666664
aF477.2083333333333
aF478.2027777777778
aF479.15277777777777
aF480.10833333333335
aF481.0777777777778
aF482.0138888888889
aF482.93055555555554
aF483.85833333333335
aF484.76666666666665
aF485.7055555555556
aF486.68611111111113
aF487.64444444444445
aF488.6111111111111
aF489.6138888888889
aF490.5888888888889
aF491.5361111111111
aF492.5138888888889
aF493.4638888888889
aF494.39722222222224
aF495.3388888888889
aF496.27777777777777
aF497.24444444444447
aF498.25
aF499.24444444444447
aF500.25555555555553
aF501.26944444444445
aF502.2916666666667
aF503.2861111111111
aF504.31111111111113
aF505.31666666666666
aF506.3305555555556
aF507.3305555555556
aF508.30833333333334
aF509.28333333333336
aF510.2416666666667
aF511.2055555555556
aF512.1805555555555
aF513.1388888888889
aF514.0833333333334
aF515.0555555555555
aF516.0194444444444
aF516.975
aF517.9472222222222
aF518.925
aF519.9027777777778
aF520.9111111111112
aF521.9083333333333
aF522.8916666666667
aF523.9222222222222
aF524.9277777777778
aF525.8722222222223
aF526.8444444444444
aF527.8277777777778
aF528.8222222222222
aF529.8138888888889
aF530.7861111111112
aF531.7805555555556
aF532.7722222222222
aF533.7583333333333
aF534.7333333333333
aF535.725
aF536.7277777777778
aF537.75
aF538.7333333333333
aF539.7194444444444
aF540.7361111111111
aF541.7222222222222
aF542.6888888888889
aF543.675
aF544.6555555555556
aF545.6666666666666
aF546.6722222222222
aF547.6861111111111
aF548.7138888888888
aF549.7444444444444
aF550.7527777777777
aF551.7666666666667
aF552.7805555555556
aF553.7916666666666
aF554.8111111111111
aF555.8138888888889
aF556.8222222222222
aF557.8472222222222
aF558.8666666666667
aF559.8638888888889
aF560.8777777777777
aF561.8555555555556
aF562.8416666666667
aF563.8305555555555
aF564.8305555555555
aF565.85
aF566.8722222222223
aF567.8777777777777
aF568.9111111111112
aF569.9333333333333
aF570.9444444444445
aF571.9527777777778
aF572.9555555555555
aF573.975
aF575.0
aF576.0222222222222
aF577.0138888888889
aF578.0166666666667
aF579.0194444444444
aF580.0472222222222
aF581.0555555555555
aF582.0722222222222
aF583.1222222222223
aF584.1638888888889
aF585.2055555555555
aF586.2722222222222
aF587.3166666666667
aF588.3944444444444
aF589.4583333333334
aF590.5055555555556
aF591.5833333333334
aF592.6305555555556
aF593.6638888888889
aF594.7055555555555
aF595.7638888888889
aF596.8305555555555
aF597.8722222222223
aF598.9
aF599.9388888888889
aF600.9416666666667
aF601.9416666666667
aF602.9555555555555
aF603.9527777777778
aF604.9527777777778
aF605.9944444444444
aF607.0222222222222
aF608.0583333333333
aF609.1222222222223
aF610.1666666666666
aF611.1972222222222
aF612.2472222222223
aF613.3027777777778
aF614.3694444444444
aF615.3972222222222
aF616.4388888888889
aF617.5027777777777
aF618.5555555555555
aF619.5944444444444
aF620.6416666666667
aF621.7055555555555
aF622.7694444444444
aF623.7888888888889
aF624.8027777777778
aF625.85
aF626.8555555555556
aF627.8583333333333
aF628.8833333333333
aF629.8833333333333
aF630.9111111111112
aF631.9444444444445
aF632.9583333333334
aF634.0083333333333
aF635.0527777777778
aF636.0694444444445
aF637.1138888888889
aF638.1277777777777
aF639.15
aF640.1972222222222
aF641.2166666666667
aF642.2472222222223
aF643.2861111111112
aF644.3083333333333
aF645.3361111111111
aF646.3527777777778
aF647.3472222222222
aF648.3722222222223
aF649.3583333333333
aF650.3722222222223
aF651.4055555555556
aF652.4222222222222
aF653.425
aF654.425
aF655.4194444444445
aF656.4388888888889
aF657.45
aF658.4527777777778
aF659.4638888888888
aF660.4694444444444
aF661.4666666666667
aF662.4805555555556
aF663.4944444444444
aF664.5305555555556
aF665.5694444444445
aF666.6027777777778
aF667.6555555555556
aF668.6972222222222
aF669.7416666666667
aF670.7666666666667
aF671.8027777777778
aF672.8472222222222
aF673.8583333333333
aF674.8972222222222
aF675.9416666666667
aF676.9638888888888
aF678.0111111111111
aF679.0333333333333
aF680.0472222222222
aF681.0888888888888
aF682.1222222222223
aF683.1305555555556
aF684.1138888888889
aF685.1444444444444
aF686.1472222222222
aF687.1111111111111
aF688.1166666666667
aF689.1222222222223
aF690.1166666666667
aF691.125
aF692.1
aF693.1111111111111
aF694.1222222222223
aF695.1055555555556
aF696.1055555555556
aF697.1222222222223
aF698.1305555555556
aF699.1638888888889
aF700.1472222222222
aF701.1527777777778
aF702.1722222222222
aF703.175
aF704.1555555555556
aF705.1527777777778
aF706.1444444444444
aF707.1472222222222
aF708.1472222222222
aF709.1416666666667
aF710.1444444444444
aF711.1333333333333
aF712.1277777777777
aF713.1416666666667
aF714.1416666666667
aF715.1333333333333
aF716.1361111111111
aF717.1388888888889
aF718.1611111111112
aF719.2194444444444
aF720.2555555555556
aF721.2388888888889
aF722.2611111111111
aF723.2805555555556
aF724.3083333333333
aF725.3388888888888
aF726.3194444444445
aF727.3416666666667
aF728.3611111111111
aF729.3611111111111
aF730.3944444444444
aF731.4166666666666
aF732.4583333333334
aF733.525
aF734.5666666666667
aF735.5722222222222
aF736.6166666666667
aF737.6527777777778
aF738.6583333333333
aF739.6638888888889
aF740.6861111111111
aF741.7388888888889
aF742.7722222222222
aF743.7944444444445
aF744.8666666666667
aF745.8972222222222
aF746.9194444444445
aF747.9583333333334
aF749.0
aF750.0583333333333
aF751.0972222222222
aF752.125
aF753.1444444444444
aF754.15
aF755.1277777777777
aF756.1194444444444
aF757.1166666666667
aF758.1416666666667
aF759.1611111111112
aF760.1666666666666
aF761.2027777777778
aF762.2138888888888
aF763.2416666666667
aF764.2583333333333
aF765.2583333333333
aF766.2555555555556
aF767.2805555555556
aF768.2694444444444
aF769.2555555555556
aF770.2444444444444
aF771.1888888888889
aF772.1277777777777
aF773.1111111111111
aF774.0777777777778
aF775.0638888888889
aF776.0638888888889
aF777.05
aF778.05
aF779.0416666666666
aF780.0305555555556
aF781.0027777777777
aF781.9666666666667
aF782.9444444444445
aF783.9333333333333
aF784.9083333333333
aF785.8472222222222
aF786.8083333333333
aF787.7833333333333
aF788.775
aF789.7888888888889
aF790.8
aF791.8138888888889
aF792.8333333333334
aF793.8166666666667
aF794.8222222222222
aF795.8333333333334
aF796.8444444444444
aF797.8166666666667
aF798.8083333333333
aF799.7888888888889
aF800.7944444444445
aF801.7694444444444
aF802.7388888888889
aF803.7416666666667
aF804.7222222222222
aF805.7055555555555
aF806.7027777777778
aF807.6666666666666
aF808.6805555555555
aF809.7138888888888
aF810.7305555555556
aF811.7527777777777
aF812.7777777777778
aF813.8111111111111
aF814.8027777777778
aF815.825
aF816.8305555555555
aF817.85
aF818.8527777777778
aF819.85
aF820.8777777777777
aF821.8944444444444
aF822.875
aF823.8861111111111
aF824.8805555555556
aF825.8972222222222
aF826.9138888888889
aF827.9194444444445
aF828.9305555555555
aF829.9555555555555
aF830.9777777777778
aF831.9694444444444
aF833.0027777777777
aF834.0111111111111
aF835.0388888888889
aF836.0472222222222
aF837.05
aF838.0861111111111
aF839.0888888888888
aF840.0722222222222
aF841.0694444444445
aF842.0472222222222
aF843.0222222222222
aF843.9944444444444
aF844.9638888888888
aF845.9305555555555
aF846.9166666666666
aF847.8944444444444
aF848.8666666666667
aF849.8416666666667
aF850.8194444444445
aF851.8166666666667
aF852.7972222222222
aF853.7972222222222
aF854.7972222222222
aF855.775
aF856.7555555555556
aF857.7777777777778
aF858.7972222222222
aF859.8083333333333
aF860.8361111111111
aF861.85
aF862.8611111111111
aF863.9027777777778
aF864.9333333333333
aF865.9444444444445
aF866.9611111111111
aF867.9638888888888
aF868.9833333333333
aF870.0055555555556
aF871.0333333333333
aF872.0833333333334
aF873.1111111111111
aF874.1194444444444
aF875.1333333333333
aF876.125
aF877.1416666666667
aF878.1694444444445
aF879.1777777777778
aF880.2055555555555
aF881.2222222222222
aF882.225
aF883.2416666666667
aF884.2361111111111
aF885.2611111111111
aF886.3194444444445
aF887.3555555555556
aF888.3944444444444
aF889.4472222222222
aF890.4833333333333
aF891.5
aF892.5277777777778
aF893.5416666666666
aF894.5638888888889
aF895.5444444444445
aF896.5138888888889
aF897.5444444444445
aF898.5388888888889
aF899.5111111111111
aF900.5194444444444
aF901.5166666666667
aF902.5
aF903.4916666666667
aF904.4805555555556
aF905.4722222222222
aF906.4777777777778
aF907.4805555555556
aF908.4916666666667
aF909.4833333333333
aF910.4888888888889
aF911.5083333333333
aF912.4972222222223
aF913.4694444444444
aF914.4722222222222
aF915.4444444444445
aF916.4222222222222
aF917.4083333333333
aF918.375
aF919.3611111111111
aF920.3444444444444
aF921.3388888888888
aF922.3333333333334
aF923.3472222222222
aF924.3444444444444
aF925.3305555555555
aF926.3055555555555
aF927.3083333333333
aF928.3361111111111
aF929.3388888888888
aF930.3277777777778
aF931.35
aF932.3694444444444
aF933.3444444444444
aF934.3472222222222
aF935.3416666666667
aF936.3222222222222
aF937.3277777777778
aF938.3111111111111
aF939.2944444444445
aF940.2694444444444
aF941.25
aF942.2111111111111
aF943.1888888888889
aF944.1527777777778
aF945.1083333333333
aF946.05
aF947.0222222222222
aF948.0166666666667
aF948.9916666666667
aF949.9805555555556
aF950.9638888888888
aF951.925
aF952.9055555555556
aF953.9055555555556
aF954.9083333333333
aF955.9111111111112
aF956.95
aF957.9583333333334
aF958.9138888888889
aF959.8916666666667
aF960.8472222222222
aF961.7944444444445
aF962.7555555555556
aF963.6833333333333
aF964.6027777777778
aF965.525
aF966.4972222222223
aF967.4388888888889
aF968.3916666666667
aF969.3444444444444
aF970.3277777777778
aF971.3305555555555
aF972.3527777777778
aF973.3833333333333
aF974.4416666666667
aF975.475
aF976.5277777777778
aF977.5777777777778
aF978.6444444444444
aF979.7305555555556
aF980.7972222222222
aF981.8861111111111
aF982.9583333333334
aF984.0277777777778
aF985.0638888888889
aF986.0972222222222
aF987.1416666666667
aF988.2111111111111
aF989.225
aF990.2416666666667
aF991.3055555555555
aF992.3583333333333
aF993.3972222222222
aF994.4388888888889
aF995.4638888888888
aF996.5111111111111
aF997.5583333333333
aF998.575
aF999.6416666666667
aF1000.7027777777778
aF1001.7194444444444
aF1002.7611111111111
aF1003.8055555555555
aF1004.8833333333333
aF1005.925
aF1006.9666666666667
aF1008.0138888888889
aF1009.0638888888889
aF1010.0944444444444
aF1011.1333333333333
aF1011.8333333333334
aF1013.1
aF1013.6722222222222
aF1015.1305555555556
aF1016.1861111111111
aF1017.2083333333334
aF1018.1972222222222
aF1019.2388888888889
aF1020.2638888888889
aF1021.3055555555555
aF1022.3527777777778
aF1023.3722222222223
aF1024.4138888888888
aF1025.4138888888888
aF1026.425
aF1027.4444444444443
aF1028.4333333333334
aF1029.4472222222223
aF1030.4611111111112
aF1031.4555555555555
aF1032.4555555555555
aF1033.4888888888888
aF1034.4888888888888
aF1035.475
aF1036.4722222222222
aF1037.4611111111112
aF1038.463888888889
aF1039.45
aF1040.4305555555557
aF1041.45
aF1042.4527777777778
aF1043.4444444444443
aF1044.4444444444443
aF1045.4222222222222
aF1046.4138888888888
aF1047.4222222222222
aF1048.411111111111
aF1049.4138888888888
aF1050.425
aF1051.4277777777777
aF1052.4222222222222
aF1053.4333333333334
aF1054.425
aF1055.4277777777777
aF1056.4166666666667
aF1057.4
aF1058.4027777777778
aF1059.3916666666667
aF1060.3805555555555
aF1061.3833333333334
aF1062.3805555555555
aF1063.3777777777777
aF1064.4083333333333
aF1065.425
aF1066.4361111111111
aF1067.4555555555555
aF1068.4555555555555
aF1069.4138888888888
aF1070.3638888888888
aF1071.3222222222223
aF1072.3055555555557
aF1073.3027777777777
aF1074.2694444444444
aF1075.2833333333333
aF1076.3194444444443
aF1077.3638888888888
aF1078.4
aF1079.4055555555556
aF1080.4361111111111
aF1081.486111111111
aF1082.4888888888888
aF1083.4722222222222
aF1084.5
aF1085.4916666666666
aF1086.475
aF1087.4666666666667
aF1088.4555555555555
aF1089.45
aF1090.4416666666666
aF1091.4305555555557
aF1092.4305555555557
aF1093.4361111111111
aF1094.4305555555557
aF1095.4305555555557
aF1096.4388888888889
aF1097.4527777777778
aF1098.4805555555556
aF1099.4944444444445
aF1100.5194444444444
aF1101.5527777777777
aF1102.588888888889
aF1103.6027777777779
aF1104.6027777777779
aF1105.6222222222223
aF1106.638888888889
aF1107.6222222222223
aF1108.6222222222223
aF1109.6583333333333
aF1110.6638888888888
aF1111.6722222222222
aF1112.7027777777778
aF1113.713888888889
aF1114.7277777777779
aF1115.7333333333333
aF1116.736111111111
aF1117.7694444444444
aF1118.7944444444445
aF1119.7916666666667
aF1120.7777777777778
aF1121.7666666666667
aF1122.7694444444444
aF1123.7944444444445
aF1124.8138888888889
aF1125.8333333333333
aF1126.861111111111
aF1127.8805555555555
aF1128.8777777777777
aF1129.8722222222223
aF1130.8694444444445
aF1131.8833333333334
aF1132.8972222222221
aF1133.8916666666667
aF1134.9388888888889
aF1135.963888888889
aF1136.9805555555556
aF1138.0277777777778
aF1139.0527777777777
aF1140.0694444444443
aF1141.1083333333333
aF1142.1416666666667
aF1143.175
aF1144.2027777777778
aF1145.2388888888888
aF1146.2833333333333
aF1147.3111111111111
aF1148.3444444444444
aF1149.3944444444444
aF1150.4277777777777
aF1151.475
aF1152.5222222222221
aF1153.5472222222222
aF1154.5833333333333
aF1155.6166666666666
aF1156.661111111111
aF1157.7305555555556
aF1158.7694444444444
aF1159.8277777777778
aF1160.888888888889
aF1161.9444444444443
aF1162.9888888888888
aF1164.0
aF1165.0333333333333
aF1166.0722222222223
aF1167.088888888889
aF1168.1
aF1169.1305555555555
aF1170.1638888888888
aF1171.1694444444445
aF1172.1944444444443
aF1173.2277777777779
aF1174.263888888889
aF1175.3055555555557
aF1176.3444444444444
aF1177.4
aF1178.4361111111111
aF1179.463888888889
aF1180.4972222222223
aF1181.536111111111
aF1182.5916666666667
aF1183.6277777777777
aF1184.6694444444445
aF1185.7194444444444
aF1186.7611111111112
aF1187.7972222222222
aF1188.8333333333333
aF1189.8805555555555
aF1190.925
aF1191.975
aF1193.013888888889
aF1194.0722222222223
aF1195.1083333333333
aF1196.1472222222221
aF1197.1916666666666
aF1198.2166666666667
aF1199.2694444444444
aF1200.3166666666666
aF1201.3444444444444
aF1202.3805555555555
aF1203.4333333333334
aF1204.475
aF1205.5027777777777
aF1206.5194444444444
aF1207.5527777777777
aF1208.6194444444445
aF1209.6694444444445
aF1210.7277777777779
aF1211.8
aF1212.8638888888888
aF1213.9194444444445
aF1214.9555555555555
aF1216.0027777777777
aF1217.075
aF1218.1277777777777
aF1219.1805555555557
aF1220.2527777777777
aF1221.3194444444443
aF1222.3722222222223
aF1223.4305555555557
aF1224.4583333333333
aF1225.513888888889
aF1226.5388888888888
aF1227.5583333333334
aF1228.6027777777779
aF1229.625
aF1230.6222222222223
aF1231.6444444444444
aF1232.661111111111
aF1233.6694444444445
aF1234.675
aF1235.6666666666667
aF1236.6916666666666
aF1237.7055555555555
aF1238.6944444444443
aF1239.6916666666666
aF1240.661111111111
aF1241.661111111111
aF1242.6805555555557
aF1243.675
aF1244.6833333333334
aF1245.7055555555555
aF1246.7055555555555
aF1247.6888888888889
aF1248.6916666666666
aF1249.6944444444443
aF1250.6944444444443
aF1251.6694444444445
aF1252.6444444444444
aF1253.65
aF1254.625
aF1255.6083333333333
aF1256.6305555555555
aF1257.6472222222221
aF1258.6666666666667
aF1259.7027777777778
aF1260.7388888888888
aF1261.7944444444445
aF1262.8305555555555
aF1263.8527777777779
aF1264.8861111111112
aF1265.9277777777777
aF1266.9722222222222
aF1268.0305555555556
aF1269.0694444444443
aF1270.1166666666666
aF1271.1555555555556
aF1272.175
aF1273.1972222222223
aF1274.2444444444445
aF1275.2777777777778
aF1276.3277777777778
aF1277.3666666666666
aF1278.4194444444445
aF1279.4722222222222
aF1280.525
aF1281.5638888888889
aF1282.5833333333333
aF1283.6166666666666
aF1284.6638888888888
aF1285.6916666666666
aF1286.7
aF1287.7305555555556
aF1288.725
aF1289.7277777777779
aF1290.725
aF1291.7305555555556
aF1292.7472222222223
aF1293.7833333333333
aF1294.7888888888888
aF1295.8138888888889
aF1296.8472222222222
aF1297.8638888888888
aF1298.9
aF1299.9083333333333
aF1300.9222222222222
aF1301.9583333333333
aF1302.9722222222222
aF1303.9777777777779
aF1305.0
aF1306.013888888889
aF1307.0055555555555
aF1308.0027777777777
aF1309.0166666666667
aF1310.0388888888888
aF1311.0333333333333
aF1312.0194444444444
aF1313.0333333333333
aF1314.0055555555555
aF1314.9472222222223
aF1315.9444444444443
aF1316.9194444444445
aF1317.9388888888889
aF1318.963888888889
aF1319.9777777777779
aF1321.0277777777778
aF1322.0972222222222
aF1323.1472222222221
aF1324.2055555555555
aF1325.2666666666667
aF1326.338888888889
aF1327.425
aF1328.4805555555556
aF1329.5694444444443
aF1330.6694444444445
aF1331.7333333333333
aF1332.7916666666667
aF1333.85
aF1334.9083333333333
aF1335.9777777777779
aF1336.9944444444445
aF1338.0583333333334
aF1339.1194444444445
aF1340.1833333333334
aF1341.213888888889
aF1342.2444444444445
aF1343.2972222222222
aF1344.3444444444444
aF1345.375
aF1346.4194444444445
aF1347.4944444444445
aF1348.5527777777777
aF1349.588888888889
aF1350.6472222222221
aF1351.7083333333333
aF1352.786111111111
aF1353.8027777777777
aF1354.8472222222222
aF1355.8972222222221
aF1356.9416666666666
aF1357.9722222222222
aF1358.9888888888888
aF1359.975
aF1361.0083333333334
aF1362.0166666666667
aF1363.0111111111112
aF1364.05
aF1365.0805555555555
aF1366.111111111111
aF1367.1694444444445
aF1368.2194444444444
aF1369.2555555555555
aF1370.2888888888888
aF1371.3166666666666
aF1372.3722222222223
aF1373.3916666666667
aF1374.425
aF1375.4805555555556
aF1376.5111111111112
aF1377.5472222222222
aF1378.5972222222222
aF1379.6277777777777
aF1380.661111111111
aF1381.6833333333334
aF1382.6722222222222
aF1383.6805555555557
aF1384.6777777777777
aF1385.7027777777778
aF1386.736111111111
aF1387.7694444444444
aF1388.8166666666666
aF1389.8583333333333
aF1390.8694444444445
aF1391.925
aF1392.9888888888888
aF1394.0416666666667
aF1395.1138888888888
aF1396.1555555555556
aF1397.2111111111112
aF1398.286111111111
aF1399.35
aF1400.4138888888888
aF1401.4805555555556
aF1402.5555555555557
aF1403.6194444444445
aF1404.661111111111
aF1405.7194444444444
aF1406.7722222222221
aF1407.8305555555555
aF1408.8972222222221
aF1409.9444444444443
aF1411.0027777777777
aF1412.0472222222222
aF1413.0805555555555
aF1414.1305555555555
aF1415.2
aF1416.263888888889
aF1417.3416666666667
aF1418.4
aF1419.45
aF1420.4916666666666
aF1421.525
aF1422.5722222222223
aF1423.6305555555555
aF1424.6805555555557
aF1425.7194444444444
aF1426.775
aF1427.8444444444444
aF1428.8972222222221
aF1429.9305555555557
aF1430.9583333333333
aF1431.9944444444445
aF1432.9916666666666
aF1434.0
aF1435.013888888889
aF1436.0333333333333
aF1437.0583333333334
aF1438.0833333333333
aF1439.0611111111111
aF1440.0861111111112
aF1441.1083333333333
aF1442.1333333333334
aF1443.1805555555557
aF1444.225
aF1445.275
aF1446.3138888888889
aF1447.338888888889
aF1448.3027777777777
aF1449.2805555555556
aF1450.3083333333334
aF1451.3277777777778
aF1452.3444444444444
aF1453.3722222222223
aF1454.4277777777777
aF1455.475
aF1456.5333333333333
aF1457.5861111111112
aF1458.6472222222221
aF1459.7
aF1460.7527777777777
aF1461.8027777777777
aF1462.8472222222222
aF1463.8666666666666
aF1464.8916666666667
aF1465.9333333333334
aF1466.9444444444443
aF1467.9277777777777
aF1468.9305555555557
aF1469.9527777777778
aF1470.9777777777779
aF1471.9944444444445
aF1473.0055555555555
aF1474.0333333333333
aF1475.0416666666667
aF1475.9583333333333
aF1476.8916666666667
aF1477.8083333333334
aF1478.7111111111112
aF1479.6305555555555
aF1480.5305555555556
aF1481.4166666666667
aF1482.3444444444444
aF1483.2583333333334
aF1484.1833333333334
aF1485.1222222222223
aF1486.0444444444445
aF1486.9555555555555
aF1487.8916666666667
aF1488.8194444444443
aF1489.7416666666666
aF1490.6972222222223
aF1491.6194444444445
aF1492.5527777777777
aF1493.4916666666666
aF1494.4222222222222
aF1495.388888888889
aF1496.375
aF1497.3305555555555
aF1498.275
aF1499.2583333333334
aF1500.213888888889
aF1501.1527777777778
aF1502.1222222222223
aF1503.0916666666667
aF1504.0694444444443
aF1505.0444444444445
aF1506.0222222222221
aF1506.9916666666666
aF1507.9972222222223
aF1508.9944444444445
aF1509.9805555555556
aF1510.9777777777779
aF1511.9666666666667
aF1512.9888888888888
aF1513.9833333333333
aF1514.9583333333333
aF1515.9472222222223
aF1516.9138888888888
aF1517.8916666666667
aF1518.8638888888888
aF1519.8333333333333
aF1520.8138888888889
aF1521.7944444444445
aF1522.7527777777777
aF1523.713888888889
aF1524.7055555555555
aF1525.675
aF1526.6055555555556
aF1527.5527777777777
aF1528.486111111111
aF1529.4
aF1530.3416666666667
aF1531.25
aF1532.1527777777778
aF1533.0722222222223
aF1533.9777777777779
aF1534.861111111111
aF1535.7583333333334
aF1536.65
aF1537.5305555555556
aF1538.425
aF1539.3
aF1540.1555555555556
aF1541.025
aF1541.911111111111
aF1542.7583333333334
aF1543.5972222222222
aF1544.4611111111112
aF1545.3083333333334
aF1545.7666666666667
aF1546.1472222222221
aF1546.9916666666666
aF1547.8166666666666
aF1548.6277777777777
aF1549.4333333333334
aF1550.2527777777777
aF1551.0388888888888
aF1551.8083333333334
aF1552.2166666666667
aF1552.588888888889
aF1553.3583333333333
aF1553.6527777777778
aF1554.1194444444445
aF1554.8833333333334
aF1555.6555555555556
aF1556.4083333333333
aF1557.1722222222222
aF1557.9388888888889
aF1558.713888888889
aF1559.475
aF1560.2416666666666
aF1560.9916666666666
aF1561.4527777777778
aF1561.7666666666667
aF1562.5305555555556
aF1562.6777777777777
aF1563.3027777777777
aF1564.088888888889
aF1564.8583333333333
aF1565.6361111111112
aF1566.4027777777778
aF1567.1916666666666
aF1567.9611111111112
aF1568.7333333333333
aF1569.0861111111112
aF1569.4888888888888
aF1570.2527777777777
aF1571.0055555555555
aF1571.7472222222223
aF1572.5
aF1573.2444444444445
aF1573.9777777777779
aF1574.7055555555555
aF1575.463888888889
aF1576.1972222222223
aF1576.9472222222223
aF1577.6805555555557
aF1578.4416666666666
aF1579.1944444444443
aF1579.9583333333333
aF1580.7305555555556
aF1581.513888888889
aF1582.2777777777778
aF1583.0416666666667
aF1583.825
aF1584.611111111111
aF1585.4
aF1586.1722222222222
aF1586.9805555555556
aF1587.775
aF1588.5666666666666
aF1589.3805555555555
aF1590.1833333333334
aF1590.9694444444444
aF1591.7611111111112
aF1592.5722222222223
aF1593.3444444444444
aF1594.1277777777777
aF1594.8972222222221
aF1595.6583333333333
aF1596.4277777777777
aF1597.1944444444443
aF1597.9666666666667
aF1598.7222222222222
aF1599.486111111111
aF1600.2416666666666
aF1601.025
aF1601.8027777777777
aF1602.5694444444443
aF1603.3472222222222
aF1604.1222222222223
aF1604.9
aF1605.6805555555557
aF1606.475
aF1607.2472222222223
aF1608.0222222222221
aF1608.8083333333334
aF1609.5916666666667
aF1610.375
aF1611.1444444444444
aF1611.9194444444445
aF1612.6944444444443
aF1613.463888888889
aF1614.2305555555556
aF1615.013888888889
aF1615.7666666666667
aF1616.525
aF1617.2833333333333
aF1618.0472222222222
aF1618.7944444444445
aF1619.5222222222221
aF1620.2583333333334
aF1620.9916666666666
aF1621.7194444444444
aF1622.4472222222223
aF1623.1777777777777
aF1623.9027777777778
aF1624.6333333333334
aF1625.3444444444444
aF1626.0972222222222
aF1626.8111111111111
aF1627.55
aF1628.2666666666667
aF1629.0222222222221
aF1629.763888888889
aF1630.5111111111112
aF1631.2666666666667
aF1632.0388888888888
aF1632.8027777777777
aF1633.55
aF1634.3333333333333
aF1635.1055555555556
aF1635.8777777777777
aF1636.638888888889
aF1637.4416666666666
aF1638.2305555555556
aF1639.0305555555556
aF1639.838888888889
aF1640.6444444444444
aF1641.4416666666666
aF1642.2333333333333
aF1643.0527777777777
aF1643.8277777777778
aF1644.6194444444445
aF1645.388888888889
aF1646.1833333333334
aF1646.9805555555556
aF1647.7722222222221
aF1648.5972222222222
aF1649.3861111111112
aF1650.2
aF1651.0166666666667
aF1651.8527777777779
aF1652.6805555555557
aF1653.4777777777779
aF1653.5861111111112
aF1654.2833333333333
aF1655.111111111111
aF1655.9138888888888
aF1656.7472222222223
aF1657.0638888888889
aF1657.5777777777778
aF1658.411111111111
aF1659.2444444444445
aF1660.1055555555556
aF1660.9472222222223
aF1661.7777777777778
aF1662.6027777777779
aF1663.4388888888889
aF1664.275
aF1665.1333333333334
aF1665.9972222222223
aF1666.825
aF1667.6694444444445
aF1668.5527777777777
aF1669.411111111111
aF1670.2583333333334
aF1671.1083333333333
aF1671.9583333333333
aF1672.8027777777777
aF1673.6722222222222
aF1674.5277777777778
aF1675.3833333333334
aF1676.2277777777779
aF1677.1222222222223
aF1677.9944444444445
aF1678.8444444444444
aF1679.7
aF1680.5666666666666
aF1681.4416666666666
aF1682.3305555555555
aF1683.1888888888889
aF1684.0555555555557
aF1684.9222222222222
aF1685.8
aF1686.6666666666667
aF1687.5194444444444
aF1688.3916666666667
aF1689.2277777777779
aF1690.0861111111112
aF1690.9444444444443
aF1691.8
aF1692.6666666666667
aF1693.536111111111
aF1694.4138888888888
aF1695.2555555555555
aF1696.0833333333333
aF1696.9388888888889
aF1697.7694444444444
aF1698.6
aF1699.45
aF1700.2888888888888
aF1701.125
aF1701.975
aF1702.8194444444443
aF1703.6555555555556
aF1704.4694444444444
aF1705.3
aF1706.1194444444445
aF1706.9472222222223
aF1707.7805555555556
aF1708.6083333333333
aF1709.4222222222222
aF1710.2472222222223
aF1711.1027777777779
aF1711.9416666666666
aF1712.7666666666667
aF1713.6277777777777
aF1714.463888888889
aF1715.3083333333334
aF1716.1666666666667
aF1717.0166666666667
aF1717.8666666666666
aF1718.7027777777778
aF1719.5694444444443
aF1720.4277777777777
aF1721.2694444444444
aF1722.1416666666667
aF1722.9888888888888
aF1723.85
aF1724.7222222222222
aF1725.5972222222222
aF1726.4583333333333
aF1727.3472222222222
aF1728.2277777777779
aF1729.1
aF1729.9472222222223
aF1730.8083333333334
aF1731.6555555555556
aF1732.5027777777777
aF1733.3472222222222
aF1734.1805555555557
aF1735.0222222222221
aF1735.8805555555555
aF1736.736111111111
aF1737.6
aF1738.45
aF1739.3305555555555
aF1740.1972222222223
aF1741.0805555555555
aF1741.9527777777778
aF1742.8138888888889
aF1743.65
aF1744.5305555555556
aF1745.3944444444444
aF1746.2527777777777
aF1746.3805555555555
aF1747.1194444444445
aF1747.975
aF1748.3666666666666
aF1748.838888888889
aF1749.725
aF1750.588888888889
aF1751.45
aF1752.3
aF1753.1694444444445
aF1754.025
aF1754.8583333333333
aF1755.6972222222223
aF1756.536111111111
aF1757.3833333333334
aF1758.2277777777779
aF1759.0861111111112
aF1759.9194444444445
aF1760.7527777777777
aF1761.6222222222223
aF1762.4583333333333
aF1763.2527777777777
aF1764.0333333333333
aF1764.8555555555556
aF1765.6583333333333
aF1766.4611111111112
aF1767.2694444444444
aF1768.0638888888889
aF1768.8638888888888
aF1769.6777777777777
aF1770.4916666666666
aF1771.3083333333334
aF1772.1
aF1772.9222222222222
aF1773.7305555555556
aF1774.5444444444445
aF1775.3777777777777
aF1776.1972222222223
aF1777.025
aF1777.8583333333333
aF1778.7
aF1779.536111111111
aF1780.3583333333333
aF1781.2027777777778
aF1782.0416666666667
aF1782.888888888889
aF1783.75
aF1784.6027777777779
aF1785.4527777777778
aF1786.3027777777777
aF1787.1694444444445
aF1788.013888888889
aF1788.8305555555555
aF1789.6805555555557
aF1790.5083333333334
aF1791.3138888888889
aF1792.1444444444444
aF1792.9694444444444
aF1793.7666666666667
aF1794.575
aF1795.411111111111
aF1796.2055555555555
aF1797.0333333333333
aF1797.85
aF1798.661111111111
aF1799.4916666666666
aF1800.3111111111111
aF1801.125
aF1801.9583333333333
aF1802.7666666666667
aF1803.575
aF1804.4083333333333
aF1805.2166666666667
atp3
Rp4
.