carray
array
p0
(S'd'
p1
(lp2
F0.16666666666666666
aF0.44166666666666665
aF1.1527777777777777
aF1.9055555555555554
aF2.513888888888889
aF3.3027777777777776
aF3.95
aF4.502777777777778
aF5.458333333333333
aF6.211111111111111
aF6.930555555555555
aF7.558333333333334
aF8.208333333333334
aF8.880555555555556
aF9.63888888888889
aF10.55
aF11.41388888888889
aF12.091666666666667
aF12.752777777777778
aF13.463888888888889
aF13.858333333333333
aF14.5
aF15.213888888888889
aF15.8
aF16.441666666666666
aF16.95
aF17.752777777777776
aF18.433333333333334
aF18.988888888888887
aF19.636111111111113
aF20.341666666666665
aF21.15
aF21.719444444444445
aF22.419444444444444
aF23.06388888888889
aF23.65
aF24.075
aF24.783333333333335
aF25.322222222222223
aF25.969444444444445
aF26.783333333333335
aF27.8
aF28.519444444444446
aF29.225
aF29.919444444444444
aF30.675
aF31.38888888888889
aF31.872222222222224
aF32.77777777777778
aF33.352777777777774
aF34.03333333333333
aF34.59444444444444
aF35.25
aF35.91111111111111
aF36.727777777777774
aF37.638888888888886
aF38.333333333333336
aF38.94722222222222
aF39.858333333333334
aF40.59722222222222
aF41.294444444444444
aF41.705555555555556
aF42.33611111111111
aF42.97222222222222
aF43.58888888888889
aF44.15277777777778
aF44.86388888888889
aF45.575
aF46.025
aF46.702777777777776
aF47.33888888888889
aF47.975
aF48.40277777777778
aF48.75833333333333
aF49.375
aF49.88333333333333
aF50.725
aF51.18888888888889
aF51.891666666666666
aF52.56666666666667
aF52.986111111111114
aF53.611111111111114
aF54.419444444444444
aF55.06944444444444
aF55.69444444444444
aF56.30833333333333
aF57.17777777777778
aF58.075
aF58.797222222222224
aF59.46111111111111
aF59.891666666666666
aF60.4
aF61.00833333333333
aF61.93333333333333
aF62.769444444444446
aF63.205555555555556
aF63.65
aF64.31388888888888
aF65.28333333333333
aF65.71666666666667
aF66.31111111111112
aF67.19722222222222
aF67.76666666666667
aF68.44722222222222
aF69.08611111111111
aF69.77222222222223
aF70.44444444444444
aF71.175
aF71.825
aF72.60555555555555
aF73.22777777777777
aF73.91666666666667
aF74.45277777777778
aF75.11666666666666
aF75.71388888888889
aF76.23055555555555
aF76.66111111111111
aF77.43888888888888
aF78.13333333333334
aF78.825
aF79.49166666666666
aF80.31944444444444
aF80.98055555555555
aF81.78611111111111
aF82.53333333333333
aF83.16388888888889
aF83.80833333333334
aF84.20555555555555
aF84.93611111111112
aF85.5
aF86.17222222222222
aF86.95833333333333
aF88.11111111111111
aF88.97222222222223
aF89.60277777777777
aF90.08055555555555
aF90.63333333333334
aF91.28055555555555
aF92.15833333333333
aF92.67222222222222
aF93.46666666666667
aF94.15
aF95.00555555555556
aF95.41944444444445
aF96.17777777777778
aF96.8638888888889
aF97.275
aF97.83611111111111
aF98.26388888888889
aF98.95
aF99.78055555555555
aF100.70833333333333
aF101.35833333333333
aF101.9
aF102.86944444444444
aF103.33055555555555
aF103.72222222222223
aF104.4
aF105.06666666666666
aF105.7611111111111
aF106.43888888888888
aF107.175
aF107.95833333333333
aF108.78333333333333
aF109.58333333333333
aF110.50833333333334
aF111.33333333333333
aF111.95833333333333
aF112.79722222222222
aF113.3638888888889
aF114.0
aF114.61111111111111
aF115.33888888888889
aF115.81944444444444
aF116.45833333333333
aF117.13333333333334
aF117.81944444444444
aF118.23333333333333
aF118.61111111111111
aF119.50555555555556
aF120.11666666666666
aF120.75833333333334
aF121.15555555555555
aF122.03888888888889
aF123.14722222222223
aF124.025
aF124.77777777777777
aF125.55833333333334
aF126.13333333333334
aF126.65
aF127.13888888888889
aF127.7388888888889
aF128.32777777777778
aF129.05555555555554
aF129.86666666666667
aF130.5611111111111
aF131.34444444444443
aF131.94444444444446
aF132.63611111111112
aF133.20277777777778
aF133.88055555555556
aF134.48888888888888
aF135.18055555555554
aF135.88333333333333
aF136.49166666666667
aF137.15555555555557
aF137.6638888888889
aF138.06944444444446
aF139.11388888888888
aF139.8111111111111
aF140.66666666666666
aF141.46944444444443
aF142.36111111111111
aF143.05833333333334
aF143.56944444444446
aF144.20277777777778
aF144.8361111111111
aF145.56944444444446
aF146.29444444444445
aF146.975
aF147.88055555555556
aF148.475
aF148.94444444444446
aF149.57222222222222
aF150.23611111111111
aF151.13611111111112
aF151.82777777777778
aF152.45833333333334
aF153.0861111111111
aF153.50277777777777
aF154.21944444444443
aF154.66666666666666
aF155.68055555555554
aF156.23888888888888
aF156.79722222222222
aF157.47222222222223
aF158.2
aF158.7861111111111
aF159.225
aF160.36666666666667
aF161.20555555555555
aF161.8361111111111
aF162.3527777777778
aF162.71666666666667
aF163.35833333333332
aF164.11944444444444
aF164.8111111111111
aF165.5361111111111
aF166.24444444444444
aF166.88611111111112
aF167.60555555555555
aF168.29722222222222
aF169.15555555555557
aF169.84722222222223
aF170.54166666666666
aF171.1888888888889
aF171.82777777777778
aF172.425
aF173.09444444444443
aF173.51388888888889
aF174.17222222222222
aF174.78333333333333
aF175.4611111111111
aF175.9611111111111
aF176.7111111111111
aF177.30277777777778
aF178.01111111111112
aF178.63333333333333
aF179.225
aF179.69166666666666
aF180.3527777777778
aF180.88888888888889
aF181.48611111111111
aF182.31666666666666
aF183.19166666666666
aF183.88055555555556
aF185.09444444444443
aF185.57777777777778
aF186.21944444444443
aF186.8111111111111
aF187.5638888888889
aF188.25555555555556
aF188.9111111111111
aF189.71666666666667
aF190.475
aF191.51666666666668
aF192.15833333333333
aF192.99166666666667
aF193.48333333333332
aF194.13333333333333
aF194.91944444444445
aF195.53333333333333
aF195.93333333333334
aF196.30555555555554
aF197.4111111111111
aF197.99722222222223
aF198.55277777777778
aF199.48888888888888
aF200.14166666666668
aF200.5638888888889
aF201.34444444444443
aF202.0222222222222
aF202.6861111111111
aF203.48055555555555
aF204.23888888888888
aF204.78333333333333
aF205.69166666666666
aF206.88611111111112
aF207.50555555555556
aF208.26388888888889
aF208.89444444444445
aF209.51944444444445
aF210.30833333333334
aF210.94722222222222
aF211.32222222222222
aF211.71666666666667
aF212.325
aF213.1638888888889
aF213.80277777777778
aF214.79722222222222
aF215.32222222222222
aF215.925
aF216.5222222222222
aF216.94166666666666
aF217.60833333333332
aF218.0361111111111
aF218.65555555555557
aF219.3111111111111
aF219.9611111111111
aF220.63611111111112
aF221.28055555555557
aF221.88611111111112
aF222.90833333333333
aF223.76111111111112
aF224.55833333333334
aF225.32222222222222
aF226.08333333333334
aF226.88333333333333
aF227.57777777777778
aF228.23888888888888
aF228.9361111111111
aF229.82222222222222
aF230.65277777777777
aF231.4111111111111
aF232.26666666666668
aF232.90833333333333
aF233.76111111111112
aF234.5888888888889
aF235.3388888888889
aF235.90833333333333
aF236.4388888888889
aF237.01388888888889
aF237.71666666666667
aF238.44444444444446
aF238.8972222222222
aF239.49722222222223
aF239.96944444444443
aF240.59444444444443
aF241.29166666666666
aF241.97222222222223
aF242.6611111111111
aF243.175
aF243.79444444444445
aF244.42222222222222
aF245.01388888888889
aF245.44722222222222
aF246.075
aF246.4638888888889
aF247.24444444444444
aF247.9777777777778
aF248.6027777777778
aF249.36666666666667
aF250.13888888888889
aF250.9361111111111
aF251.69444444444446
aF252.3361111111111
aF252.90555555555557
aF253.5638888888889
aF254.21944444444443
aF254.87222222222223
aF255.61388888888888
aF256.64722222222224
aF257.1972222222222
aF257.84722222222223
aF258.46944444444443
aF258.9972222222222
aF259.3777777777778
aF260.0138888888889
aF260.9972222222222
aF261.52777777777777
aF262.2
aF262.90277777777777
aF263.5388888888889
aF264.2
aF264.5777777777778
aF265.55555555555554
aF266.2083333333333
aF267.125
aF267.96666666666664
aF268.73333333333335
aF269.1777777777778
aF269.77777777777777
aF270.4194444444444
aF271.01944444444445
aF271.68055555555554
aF272.81388888888887
aF273.6611111111111
aF274.23333333333335
aF275.0361111111111
aF275.9472222222222
aF276.7
aF277.4916666666667
aF278.1777777777778
aF278.93055555555554
aF279.81944444444446
aF280.7416666666667
aF281.4555555555556
aF282.0
aF282.65
aF283.4638888888889
aF284.18611111111113
aF284.7888888888889
aF285.18055555555554
aF285.85277777777776
aF286.6361111111111
aF287.325
aF287.94444444444446
aF288.5527777777778
aF289.2027777777778
aF289.8222222222222
aF290.5472222222222
aF291.5472222222222
aF292.4194444444444
aF293.01666666666665
aF293.9611111111111
aF294.5777777777778
aF294.9527777777778
aF295.64722222222224
aF296.2111111111111
aF297.075
aF298.0527777777778
aF299.0111111111111
aF299.9277777777778
aF300.47777777777776
aF301.23333333333335
aF301.90555555555557
aF302.60555555555555
aF303.2888888888889
aF304.05833333333334
aF304.47777777777776
aF305.0888888888889
aF305.94166666666666
aF306.4527777777778
aF307.10833333333335
aF307.725
aF308.6111111111111
aF309.3888888888889
aF310.09166666666664
aF310.81388888888887
aF311.45
aF312.34444444444443
aF312.9972222222222
aF314.19166666666666
aF314.9111111111111
aF315.3388888888889
aF316.0388888888889
aF316.8777777777778
aF317.75
aF318.575
aF319.1666666666667
aF319.78333333333336
aF320.5444444444444
aF321.05
aF321.7944444444444
aF322.3861111111111
aF323.0388888888889
aF323.6972222222222
aF324.175
aF324.69444444444446
aF325.4138888888889
aF325.85
aF326.325
aF327.5027777777778
aF328.1722222222222
aF328.6166666666667
aF329.2888888888889
aF329.8027777777778
aF330.48055555555555
aF331.31666666666666
aF332.01666666666665
aF332.98333333333335
aF334.51666666666665
aF335.2
aF335.8833333333333
aF336.50555555555553
aF337.31666666666666
aF338.0388888888889
aF338.68611111111113
aF339.4527777777778
aF340.075
aF340.65
aF341.2361111111111
aF342.3388888888889
aF343.19444444444446
aF343.875
aF344.55
aF345.1611111111111
aF345.84444444444443
aF346.4916666666667
aF346.89722222222224
aF347.6277777777778
aF348.38055555555553
aF349.38055555555553
aF350.03333333333336
aF350.5777777777778
aF351.30833333333334
aF352.125
aF352.68333333333334
aF353.45
aF354.0527777777778
aF354.64444444444445
aF355.44444444444446
aF356.06111111111113
aF356.68611111111113
aF357.0861111111111
aF357.7583333333333
aF358.5
aF359.0361111111111
aF359.7861111111111
aF360.43611111111113
aF361.3666666666667
aF362.2388888888889
aF362.7138888888889
aF363.4166666666667
aF363.85833333333335
aF364.49444444444447
aF365.3611111111111
aF366.09166666666664
aF366.68055555555554
aF367.3277777777778
aF368.21666666666664
aF368.93055555555554
aF369.8888888888889
aF370.63055555555553
aF371.6388888888889
aF372.3861111111111
aF373.23055555555555
aF373.90555555555557
aF374.56111111111113
aF375.25
aF375.98333333333335
aF376.68888888888887
aF377.4138888888889
aF378.03055555555557
aF378.40555555555557
aF381.7472222222222
aF383.7972222222222
aF384.8666666666667
aF385.28055555555557
aF386.925
aF388.03055555555557
aF389.59722222222223
aF390.9555555555556
aF391.425
aF392.89166666666665
aF394.3388888888889
aF395.65277777777777
aF396.9138888888889
aF397.5777777777778
aF398.2611111111111
aF399.5083333333333
aF400.9
aF402.075
aF403.10833333333335
aF404.375
aF405.60555555555555
aF406.7972222222222
aF407.9527777777778
aF409.09444444444443
aF410.2527777777778
aF411.48055555555555
aF412.76944444444445
aF413.9611111111111
aF415.19166666666666
aF416.4527777777778
aF417.81388888888887
aF419.15555555555557
aF420.4111111111111
aF421.625
aF422.85833333333335
aF424.1777777777778
aF425.40833333333336
aF426.5888888888889
aF427.56666666666666
aF428.475
aF428.9111111111111
aF430.4277777777778
aF431.0777777777778
aF432.31944444444446
aF434.125
aF435.4138888888889
aF436.5722222222222
aF437.35833333333335
aF438.5444444444444
aF439.11944444444447
aF440.4555555555556
aF442.45
aF442.6777777777778
aF444.30833333333334
aF444.5111111111111
aF446.1361111111111
aF446.36944444444447
aF448.03055555555557
aF449.2111111111111
aF449.7361111111111
aF451.03333333333336
aF452.25
aF453.59444444444443
aF454.96944444444443
aF456.2111111111111
aF457.50555555555553
aF458.77222222222224
aF458.9861111111111
aF459.74444444444447
aF460.775
aF461.9861111111111
aF462.2416666666667
aF463.81944444444446
aF465.0722222222222
aF466.3388888888889
aF467.56388888888887
aF468.09166666666664
aF469.4138888888889
aF470.6388888888889
aF471.64166666666665
aF472.625
aF473.8333333333333
aF475.10277777777776
aF476.3888888888889
aF477.2638888888889
aF477.4527777777778
aF477.9555555555556
aF478.43055555555554
aF479.06388888888887
aF479.5361111111111
aF479.9138888888889
aF480.575
aF481.075
aF481.5722222222222
aF482.06111111111113
aF482.49444444444447
aF483.0
aF483.7138888888889
aF484.225
aF484.8888888888889
aF485.39166666666665
aF486.0388888888889
aF486.5777777777778
aF487.1
aF487.625
aF488.2388888888889
aF489.075
aF489.60277777777776
aF490.34444444444443
aF491.09722222222223
aF491.8222222222222
aF492.2583333333333
aF492.85
aF493.3638888888889
aF494.075
aF494.8361111111111
aF495.28333333333336
aF495.8388888888889
aF496.6722222222222
aF497.2861111111111
aF497.7055555555556
aF498.43055555555554
aF498.93055555555554
aF499.6361111111111
aF500.1777777777778
aF500.77777777777777
aF501.25555555555553
aF501.7138888888889
aF502.1111111111111
aF502.6722222222222
aF503.26944444444445
aF503.9972222222222
aF504.39444444444445
aF504.81111111111113
aF505.3666666666667
aF506.00555555555553
aF507.2027777777778
aF508.14722222222224
aF509.0083333333333
aF509.4111111111111
aF510.2388888888889
aF510.8
aF511.19444444444446
aF511.8888888888889
aF512.3083333333333
aF512.7777777777778
aF513.2083333333334
aF514.0777777777778
aF514.8055555555555
aF516.7722222222222
aF517.7138888888888
aF519.725
aF520.3416666666667
aF522.1777777777778
aF522.7305555555556
aF523.2972222222222
aF523.825
aF525.1777777777778
aF526.0861111111111
aF526.6611111111112
aF527.7888888888889
aF527.9861111111111
aF529.6361111111111
aF529.8444444444444
aF531.5833333333334
aF531.8194444444445
aF533.5166666666667
aF533.7166666666667
aF535.3222222222222
aF535.525
aF537.2277777777778
aF537.4722222222222
aF539.1444444444444
aF539.3694444444444
aF540.9472222222222
aF541.1388888888889
aF542.8361111111111
aF543.0638888888889
aF544.825
aF545.075
aF546.6694444444445
aF547.8027777777778
aF548.7333333333333
aF549.4888888888889
aF550.9861111111111
aF551.2555555555556
aF552.8722222222223
aF554.05
aF554.4722222222222
aF554.8944444444444
aF556.4722222222222
aF557.6583333333333
aF558.5027777777777
aF559.9527777777778
aF561.1333333333333
aF562.1416666666667
aF563.4777777777778
aF564.6194444444444
aF565.5777777777778
aF566.9083333333333
aF568.1666666666666
aF569.125
aF570.4722222222222
aF571.5972222222222
aF572.5972222222222
aF574.0027777777777
aF575.2444444444444
aF576.1972222222222
aF576.8416666666667
aF577.4861111111111
aF578.6583333333333
aF579.2194444444444
aF580.6722222222222
aF581.8472222222222
aF582.7611111111111
aF583.7361111111111
aF584.9555555555555
aF585.9111111111112
aF586.7361111111111
aF588.2388888888889
aF589.4416666666667
aF590.7083333333334
aF591.6361111111111
aF592.4333333333333
aF593.9
aF595.0833333333334
aF596.2833333333333
aF597.2
aF598.0361111111112
aF599.5055555555556
aF600.6722222222222
aF601.8611111111111
aF602.8055555555555
aF603.6416666666667
aF605.1916666666667
aF606.4527777777778
aF607.6361111111111
aF608.0888888888888
aF608.5416666666666
aF610.1666666666666
aF611.3805555555556
aF612.225
aF613.6777777777778
aF614.8305555555555
aF615.8611111111111
aF617.1888888888889
aF618.35
aF619.2388888888889
aF619.9694444444444
aF620.7027777777778
aF621.9833333333333
aF623.2444444444444
aF624.4555555555555
aF625.7027777777778
aF626.9527777777778
aF628.25
aF629.5
aF630.6361111111111
aF631.7972222222222
aF633.0444444444445
aF634.25
aF635.1583333333333
aF636.575
aF637.1361111111111
aF638.3805555555556
aF639.6194444444444
aF640.8583333333333
aF641.325
aF641.7916666666666
aF643.1805555555555
aF644.4083333333333
aF645.2972222222222
aF646.8277777777778
aF648.0111111111111
aF648.9361111111111
aF650.275
aF651.5222222222222
aF652.5333333333333
aF653.8638888888889
aF655.0166666666667
aF655.9666666666667
aF656.3138888888889
aF656.6638888888889
aF658.1805555555555
aF659.4166666666666
aF660.5527777777778
aF661.0222222222222
aF661.4916666666667
aF662.9444444444445
aF664.2111111111111
aF665.1388888888889
aF666.5305555555556
aF667.6388888888889
aF668.65
aF669.975
aF671.2166666666667
aF672.1194444444444
aF673.4666666666667
aF674.65
aF675.6805555555555
aF677.0277777777778
aF678.2222222222222
aF679.1138888888889
aF680.5277777777778
aF681.7638888888889
aF682.7777777777778
aF684.0472222222222
aF685.1861111111111
aF686.1277777777777
aF687.4861111111111
aF688.7138888888888
aF689.6611111111112
aF690.8833333333333
aF692.0277777777778
aF692.975
aF694.3055555555555
aF695.525
aF696.3861111111111
aF697.8194444444445
aF699.0166666666667
aF699.9694444444444
aF701.4333333333333
aF702.5722222222222
aF703.4527777777778
aF704.8833333333333
aF706.0444444444445
aF707.0805555555555
aF708.3805555555556
aF709.5666666666667
aF710.45
aF712.0388888888889
aF713.2361111111111
aF714.1166666666667
aF715.5111111111111
aF716.7111111111111
aF717.6583333333333
aF718.9972222222223
aF720.1638888888889
aF721.0194444444444
aF722.3138888888889
aF723.5527777777778
aF724.4694444444444
aF725.7972222222222
aF726.9722222222222
aF727.8222222222222
aF729.2611111111111
aF730.5
aF731.3805555555556
aF732.7861111111112
aF733.9222222222222
aF734.8444444444444
aF736.3055555555555
aF737.4833333333333
aF738.3555555555556
aF738.9944444444444
aF739.6333333333333
aF740.1833333333333
aF741.4472222222222
aF742.6638888888889
aF743.6083333333333
aF744.8361111111111
aF745.35
aF746.6638888888889
aF747.8777777777777
aF749.0777777777778
aF749.9944444444444
aF751.375
aF752.5638888888889
aF753.4527777777778
aF754.8833333333333
aF755.4333333333333
aF756.6361111111111
aF757.7611111111111
aF758.9388888888889
aF759.9027777777778
aF761.2444444444444
aF761.7555555555556
aF763.025
aF764.1833333333333
aF765.4583333333334
aF766.3555555555556
aF767.8916666666667
aF769.0833333333334
aF770.9583333333334
aF772.2083333333334
aF773.4361111111111
aF774.2583333333333
aF775.6861111111111
aF776.9194444444445
aF777.4722222222222
aF778.8388888888888
aF780.0333333333333
aF781.2055555555555
aF781.9444444444445
aF783.1277777777777
aF784.4194444444445
aF785.2555555555556
aF785.7777777777778
aF786.7916666666666
aF788.0
aF788.5694444444445
aF789.9444444444445
aF791.1666666666666
aF792.3611111111111
aF793.2055555555555
aF794.7166666666667
aF795.9916666666667
aF797.2166666666667
aF798.0222222222222
aF799.5388888888889
aF800.7111111111111
aF801.9138888888889
aF802.9416666666667
aF804.2722222222222
aF805.4194444444445
aF806.6194444444444
aF807.6388888888889
aF808.375
aF809.8055555555555
aF810.9777777777778
aF812.1527777777778
aF812.625
aF813.0972222222222
aF814.5527777777778
aF815.7222222222222
aF816.6194444444444
aF817.9722222222222
aF819.1777777777778
aF820.1055555555556
aF821.4722222222222
aF822.6527777777778
aF823.4833333333333
aF824.8888888888889
aF826.1361111111111
aF827.0416666666666
aF828.4361111111111
aF829.6
aF830.4916666666667
aF832.0194444444444
aF833.2527777777777
aF834.1416666666667
aF835.5055555555556
aF836.6833333333333
aF837.6666666666666
aF839.0027777777777
aF840.1277777777777
aF841.0611111111111
aF842.3111111111111
aF843.5305555555556
aF844.5055555555556
aF845.7888888888889
aF846.9111111111112
aF847.85
aF849.2833333333333
aF850.4638888888888
aF851.4361111111111
aF852.7555555555556
aF853.9055555555556
aF854.8277777777778
aF856.2722222222222
aF857.4333333333333
aF858.3333333333334
aF859.5944444444444
aF860.8083333333333
aF861.7444444444444
aF863.1
aF864.2472222222223
aF865.1361111111111
aF866.4277777777778
aF867.6666666666666
aF868.6138888888889
aF869.9722222222222
aF871.1416666666667
aF872.0111111111111
aF873.3861111111111
aF874.5833333333334
aF875.5194444444444
aF876.75
aF877.9111111111112
aF878.7833333333333
aF880.2083333333334
aF881.3888888888889
aF882.2444444444444
aF883.6555555555556
aF884.8472222222222
aF885.7555555555556
aF887.275
aF888.3888888888889
aF889.2194444444444
aF890.625
aF891.8333333333334
aF892.7388888888889
aF894.1027777777778
aF895.2388888888889
aF896.1111111111111
aF897.525
aF898.7555555555556
aF899.6333333333333
aF900.9944444444444
aF902.1694444444445
aF903.075
aF904.4694444444444
aF905.6888888888889
aF906.4722222222222
aF907.8083333333333
aF908.9888888888889
aF909.9555555555555
aF911.2388888888889
aF912.4194444444445
aF913.1416666666667
aF913.8861111111111
aF914.6333333333333
aF915.8833333333333
aF917.0944444444444
aF917.8972222222222
aF919.35
aF920.5583333333333
aF921.7805555555556
aF922.6583333333333
aF924.15
aF925.275
aF926.3805555555556
aF927.3083333333333
aF928.7694444444444
aF929.9111111111112
aF930.9861111111111
aF931.9083333333333
aF933.2972222222222
aF934.5277777777778
aF935.6888888888889
aF936.55
aF937.9611111111111
aF939.225
aF940.4916666666667
aF941.2777777777778
aF941.8027777777778
aF942.8
aF943.9916666666667
aF945.2166666666667
aF946.075
aF947.6305555555556
aF948.7472222222223
aF949.875
aF950.7944444444445
aF952.2388888888889
aF953.4027777777778
aF954.5694444444445
aF955.4416666666667
aF956.8472222222222
aF958.0805555555555
aF959.2972222222222
aF960.125
aF961.5416666666666
aF962.7527777777777
aF963.9416666666667
aF964.8722222222223
aF966.2472222222223
aF967.4055555555556
aF968.5555555555555
aF969.5472222222222
aF971.0055555555556
aF972.2
aF973.3083333333333
aF974.2805555555556
aF975.6722222222222
aF976.8972222222222
aF977.8444444444444
aF979.0638888888889
aF979.5916666666667
aF980.9111111111112
aF982.1472222222222
aF982.6194444444444
aF983.0916666666667
aF984.4694444444444
aF985.6444444444444
aF986.4861111111111
aF987.95
aF989.0944444444444
aF990.1055555555556
aF991.2194444444444
aF992.4222222222222
aF993.3861111111111
aF994.0583333333333
aF994.7333333333333
aF995.3083333333333
aF996.5111111111111
aF997.6027777777778
aF998.6
aF999.8888888888889
aF1001.1055555555556
aF1001.9666666666667
aF1003.2638888888889
aF1004.4611111111111
aF1005.5083333333333
aF1005.9972222222223
aF1007.3805555555556
aF1008.4638888888888
aF1009.4222222222222
aF1010.5861111111111
aF1011.7166666666667
aF1012.8361111111111
aF1013.8666666666667
aF1014.3888888888889
aF1014.9138888888889
aF1016.0027777777777
aF1017.1638888888889
aF1018.1861111111111
aF1019.4527777777778
aF1020.5388888888889
aF1021.5527777777778
aF1022.8388888888888
aF1024.0277777777778
aF1025.1027777777779
aF1026.3111111111111
aF1027.4388888888889
aF1028.5277777777778
aF1029.7944444444445
aF1030.986111111111
aF1032.013888888889
aF1033.1777777777777
aF1034.3222222222223
aF1035.4277777777777
aF1036.625
aF1037.8305555555555
aF1038.7694444444444
aF1039.075
aF1039.3805555555555
aF1040.7305555555556
aF1041.9777777777779
aF1043.1666666666667
aF1043.6416666666667
aF1044.1166666666666
aF1045.3666666666666
aF1046.575
aF1047.4833333333333
aF1048.8583333333333
aF1050.0583333333334
aF1050.95
aF1052.2055555555555
aF1053.4944444444445
aF1054.4305555555557
aF1055.7777777777778
aF1056.9166666666667
aF1057.8666666666666
aF1059.111111111111
aF1060.3166666666666
aF1061.3666666666666
aF1062.4722222222222
aF1063.6222222222223
aF1064.5861111111112
aF1065.9611111111112
aF1067.1305555555555
aF1068.125
aF1069.3277777777778
aF1070.525
aF1071.5027777777777
aF1072.911111111111
aF1074.0472222222222
aF1074.9944444444445
aF1075.3111111111111
aF1075.6305555555555
aF1077.0222222222221
aF1078.2722222222221
aF1079.4444444444443
aF1079.9333333333334
aF1080.4222222222222
aF1081.6888888888889
aF1082.9305555555557
aF1083.925
aF1085.2194444444444
aF1086.2916666666667
aF1087.3027777777777
aF1087.8805555555555
aF1088.4583333333333
aF1089.0027777777777
aF1089.3666666666666
aF1090.4
aF1091.5527777777777
aF1092.0222222222221
aF1092.4916666666666
aF1093.7833333333333
aF1095.0305555555556
aF1096.0194444444444
aF1097.4166666666667
aF1097.725
aF1098.5722222222223
aF1098.9166666666667
aF1099.4944444444445
aF1100.1027777777779
aF1100.7111111111112
aF1101.2916666666667
aF1101.825
aF1102.3333333333333
aF1103.411111111111
aF1103.6166666666666
aF1104.5861111111112
aF1105.0583333333334
aF1106.3222222222223
aF1106.8805555555555
aF1108.0388888888888
aF1109.2805555555556
aF1110.2777777777778
aF1111.2888888888888
aF1112.2416666666666
aF1112.7583333333334
aF1113.2083333333333
aF1114.1805555555557
aF1115.2805555555556
aF1116.361111111111
aF1117.6555555555556
aF1119.6583333333333
aF1121.0611111111111
aF1122.3138888888889
aF1123.5472222222222
aF1124.8444444444444
aF1126.2166666666667
aF1126.7388888888888
aF1128.2666666666667
aF1128.8361111111112
aF1130.3055555555557
aF1132.2611111111112
aF1133.1722222222222
aF1134.1277777777777
aF1135.213888888889
aF1136.3472222222222
aF1137.65
aF1138.8944444444444
aF1140.0666666666666
aF1141.2
aF1142.3583333333333
aF1143.6083333333333
aF1144.8027777777777
aF1145.8277777777778
aF1146.3833333333334
aF1146.8138888888889
aF1147.7333333333333
aF1148.9361111111111
aF1149.9916666666666
aF1150.6333333333334
aF1152.05
aF1153.1805555555557
aF1154.3416666666667
aF1155.425
aF1156.7888888888888
aF1157.9194444444445
aF1158.9583333333333
aF1159.536111111111
aF1159.9722222222222
aF1160.9277777777777
aF1162.1305555555555
aF1163.2
aF1164.4666666666667
aF1164.9888888888888
aF1166.3055555555557
aF1167.5194444444444
aF1168.036111111111
aF1168.5555555555557
aF1169.8305555555555
aF1170.9666666666667
aF1171.9527777777778
aF1173.2666666666667
aF1174.5055555555555
aF1175.475
aF1176.7444444444445
aF1177.8666666666666
aF1178.9333333333334
aF1179.263888888889
aF1179.5944444444444
aF1180.0166666666667
aF1181.0666666666666
aF1182.2194444444444
aF1183.35
aF1184.5111111111112
aF1185.5972222222222
aF1186.9972222222223
aF1187.525
aF1187.8944444444444
aF1188.8444444444444
aF1189.9916666666666
aF1191.0027777777777
aF1192.3555555555556
aF1193.5722222222223
aF1194.0805555555555
aF1195.3444444444444
aF1196.536111111111
aF1197.5722222222223
aF1198.9222222222222
aF1200.0944444444444
aF1201.013888888889
aF1202.3833333333334
aF1203.5944444444444
aF1204.825
aF1205.3555555555556
aF1206.6138888888888
aF1207.7527777777777
aF1208.7527777777777
aF1210.1333333333334
aF1211.3222222222223
aF1212.4555555555555
aF1213.4138888888888
aF1214.7388888888888
aF1215.3222222222223
aF1215.7194444444444
aF1216.7583333333334
aF1217.8861111111112
aF1219.0694444444443
aF1219.9944444444445
aF1220.7111111111112
aF1221.1694444444445
aF1222.2305555555556
aF1223.3777777777777
aF1224.5916666666667
aF1225.7194444444444
aF1226.786111111111
aF1228.1222222222223
aF1228.6361111111112
aF1229.9222222222222
aF1231.0833333333333
aF1232.0694444444443
aF1233.4305555555557
aF1234.625
aF1235.6694444444445
aF1236.25
aF1237.5722222222223
aF1238.8
aF1240.0277777777778
aF1241.0444444444445
aF1241.6861111111111
aF1243.0805555555555
aF1244.2305555555556
aF1245.4583333333333
aF1246.4777777777779
aF1247.838888888889
aF1248.9583333333333
aF1249.9555555555555
aF1251.3472222222222
aF1252.5666666666666
aF1253.1083333333333
aF1253.4833333333333
aF1254.4583333333333
aF1255.5583333333334
aF1256.0944444444444
aF1257.5194444444444
aF1258.7555555555555
aF1259.6333333333334
aF1261.0611111111111
aF1262.2583333333334
aF1263.45
aF1264.0194444444444
aF1265.4305555555557
aF1266.5722222222223
aF1267.4222222222222
aF1268.8916666666667
aF1270.1277777777777
aF1271.2888888888888
aF1272.2444444444445
aF1273.5277777777778
aF1274.0722222222223
aF1275.388888888889
aF1276.6305555555555
aF1277.7666666666667
aF1278.7055555555555
aF1279.9472222222223
aF1281.2
aF1282.0972222222222
aF1283.525
aF1283.7666666666667
aF1285.3361111111112
aF1286.475
aF1287.7166666666667
aF1288.7305555555556
aF1290.013888888889
aF1290.486111111111
aF1291.8472222222222
aF1293.0472222222222
aF1294.2555555555555
aF1294.7555555555555
aF1295.2555555555555
aF1296.5083333333334
aF1297.6444444444444
aF1298.5472222222222
aF1299.9583333333333
aF1301.125
aF1302.0555555555557
aF1303.338888888889
aF1304.4444444444443
aF1305.4833333333333
aF1306.7444444444445
aF1307.925
aF1308.7694444444444
aF1310.1666666666667
aF1311.3666666666666
aF1312.4166666666667
aF1313.75
aF1314.9027777777778
aF1315.8472222222222
aF1317.2083333333333
aF1318.4083333333333
aF1319.45
aF1320.661111111111
aF1321.8527777777779
aF1322.8472222222222
aF1324.2055555555555
aF1325.3777777777777
aF1326.3777777777777
aF1327.5611111111111
aF1328.7611111111112
aF1329.8027777777777
aF1331.0194444444444
aF1332.2083333333333
aF1333.1166666666666
aF1334.4472222222223
aF1335.6277777777777
aF1336.7194444444444
aF1338.025
aF1339.175
aF1340.1555555555556
aF1341.6
aF1342.786111111111
aF1343.8083333333334
aF1344.9944444444445
aF1346.1666666666667
aF1347.15
aF1348.5833333333333
aF1349.6861111111111
aF1350.661111111111
aF1351.9138888888888
aF1353.1055555555556
aF1354.15
aF1355.4583333333333
aF1356.5694444444443
aF1357.525
aF1358.8944444444444
aF1360.1555555555556
aF1361.1138888888888
aF1362.3916666666667
aF1363.55
aF1364.513888888889
aF1365.85
aF1367.0111111111112
aF1368.0416666666667
aF1368.6333333333334
aF1369.225
aF1370.4833333333333
aF1371.8222222222223
aF1373.013888888889
aF1374.1833333333334
aF1375.3694444444445
aF1376.5416666666667
aF1377.8222222222223
aF1379.0305555555556
aF1380.1638888888888
aF1381.2888888888888
aF1382.525
aF1383.725
aF1384.9555555555555
aF1386.111111111111
aF1387.25
aF1388.4055555555556
aF1389.675
aF1390.9
aF1392.0805555555555
aF1393.2555555555555
aF1394.4611111111112
aF1395.6916666666666
aF1396.9083333333333
aF1398.0666666666666
aF1399.1888888888889
aF1400.4
aF1401.65
aF1402.8361111111112
aF1403.9833333333333
aF1405.1138888888888
aF1406.263888888889
aF1407.486111111111
aF1408.7333333333333
aF1409.875
aF1410.9972222222223
aF1412.1555555555556
aF1413.3055555555557
aF1414.525
aF1415.6972222222223
aF1416.8361111111112
aF1417.9277777777777
aF1419.2055555555555
aF1420.4333333333334
aF1421.5722222222223
aF1422.6972222222223
aF1423.8361111111112
aF1424.9972222222223
aF1426.2027777777778
aF1427.3444444444444
aF1428.4388888888889
aF1429.525
aF1430.725
aF1431.9444444444443
aF1433.0944444444444
aF1434.236111111111
aF1435.388888888889
aF1436.5722222222223
aF1437.8138888888889
aF1439.025
aF1440.1305555555555
aF1441.2611111111112
aF1442.411111111111
aF1443.6527777777778
aF1444.736111111111
aF1445.9277777777777
aF1446.9888888888888
aF1448.1472222222221
aF1449.3527777777779
aF1450.6277777777777
aF1451.1777777777777
aF1451.5666666666666
aF1452.575
aF1453.7611111111112
aF1454.3166666666666
aF1455.675
aF1456.8472222222222
aF1457.3361111111112
aF1457.7055555555555
aF1458.6916666666666
aF1459.8138888888889
aF1461.025
aF1462.2444444444445
aF1462.7416666666666
aF1464.175
aF1464.75
aF1466.1277777777777
aF1466.3972222222221
aF1468.1944444444443
aF1468.7194444444444
aF1470.161111111111
aF1470.7222222222222
aF1472.0972222222222
aF1472.3694444444445
aF1474.1527777777778
aF1474.6638888888888
aF1476.1472222222221
aF1476.6972222222223
aF1478.0694444444443
aF1478.6666666666667
aF1480.1527777777778
aF1480.4333333333334
aF1482.0944444444444
aF1482.5805555555555
aF1484.0055555555555
aF1484.5638888888889
aF1486.0555555555557
aF1486.6
aF1486.9833333333333
aF1488.0277777777778
aF1488.5527777777777
aF1489.9305555555557
aF1490.2027777777778
aF1492.0388888888888
aF1492.536111111111
aF1494.0
aF1494.513888888889
aF1494.85
aF1495.9388888888889
aF1496.4666666666667
aF1498.0083333333334
aF1498.2944444444445
aF1500.0027777777777
aF1500.4833333333333
aF1501.9222222222222
aF1502.5083333333334
aF1504.013888888889
aF1504.525
aF1505.1805555555557
aF1506.1944444444443
aF1506.6555555555556
aF1508.1138888888888
aF1508.7333333333333
aF1510.2583333333334
aF1510.536111111111
aF1512.225
aF1512.7083333333333
aF1514.2555555555555
aF1514.7888888888888
aF1516.3583333333333
aF1516.9388888888889
aF1518.3361111111112
aF1518.575
aF1520.263888888889
aF1520.7916666666667
aF1521.2194444444444
aF1522.3111111111111
aF1522.861111111111
aF1523.2055555555555
aF1524.2805555555556
aF1524.536111111111
aF1525.1472222222221
aF1526.3277777777778
aF1526.9166666666667
aF1528.5083333333334
aF1530.4777777777779
aF1530.9444444444443
aF1532.4972222222223
aF1532.7666666666667
aF1533.075
aF1534.5638888888889
aF1535.05
aF1536.513888888889
aF1537.661111111111
aF1538.8777777777777
aF1539.8861111111112
aF1540.5916666666667
aF1542.0527777777777
aF1544.0055555555555
aF1544.525
aF1546.0472222222222
aF1547.9944444444445
aF1548.4916666666666
aF1548.8944444444444
aF1549.8361111111112
aF1550.7472222222223
aF1551.786111111111
aF1552.3055555555557
aF1552.6916666666666
aF1553.6722222222222
aF1554.1638888888888
aF1554.5222222222221
aF1555.525
aF1556.0416666666667
aF1557.525
aF1557.8194444444443
aF1559.536111111111
aF1560.025
aF1560.375
aF1561.4722222222222
aF1561.975
aF1562.388888888889
aF1563.675
aF1564.9388888888889
aF1565.4805555555556
aF1566.8916666666667
aF1567.3944444444444
aF1568.9027777777778
aF1569.2027777777778
aF1571.013888888889
aF1571.4777777777779
aF1572.9
aF1573.1916666666666
aF1574.9555555555555
aF1575.4583333333333
aF1576.9666666666667
aF1577.2305555555556
aF1578.8777777777777
aF1579.1277777777777
aF1580.8166666666666
aF1581.3583333333333
aF1582.8583333333333
aF1583.1138888888888
aF1584.7027777777778
aF1584.9611111111112
aF1585.2111111111112
aF1585.5972222222222
aF1586.1555555555556
aF1586.6277777777777
aF1587.7333333333333
aF1588.0111111111112
aF1588.675
aF1589.8555555555556
aF1590.3972222222221
aF1591.8055555555557
aF1592.0638888888889
aF1593.8916666666667
aF1594.4166666666667
aF1595.7972222222222
aF1596.5055555555555
aF1596.6722222222222
aF1597.1888888888889
aF1597.6027777777779
aF1598.1916666666666
aF1598.6805555555557
aF1599.1638888888888
aF1599.6027777777779
aF1600.1277777777777
aF1600.9333333333334
aF1601.5027777777777
aF1601.9277777777777
aF1602.5222222222221
aF1602.9972222222223
aF1603.55
aF1604.3638888888888
aF1605.1888888888889
aF1605.7833333333333
aF1606.2583333333334
aF1606.8166666666666
aF1607.4916666666666
aF1608.2333333333333
aF1608.7333333333333
aF1609.4444444444443
aF1610.0972222222222
aF1610.9972222222223
aF1611.5472222222222
aF1612.1333333333334
aF1612.625
aF1613.0861111111112
aF1613.7333333333333
aF1614.3333333333333
aF1614.8916666666667
aF1615.3277777777778
aF1615.7194444444444
aF1616.1472222222221
aF1616.5694444444443
aF1616.9444444444443
aF1617.3583333333333
aF1618.1361111111112
aF1618.6444444444444
aF1619.786111111111
aF1620.45
aF1620.986111111111
aF1621.4888888888888
aF1621.986111111111
aF1622.8444444444444
aF1623.4944444444445
aF1624.2194444444444
aF1624.9166666666667
aF1625.5861111111112
aF1626.4277777777777
aF1626.9277777777777
aF1627.4138888888888
aF1628.5972222222222
aF1629.3777777777777
aF1630.1055555555556
aF1630.763888888889
aF1631.5555555555557
aF1631.9916666666666
aF1632.3638888888888
aF1632.8527777777779
aF1633.4333333333334
aF1634.1527777777778
aF1634.8166666666666
aF1635.55
aF1636.1333333333334
aF1636.8972222222221
aF1637.4388888888889
aF1638.3722222222223
aF1638.888888888889
aF1639.5916666666667
aF1640.338888888889
aF1641.036111111111
aF1641.6527777777778
aF1642.388888888889
aF1642.8472222222222
aF1643.3972222222221
aF1644.2194444444444
aF1644.8444444444444
aF1645.463888888889
aF1646.2611111111112
aF1647.0027777777777
aF1647.8833333333334
aF1648.3305555555555
aF1649.1194444444445
aF1649.8527777777779
aF1650.45
aF1651.1694444444445
aF1651.625
aF1652.3527777777779
aF1653.0333333333333
aF1653.7527777777777
aF1654.3472222222222
aF1655.1472222222221
aF1655.65
aF1656.5222222222221
aF1657.1194444444445
aF1657.9194444444445
aF1658.5222222222221
aF1659.2388888888888
aF1659.9472222222223
aF1660.6166666666666
aF1661.161111111111
aF1661.7777777777778
aF1662.3777777777777
aF1663.2166666666667
aF1663.9527777777778
aF1664.6722222222222
aF1665.1194444444445
aF1665.736111111111
aF1666.1805555555557
aF1666.9888888888888
aF1667.6972222222223
aF1668.2305555555556
aF1669.088888888889
aF1669.7972222222222
aF1670.6194444444445
aF1671.4138888888888
aF1672.0083333333334
aF1672.7277777777779
aF1673.25
aF1673.861111111111
aF1674.35
aF1674.763888888889
aF1675.388888888889
aF1676.1194444444445
aF1676.8583333333333
aF1677.5305555555556
aF1678.0444444444445
aF1678.7777777777778
aF1679.25
aF1679.9
aF1680.5416666666667
aF1681.2055555555555
aF1681.8833333333334
aF1682.5416666666667
aF1683.2611111111112
aF1683.8777777777777
aF1684.5222222222221
aF1685.0944444444444
aF1685.7444444444445
aF1686.1666666666667
aF1686.661111111111
aF1687.2694444444444
aF1687.6666666666667
aF1688.3166666666666
aF1689.0833333333333
aF1689.7555555555555
aF1690.4222222222222
aF1691.2916666666667
aF1691.9138888888888
aF1692.6083333333333
aF1693.225
aF1693.9722222222222
aF1694.825
aF1695.5666666666666
aF1696.013888888889
aF1696.6972222222223
aF1697.3138888888889
aF1698.1
aF1698.8805555555555
aF1699.5333333333333
aF1700.375
aF1701.1138888888888
aF1701.9944444444445
aF1702.7222222222222
aF1703.2944444444445
aF1703.861111111111
aF1704.3833333333334
aF1704.9805555555556
aF1705.861111111111
aF1706.3166666666666
aF1706.9916666666666
aF1707.5944444444444
aF1708.1777777777777
aF1708.6694444444445
aF1709.0472222222222
aF1709.7722222222221
aF1710.55
aF1711.0527777777777
aF1711.7333333333333
aF1712.4138888888888
aF1713.125
aF1713.7916666666667
aF1714.263888888889
aF1715.1194444444445
aF1715.7277777777779
aF1716.5305555555556
aF1717.0722222222223
aF1717.513888888889
aF1718.263888888889
aF1718.9333333333334
aF1719.486111111111
aF1720.0583333333334
aF1720.6777777777777
aF1721.3333333333333
aF1721.8277777777778
aF1722.3638888888888
aF1722.85
aF1723.5111111111112
aF1724.275
aF1724.925
aF1725.6722222222222
aF1726.1138888888888
aF1726.7388888888888
aF1727.4388888888889
aF1728.175
aF1728.911111111111
aF1729.5333333333333
aF1730.1361111111112
aF1730.6722222222222
aF1731.3694444444445
aF1731.8333333333333
aF1732.4416666666666
aF1733.088888888889
aF1733.7388888888888
aF1734.3055555555557
aF1734.9444444444443
aF1735.6361111111112
aF1736.4666666666667
aF1737.425
aF1738.1055555555556
aF1738.6888888888889
aF1739.3916666666667
aF1740.0666666666666
aF1740.5194444444444
aF1741.1916666666666
aF1741.7305555555556
aF1742.213888888889
aF1742.9444444444443
aF1743.6333333333334
aF1744.111111111111
aF1745.3111111111111
aF1745.9166666666667
aF1746.3916666666667
aF1746.9583333333333
aF1747.5833333333333
aF1748.1222222222223
aF1748.9555555555555
aF1749.4333333333334
aF1750.0861111111112
aF1750.8083333333334
aF1751.275
aF1752.036111111111
aF1752.65
aF1753.3916666666667
aF1753.8638888888888
aF1754.3222222222223
aF1755.0388888888888
aF1755.7666666666667
aF1756.5583333333334
aF1757.2694444444444
aF1757.7111111111112
aF1758.3555555555556
aF1759.125
aF1759.7305555555556
aF1760.3777777777777
aF1761.1527777777778
aF1762.1833333333334
aF1762.9694444444444
aF1763.6722222222222
aF1764.4666666666667
aF1765.2583333333334
aF1765.7388888888888
aF1766.2166666666667
aF1766.9472222222223
aF1767.638888888889
aF1768.4777777777779
aF1769.1861111111111
aF1770.225
aF1770.8972222222221
aF1771.3722222222223
aF1771.8805555555555
aF1772.5083333333334
aF1773.0416666666667
aF1773.7
aF1774.1944444444443
aF1774.8027777777777
aF1775.3833333333334
aF1776.013888888889
aF1776.7472222222223
aF1777.3472222222222
aF1777.7666666666667
aF1778.4972222222223
aF1779.2277777777779
aF1779.975
aF1780.6055555555556
aF1781.125
aF1782.0611111111111
aF1782.8361111111112
aF1783.4361111111111
aF1784.1833333333334
aF1784.7083333333333
aF1785.3722222222223
aF1786.025
aF1786.7666666666667
aF1787.2527777777777
aF1790.5388888888888
aF1792.1583333333333
aF1793.8944444444444
aF1794.5861111111112
aF1795.1583333333333
aF1795.8861111111112
aF1796.361111111111
aF1797.9138888888888
aF1798.1138888888888
aF1799.9027777777778
aF1801.1638888888888
aF1801.65
aF1803.0666666666666
aF1803.2805555555556
aF1805.0
atp3
Rp4
.