carray
array
p0
(S'd'
p1
(lp2
F28.0
aF3.0
aF5.0
aF3.0
aF5.0
aF3.0
aF5.0
aF3.0
aF5.0
aF3.0
aF5.0
aF3.0
aF5.0
aF3.0
aF5.0
aF3.0
aF5.0
aF3.0
aF5.0
aF3.0
aF5.0
aF3.0
aF5.0
aF3.0
aF5.0
aF3.0
aF5.0
aF3.0
aF5.0
aF3.0
aF5.0
aF3.0
aF5.0
aF3.0
aF5.0
aF3.0
aF5.0
aF5.0
aF2.0
aF28.0
aF5.0
aF5.0
aF5.0
aF28.0
aF2.0
aF32.0
aF28.0
aF31.0
aF31.0
aF31.0
aF31.0
aF31.0
aF31.0
aF31.0
aF31.0
aF31.0
aF31.0
aF31.0
aF31.0
aF31.0
aF31.0
aF31.0
aF31.0
aF31.0
aF31.0
aF31.0
aF31.0
aF31.0
aF31.0
aF31.0
aF31.0
aF31.0
aF31.0
aF31.0
aF31.0
aF33.0
aF28.0
aF3.0
aF5.0
aF3.0
aF32.0
aF28.0
aF31.0
aF31.0
aF31.0
aF31.0
aF31.0
aF31.0
aF31.0
aF31.0
aF31.0
aF31.0
aF31.0
aF31.0
aF31.0
aF31.0
aF31.0
aF31.0
aF33.0
aF28.0
aF3.0
aF28.0
aF5.0
aF5.0
aF5.0
aF28.0
aF2.0
aF2.0
aF2.0
aF5.0
aF3.0
aF2.0
aF2.0
aF2.0
aF2.0
aF28.0
aF5.0
aF2.0
aF5.0
aF3.0
aF5.0
aF28.0
aF3.0
aF2.0
aF5.0
aF5.0
aF3.0
aF5.0
aF5.0
aF3.0
aF2.0
aF5.0
aF3.0
aF5.0
aF3.0
aF2.0
aF2.0
aF2.0
aF2.0
aF2.0
aF2.0
aF5.0
aF3.0
aF2.0
aF2.0
aF2.0
aF2.0
aF2.0
aF2.0
aF2.0
aF2.0
aF2.0
aF2.0
aF2.0
aF2.0
aF2.0
aF2.0
aF2.0
aF2.0
aF2.0
aF2.0
aF2.0
aF2.0
aF2.0
aF2.0
aF2.0
aF2.0
aF2.0
aF2.0
aF2.0
aF2.0
aF2.0
aF2.0
aF2.0
aF2.0
aF2.0
aF2.0
aF2.0
aF5.0
aF2.0
aF5.0
aF3.0
aF5.0
aF5.0
aF2.0
aF28.0
aF5.0
aF3.0
aF5.0
aF3.0
aF5.0
aF3.0
aF5.0
aF3.0
aF5.0
aF3.0
aF5.0
aF3.0
aF5.0
aF3.0
aF5.0
aF3.0
aF5.0
aF3.0
aF5.0
aF3.0
aF5.0
aF3.0
aF5.0
aF3.0
aF5.0
aF3.0
aF5.0
aF3.0
aF5.0
aF3.0
aF5.0
aF3.0
aF5.0
aF3.0
aF5.0
aF3.0
aF5.0
aF3.0
aF5.0
aF3.0
aF5.0
aF3.0
aF5.0
aF3.0
aF5.0
aF3.0
aF5.0
aF3.0
aF5.0
aF3.0
aF5.0
aF3.0
aF5.0
aF3.0
aF5.0
aF3.0
aF5.0
aF3.0
aF5.0
aF3.0
aF5.0
aF3.0
aF5.0
aF3.0
aF5.0
aF3.0
aF5.0
aF3.0
aF5.0
aF3.0
aF5.0
aF3.0
aF5.0
aF3.0
aF5.0
aF3.0
aF5.0
aF3.0
aF5.0
aF3.0
aF5.0
aF3.0
aF5.0
aF3.0
aF5.0
aF3.0
aF5.0
aF3.0
aF5.0
aF3.0
aF5.0
aF3.0
aF5.0
aF3.0
aF5.0
aF3.0
aF5.0
aF3.0
aF5.0
aF3.0
aF5.0
aF3.0
aF5.0
aF3.0
aF5.0
aF3.0
aF5.0
aF3.0
aF5.0
aF28.0
aF3.0
aF2.0
aF32.0
aF28.0
aF31.0
aF31.0
aF31.0
aF31.0
aF31.0
aF31.0
aF31.0
aF31.0
aF31.0
aF31.0
aF31.0
aF31.0
aF33.0
aF28.0
aF3.0
aF32.0
aF28.0
aF31.0
aF31.0
aF31.0
aF31.0
aF31.0
aF31.0
aF31.0
aF31.0
aF31.0
aF31.0
aF31.0
aF31.0
aF31.0
aF31.0
aF31.0
aF31.0
aF31.0
aF31.0
aF31.0
aF31.0
aF31.0
aF31.0
aF31.0
aF31.0
aF31.0
aF31.0
aF31.0
aF31.0
aF31.0
aF31.0
aF31.0
aF31.0
aF31.0
aF31.0
aF31.0
aF31.0
aF31.0
aF31.0
aF31.0
aF31.0
aF33.0
aF28.0
aF2.0
aF5.0
aF2.0
aF2.0
aF2.0
aF5.0
aF5.0
aF2.0
aF32.0
aF28.0
aF31.0
aF31.0
aF31.0
aF31.0
aF31.0
aF31.0
aF31.0
aF31.0
aF31.0
aF31.0
aF31.0
aF31.0
aF31.0
aF31.0
aF31.0
aF31.0
aF31.0
aF31.0
aF31.0
aF31.0
aF31.0
aF31.0
aF31.0
aF31.0
aF31.0
aF31.0
aF31.0
aF31.0
aF31.0
aF31.0
aF31.0
aF31.0
aF31.0
aF31.0
aF31.0
aF31.0
aF33.0
aF28.0
aF2.0
aF5.0
aF14.0
aF2.0
aF5.0
aF2.0
aF2.0
aF2.0
aF2.0
aF2.0
aF2.0
aF2.0
aF2.0
aF2.0
aF2.0
aF2.0
aF2.0
aF2.0
aF2.0
aF2.0
aF2.0
aF2.0
aF2.0
aF2.0
aF2.0
aF2.0
aF14.0
aF2.0
aF2.0
aF2.0
aF2.0
aF2.0
aF2.0
aF2.0
aF2.0
aF2.0
aF2.0
aF2.0
aF14.0
aF2.0
aF2.0
aF2.0
aF2.0
aF2.0
aF2.0
aF2.0
aF2.0
aF2.0
aF2.0
aF2.0
aF2.0
aF2.0
aF2.0
aF14.0
aF2.0
aF2.0
aF2.0
aF2.0
aF2.0
aF2.0
aF2.0
aF2.0
aF2.0
aF2.0
aF2.0
aF2.0
aF2.0
aF2.0
aF2.0
aF2.0
aF2.0
aF2.0
aF2.0
aF2.0
aF2.0
aF14.0
aF2.0
aF2.0
aF2.0
aF2.0
aF14.0
aF2.0
aF2.0
aF2.0
aF2.0
aF2.0
aF2.0
aF2.0
aF2.0
aF2.0
aF2.0
aF14.0
aF2.0
aF2.0
aF2.0
aF2.0
aF2.0
aF2.0
aF2.0
aF2.0
aF2.0
aF2.0
aF2.0
aF2.0
aF2.0
aF2.0
aF2.0
aF2.0
aF2.0
aF2.0
aF2.0
aF2.0
aF2.0
aF2.0
aF2.0
aF2.0
aF2.0
aF2.0
aF2.0
aF2.0
aF2.0
aF2.0
aF2.0
aF2.0
aF2.0
aF2.0
aF2.0
aF2.0
aF2.0
aF2.0
aF2.0
aF2.0
aF2.0
aF2.0
aF2.0
aF2.0
aF2.0
aF2.0
aF2.0
aF2.0
aF2.0
aF2.0
aF2.0
aF2.0
aF2.0
aF2.0
aF2.0
aF2.0
aF2.0
aF2.0
aF2.0
aF2.0
aF2.0
aF2.0
aF2.0
aF2.0
aF2.0
aF2.0
aF2.0
aF2.0
aF2.0
aF2.0
aF2.0
aF2.0
aF2.0
aF2.0
aF2.0
aF2.0
aF2.0
aF2.0
aF2.0
aF2.0
aF2.0
aF2.0
aF2.0
aF2.0
aF2.0
aF2.0
aF2.0
aF2.0
aF2.0
aF2.0
aF2.0
aF2.0
aF14.0
aF2.0
aF2.0
aF2.0
aF14.0
aF2.0
aF2.0
aF2.0
aF2.0
aF2.0
aF2.0
aF2.0
aF2.0
aF2.0
aF2.0
aF2.0
aF2.0
aF2.0
aF2.0
aF2.0
aF2.0
aF2.0
aF2.0
aF2.0
aF2.0
aF2.0
aF2.0
aF2.0
aF2.0
aF2.0
aF2.0
aF2.0
aF2.0
aF2.0
aF14.0
aF2.0
aF2.0
aF2.0
aF2.0
aF2.0
aF14.0
aF2.0
aF2.0
aF2.0
aF2.0
aF2.0
aF2.0
aF2.0
aF2.0
aF2.0
aF2.0
aF2.0
aF2.0
aF2.0
aF2.0
aF2.0
aF2.0
aF2.0
aF2.0
aF2.0
aF2.0
aF2.0
aF2.0
aF2.0
aF2.0
aF2.0
aF2.0
aF2.0
aF2.0
aF2.0
aF2.0
aF2.0
aF2.0
aF2.0
aF2.0
aF14.0
aF2.0
aF2.0
aF2.0
aF2.0
aF2.0
aF2.0
aF2.0
aF2.0
aF2.0
aF2.0
aF2.0
aF14.0
aF2.0
aF2.0
aF2.0
aF2.0
aF2.0
aF2.0
aF2.0
aF2.0
aF2.0
aF2.0
aF2.0
aF2.0
aF2.0
aF2.0
aF2.0
aF2.0
aF2.0
aF2.0
aF2.0
aF2.0
aF2.0
aF2.0
aF2.0
aF2.0
aF2.0
aF2.0
aF2.0
aF2.0
aF2.0
aF2.0
aF2.0
aF2.0
aF2.0
aF2.0
aF2.0
aF2.0
aF2.0
aF2.0
aF2.0
aF2.0
aF2.0
aF2.0
aF2.0
aF2.0
aF2.0
aF14.0
aF2.0
aF2.0
aF2.0
aF14.0
aF2.0
aF2.0
aF2.0
aF2.0
aF2.0
aF2.0
aF2.0
aF2.0
aF2.0
aF2.0
aF2.0
aF2.0
aF2.0
aF2.0
aF2.0
aF2.0
aF2.0
aF2.0
aF2.0
aF2.0
aF2.0
aF2.0
aF2.0
aF2.0
aF2.0
aF2.0
aF2.0
aF2.0
aF2.0
aF2.0
aF2.0
aF2.0
aF2.0
aF2.0
aF2.0
aF2.0
aF2.0
aF2.0
aF2.0
aF2.0
aF2.0
aF2.0
aF2.0
aF2.0
aF2.0
aF2.0
aF2.0
aF2.0
aF2.0
aF2.0
aF2.0
aF2.0
aF2.0
aF2.0
aF2.0
aF2.0
aF2.0
aF2.0
aF2.0
aF2.0
aF2.0
aF2.0
aF2.0
aF2.0
aF2.0
aF2.0
aF2.0
aF2.0
aF2.0
aF2.0
aF2.0
aF2.0
aF2.0
aF2.0
aF2.0
aF2.0
aF2.0
aF2.0
aF2.0
aF2.0
aF2.0
aF2.0
aF2.0
aF2.0
aF2.0
aF2.0
aF2.0
aF2.0
aF2.0
aF2.0
aF2.0
aF2.0
aF2.0
aF2.0
aF2.0
aF2.0
aF2.0
aF2.0
aF2.0
aF2.0
aF2.0
aF2.0
aF2.0
aF2.0
aF2.0
aF2.0
aF2.0
aF2.0
aF2.0
aF2.0
aF2.0
aF2.0
aF2.0
aF2.0
aF2.0
aF2.0
aF2.0
aF2.0
aF2.0
aF2.0
aF2.0
aF2.0
aF2.0
aF2.0
aF2.0
aF2.0
aF2.0
aF2.0
aF2.0
aF2.0
aF2.0
aF2.0
aF2.0
aF2.0
aF2.0
aF2.0
aF2.0
aF2.0
aF2.0
aF2.0
aF2.0
aF2.0
aF2.0
aF2.0
aF2.0
aF2.0
aF2.0
aF2.0
aF2.0
aF2.0
aF2.0
aF2.0
aF2.0
aF2.0
aF2.0
aF2.0
aF2.0
aF2.0
aF2.0
aF2.0
aF2.0
aF2.0
aF2.0
aF2.0
aF2.0
aF2.0
aF2.0
aF2.0
aF2.0
aF2.0
aF2.0
aF2.0
aF2.0
aF2.0
aF2.0
aF2.0
aF2.0
aF2.0
aF2.0
aF2.0
aF2.0
aF2.0
aF2.0
aF2.0
aF2.0
aF2.0
aF2.0
aF2.0
aF2.0
aF2.0
aF2.0
aF2.0
aF2.0
aF2.0
aF2.0
aF2.0
aF2.0
aF2.0
aF2.0
aF2.0
aF2.0
aF2.0
aF2.0
aF2.0
aF2.0
aF2.0
aF2.0
aF2.0
aF2.0
aF2.0
aF2.0
aF2.0
aF2.0
aF2.0
aF2.0
aF2.0
aF2.0
aF2.0
aF2.0
aF2.0
aF2.0
aF2.0
aF2.0
aF2.0
aF2.0
aF2.0
aF2.0
aF2.0
aF2.0
aF2.0
aF2.0
aF2.0
aF2.0
aF2.0
aF2.0
aF2.0
aF2.0
aF2.0
aF2.0
aF2.0
aF2.0
aF2.0
aF2.0
aF2.0
aF2.0
aF2.0
aF2.0
aF2.0
aF2.0
aF2.0
aF2.0
aF2.0
aF2.0
aF2.0
aF2.0
aF2.0
aF2.0
aF2.0
aF2.0
aF2.0
aF2.0
aF2.0
aF2.0
aF2.0
aF2.0
aF2.0
aF2.0
aF2.0
aF2.0
aF2.0
aF2.0
aF2.0
aF2.0
aF2.0
aF2.0
aF2.0
aF2.0
aF2.0
aF2.0
aF2.0
aF2.0
aF2.0
aF2.0
aF2.0
aF2.0
aF2.0
aF2.0
aF2.0
aF2.0
aF2.0
aF2.0
aF2.0
aF2.0
aF2.0
aF2.0
aF2.0
aF2.0
aF2.0
aF2.0
aF2.0
aF2.0
aF2.0
aF2.0
aF2.0
aF2.0
aF2.0
aF2.0
aF2.0
aF2.0
aF2.0
aF2.0
aF2.0
aF2.0
aF2.0
aF2.0
aF2.0
aF2.0
aF2.0
aF2.0
aF2.0
aF2.0
aF2.0
aF2.0
aF2.0
aF2.0
aF2.0
aF2.0
aF2.0
aF2.0
aF2.0
aF2.0
aF2.0
aF2.0
aF2.0
aF2.0
aF2.0
aF2.0
aF2.0
aF2.0
aF2.0
aF2.0
aF2.0
aF2.0
aF2.0
aF2.0
aF2.0
aF2.0
aF2.0
aF2.0
aF2.0
aF2.0
aF2.0
aF2.0
aF2.0
aF2.0
aF2.0
aF2.0
aF2.0
aF2.0
aF2.0
aF2.0
aF2.0
aF2.0
aF2.0
aF2.0
aF2.0
aF2.0
aF2.0
aF2.0
aF2.0
aF2.0
aF2.0
aF2.0
aF2.0
aF2.0
aF2.0
aF2.0
aF2.0
aF2.0
aF2.0
aF2.0
aF2.0
aF2.0
aF2.0
aF2.0
aF2.0
aF2.0
aF2.0
aF2.0
aF2.0
aF2.0
aF2.0
aF2.0
aF2.0
aF2.0
aF2.0
aF2.0
aF2.0
aF2.0
aF2.0
aF2.0
aF2.0
aF2.0
aF2.0
aF2.0
aF2.0
aF2.0
aF2.0
aF2.0
aF2.0
aF2.0
aF2.0
aF2.0
aF2.0
aF2.0
aF2.0
aF2.0
aF2.0
aF2.0
aF2.0
aF2.0
aF2.0
aF2.0
aF2.0
aF2.0
aF2.0
aF2.0
aF2.0
aF2.0
aF2.0
aF2.0
aF2.0
aF2.0
aF2.0
aF2.0
aF2.0
aF2.0
aF2.0
aF2.0
aF2.0
aF2.0
aF2.0
aF2.0
aF2.0
aF2.0
aF2.0
aF2.0
aF2.0
aF2.0
aF2.0
aF2.0
aF2.0
aF2.0
aF2.0
aF2.0
aF2.0
aF2.0
aF2.0
aF2.0
aF2.0
aF2.0
aF2.0
aF2.0
aF2.0
aF2.0
aF2.0
aF2.0
aF2.0
aF2.0
aF2.0
aF2.0
aF2.0
aF2.0
aF2.0
aF2.0
aF2.0
aF2.0
aF2.0
aF2.0
aF2.0
aF2.0
aF2.0
aF2.0
aF2.0
aF2.0
aF2.0
aF2.0
aF2.0
aF2.0
aF2.0
aF2.0
aF2.0
aF2.0
aF2.0
aF2.0
aF2.0
aF2.0
aF2.0
aF2.0
aF2.0
aF2.0
aF2.0
aF2.0
aF2.0
aF2.0
aF2.0
aF2.0
aF2.0
aF2.0
aF2.0
aF2.0
aF2.0
aF2.0
aF2.0
aF2.0
aF2.0
aF2.0
aF2.0
aF2.0
aF2.0
aF2.0
aF2.0
aF2.0
aF2.0
aF2.0
aF2.0
aF2.0
aF2.0
aF2.0
aF2.0
aF2.0
aF2.0
aF2.0
aF2.0
aF2.0
aF2.0
aF2.0
aF2.0
aF2.0
aF2.0
aF2.0
aF2.0
aF2.0
aF2.0
aF2.0
aF2.0
aF2.0
aF2.0
aF2.0
aF2.0
aF2.0
aF2.0
aF2.0
aF2.0
aF2.0
aF2.0
aF2.0
aF2.0
aF2.0
aF2.0
aF2.0
aF2.0
aF2.0
aF2.0
aF2.0
aF2.0
aF2.0
aF2.0
aF2.0
aF2.0
aF2.0
aF2.0
aF2.0
aF2.0
aF2.0
aF2.0
aF2.0
aF2.0
aF2.0
aF2.0
aF2.0
aF2.0
aF2.0
aF2.0
aF2.0
aF2.0
aF2.0
aF2.0
aF2.0
aF2.0
aF2.0
aF2.0
aF2.0
aF2.0
aF2.0
aF2.0
aF2.0
aF2.0
aF2.0
aF2.0
aF2.0
aF2.0
aF2.0
aF2.0
aF2.0
aF2.0
aF2.0
aF2.0
aF2.0
aF2.0
aF2.0
aF2.0
aF2.0
aF2.0
aF2.0
aF2.0
aF2.0
aF2.0
aF2.0
aF2.0
aF2.0
aF2.0
aF2.0
aF2.0
aF2.0
aF2.0
aF2.0
aF2.0
aF2.0
aF2.0
aF2.0
aF2.0
aF2.0
aF2.0
aF2.0
aF2.0
aF2.0
aF2.0
aF2.0
aF2.0
aF2.0
aF2.0
aF2.0
aF2.0
aF2.0
aF2.0
aF2.0
aF2.0
aF2.0
aF2.0
aF2.0
aF2.0
aF2.0
aF2.0
aF2.0
aF2.0
aF2.0
aF2.0
aF2.0
aF2.0
aF2.0
aF2.0
aF2.0
aF2.0
aF2.0
aF2.0
aF2.0
aF2.0
aF2.0
aF2.0
aF2.0
aF2.0
aF2.0
aF2.0
aF2.0
aF2.0
aF2.0
aF2.0
aF2.0
aF2.0
aF2.0
aF2.0
aF2.0
aF2.0
aF2.0
aF2.0
aF2.0
aF2.0
aF2.0
aF2.0
aF2.0
aF2.0
aF2.0
aF2.0
aF2.0
aF2.0
aF2.0
aF2.0
aF2.0
aF2.0
aF2.0
aF2.0
aF2.0
aF2.0
aF2.0
aF2.0
aF2.0
aF2.0
aF2.0
aF2.0
aF2.0
aF2.0
aF2.0
aF2.0
aF2.0
aF2.0
aF2.0
aF2.0
aF2.0
aF2.0
aF2.0
aF2.0
aF2.0
aF2.0
aF2.0
aF2.0
aF2.0
aF2.0
aF2.0
aF2.0
aF2.0
aF2.0
aF2.0
aF2.0
aF2.0
aF2.0
aF2.0
aF2.0
aF2.0
aF2.0
aF2.0
aF2.0
aF2.0
aF2.0
aF2.0
aF2.0
aF2.0
aF2.0
aF2.0
aF2.0
aF2.0
aF2.0
aF2.0
aF2.0
aF2.0
aF2.0
aF2.0
aF2.0
aF2.0
aF2.0
aF2.0
aF2.0
aF2.0
aF2.0
aF2.0
aF2.0
aF2.0
aF2.0
aF2.0
aF2.0
aF2.0
aF2.0
aF2.0
aF2.0
aF2.0
aF2.0
aF2.0
aF2.0
aF2.0
aF2.0
aF2.0
aF2.0
aF2.0
aF2.0
aF2.0
aF2.0
aF2.0
aF2.0
aF2.0
aF2.0
aF2.0
aF2.0
aF2.0
aF2.0
aF2.0
aF2.0
aF2.0
aF2.0
aF2.0
aF2.0
aF2.0
aF2.0
aF2.0
aF2.0
aF2.0
aF2.0
aF2.0
aF2.0
aF2.0
aF2.0
aF2.0
aF2.0
aF2.0
aF2.0
aF2.0
aF2.0
aF2.0
aF2.0
aF2.0
aF2.0
aF2.0
aF2.0
aF2.0
aF2.0
aF2.0
aF2.0
aF2.0
aF2.0
aF2.0
aF2.0
aF2.0
aF2.0
aF2.0
aF2.0
aF2.0
aF2.0
aF2.0
aF2.0
aF2.0
aF2.0
aF2.0
aF2.0
aF2.0
aF2.0
aF2.0
aF2.0
aF2.0
aF2.0
aF2.0
aF2.0
aF2.0
aF2.0
aF2.0
aF2.0
aF2.0
aF2.0
aF2.0
aF2.0
aF2.0
aF2.0
aF2.0
aF2.0
aF2.0
aF2.0
aF2.0
aF2.0
aF2.0
aF2.0
aF2.0
aF2.0
aF2.0
aF2.0
aF2.0
aF2.0
aF2.0
aF2.0
aF2.0
aF2.0
aF2.0
aF2.0
aF2.0
aF2.0
aF2.0
aF2.0
aF2.0
aF2.0
aF2.0
aF2.0
aF2.0
aF2.0
aF2.0
aF2.0
aF2.0
aF2.0
aF2.0
aF2.0
aF2.0
aF2.0
aF2.0
aF2.0
aF2.0
aF2.0
aF2.0
aF2.0
aF2.0
aF2.0
aF2.0
aF2.0
aF2.0
aF2.0
aF2.0
aF2.0
aF2.0
aF2.0
aF2.0
aF2.0
aF2.0
aF2.0
aF2.0
aF2.0
aF2.0
aF2.0
aF2.0
aF2.0
aF2.0
aF2.0
aF2.0
aF2.0
aF2.0
aF2.0
aF2.0
aF2.0
aF2.0
aF2.0
aF2.0
aF2.0
aF2.0
aF2.0
aF2.0
aF2.0
aF2.0
aF2.0
aF2.0
aF2.0
aF2.0
aF2.0
aF2.0
aF2.0
aF2.0
aF2.0
aF2.0
aF2.0
aF2.0
aF2.0
aF2.0
aF2.0
aF2.0
aF2.0
aF2.0
aF2.0
aF2.0
aF2.0
aF2.0
aF2.0
aF2.0
aF2.0
aF2.0
aF2.0
aF2.0
aF2.0
aF2.0
aF2.0
aF2.0
aF2.0
aF2.0
aF2.0
aF2.0
aF2.0
aF2.0
aF2.0
aF2.0
aF2.0
aF2.0
aF2.0
aF2.0
aF2.0
aF2.0
aF2.0
aF2.0
aF2.0
aF2.0
aF2.0
aF2.0
aF2.0
aF2.0
aF2.0
aF2.0
aF2.0
aF2.0
aF2.0
aF2.0
aF2.0
aF2.0
aF2.0
aF2.0
aF2.0
aF2.0
aF2.0
aF2.0
aF2.0
aF2.0
aF2.0
aF2.0
aF2.0
aF2.0
aF2.0
aF2.0
aF2.0
aF2.0
aF2.0
aF2.0
aF2.0
aF2.0
aF2.0
aF2.0
aF2.0
aF2.0
aF2.0
aF2.0
aF2.0
aF2.0
aF2.0
aF2.0
aF2.0
aF2.0
aF2.0
aF2.0
aF2.0
aF2.0
aF2.0
aF2.0
aF2.0
aF2.0
aF2.0
aF2.0
aF2.0
aF2.0
aF2.0
aF2.0
aF2.0
aF2.0
aF2.0
aF2.0
aF2.0
aF2.0
aF2.0
aF2.0
aF2.0
aF2.0
aF2.0
aF2.0
aF2.0
aF2.0
aF2.0
aF2.0
aF2.0
aF2.0
aF2.0
aF2.0
aF2.0
aF2.0
aF2.0
aF2.0
aF2.0
aF2.0
aF2.0
aF2.0
aF2.0
aF2.0
aF2.0
aF2.0
aF2.0
aF2.0
aF28.0
aF5.0
aF2.0
aF16.0
aF16.0
aF5.0
aF2.0
aF5.0
aF2.0
aF5.0
aF2.0
aF32.0
aF28.0
aF31.0
aF31.0
aF31.0
aF31.0
aF31.0
aF31.0
aF31.0
aF31.0
aF31.0
aF31.0
aF31.0
aF31.0
aF31.0
aF31.0
aF31.0
aF31.0
aF31.0
aF31.0
aF31.0
aF31.0
aF31.0
aF31.0
aF31.0
aF31.0
aF31.0
aF31.0
aF31.0
aF31.0
aF31.0
aF31.0
aF31.0
aF31.0
aF31.0
aF31.0
aF31.0
aF31.0
aF31.0
aF31.0
aF31.0
aF31.0
aF31.0
aF31.0
aF31.0
aF31.0
aF31.0
aF31.0
aF31.0
aF31.0
aF31.0
aF31.0
aF31.0
aF31.0
aF31.0
aF31.0
aF31.0
aF31.0
aF31.0
aF31.0
aF31.0
aF31.0
aF31.0
aF31.0
aF31.0
aF31.0
aF31.0
aF31.0
aF31.0
aF31.0
aF31.0
aF31.0
aF31.0
aF31.0
aF31.0
aF31.0
aF31.0
aF31.0
aF31.0
aF31.0
aF31.0
aF31.0
aF31.0
aF31.0
aF31.0
aF31.0
aF31.0
aF31.0
aF31.0
aF31.0
aF31.0
aF31.0
aF31.0
aF31.0
aF31.0
aF31.0
aF31.0
aF31.0
aF31.0
aF31.0
aF31.0
aF31.0
aF31.0
aF31.0
aF31.0
aF31.0
aF31.0
aF31.0
aF31.0
aF31.0
aF31.0
aF31.0
aF31.0
aF31.0
aF31.0
aF31.0
aF31.0
aF31.0
aF31.0
aF31.0
aF31.0
aF31.0
aF31.0
aF31.0
aF31.0
aF31.0
aF31.0
aF31.0
aF31.0
aF31.0
aF31.0
aF31.0
aF31.0
aF31.0
aF31.0
aF31.0
aF31.0
aF31.0
aF31.0
aF31.0
aF31.0
aF31.0
aF31.0
aF31.0
aF31.0
aF31.0
aF31.0
aF31.0
aF31.0
aF31.0
aF31.0
aF31.0
aF31.0
aF31.0
aF31.0
aF31.0
aF31.0
aF31.0
aF31.0
aF31.0
aF31.0
aF31.0
aF31.0
aF31.0
aF31.0
aF31.0
aF31.0
aF31.0
aF31.0
aF31.0
aF31.0
aF31.0
aF31.0
aF31.0
aF31.0
aF31.0
aF31.0
aF31.0
aF31.0
aF31.0
aF31.0
aF31.0
aF31.0
aF31.0
aF31.0
aF31.0
aF31.0
aF31.0
aF31.0
aF31.0
aF31.0
aF31.0
aF31.0
aF31.0
aF31.0
aF31.0
aF31.0
aF31.0
aF31.0
aF31.0
aF31.0
aF31.0
aF31.0
aF31.0
aF31.0
aF31.0
aF31.0
aF31.0
aF31.0
aF31.0
aF31.0
aF31.0
aF31.0
aF31.0
aF31.0
aF31.0
aF31.0
aF31.0
aF31.0
aF31.0
aF31.0
aF31.0
aF31.0
aF31.0
aF31.0
aF31.0
aF31.0
aF31.0
aF31.0
aF31.0
aF31.0
aF31.0
aF31.0
aF31.0
aF31.0
aF31.0
aF31.0
aF31.0
aF31.0
aF31.0
aF31.0
aF31.0
aF31.0
aF31.0
aF31.0
aF31.0
aF31.0
aF31.0
aF31.0
aF31.0
aF31.0
aF31.0
aF31.0
aF31.0
aF31.0
aF31.0
aF31.0
aF31.0
aF31.0
aF31.0
aF31.0
aF31.0
aF31.0
aF31.0
aF31.0
aF31.0
aF31.0
aF31.0
aF31.0
aF31.0
aF31.0
aF31.0
aF31.0
aF31.0
aF31.0
aF31.0
aF31.0
aF31.0
aF31.0
aF31.0
aF31.0
aF31.0
aF31.0
aF31.0
aF31.0
aF31.0
aF31.0
aF31.0
aF31.0
aF31.0
aF31.0
aF31.0
aF31.0
aF31.0
aF31.0
aF31.0
aF31.0
aF31.0
aF31.0
aF31.0
aF31.0
aF31.0
aF31.0
aF31.0
aF31.0
aF31.0
aF31.0
aF31.0
aF31.0
aF31.0
aF31.0
aF31.0
aF31.0
aF31.0
aF31.0
aF31.0
aF31.0
aF31.0
aF31.0
aF31.0
aF31.0
aF31.0
aF31.0
aF31.0
aF31.0
aF31.0
aF31.0
aF31.0
aF31.0
aF31.0
aF31.0
aF31.0
aF31.0
aF31.0
aF31.0
aF31.0
aF31.0
aF31.0
aF31.0
aF31.0
aF31.0
aF31.0
aF33.0
aF28.0
aF10.0
aF10.0
aF10.0
aF10.0
aF10.0
aF10.0
aF10.0
aF10.0
aF10.0
aF10.0
aF10.0
aF10.0
aF10.0
aF10.0
aF10.0
aF10.0
aF10.0
aF10.0
aF10.0
aF10.0
aF10.0
aF10.0
aF10.0
aF10.0
aF10.0
aF10.0
aF10.0
aF10.0
aF10.0
aF10.0
aF10.0
aF10.0
aF10.0
aF10.0
aF10.0
aF10.0
aF10.0
aF10.0
aF10.0
aF10.0
aF10.0
aF10.0
aF10.0
aF10.0
aF10.0
aF10.0
aF10.0
aF10.0
aF10.0
aF10.0
aF10.0
aF10.0
aF10.0
aF10.0
aF10.0
aF10.0
aF10.0
aF10.0
aF10.0
aF10.0
aF10.0
aF10.0
aF10.0
aF10.0
aF10.0
aF10.0
aF10.0
aF10.0
aF10.0
aF10.0
aF10.0
aF10.0
aF10.0
aF10.0
aF10.0
aF10.0
aF10.0
aF10.0
aF10.0
aF10.0
aF10.0
aF10.0
aF10.0
aF10.0
aF10.0
aF10.0
aF10.0
aF10.0
aF10.0
aF10.0
aF10.0
aF10.0
aF10.0
aF10.0
aF10.0
aF10.0
aF10.0
aF10.0
aF10.0
aF10.0
aF10.0
aF10.0
aF10.0
aF10.0
aF10.0
aF28.0
aF2.0
aF2.0
aF8.0
aF2.0
aF8.0
aF8.0
aF2.0
aF28.0
aF8.0
aF8.0
aF8.0
aF8.0
aF8.0
aF8.0
aF8.0
aF8.0
aF8.0
aF8.0
aF8.0
aF8.0
aF8.0
aF8.0
aF8.0
aF8.0
aF8.0
aF8.0
aF8.0
aF8.0
aF8.0
aF8.0
aF8.0
aF8.0
aF8.0
aF8.0
aF8.0
aF8.0
aF8.0
aF8.0
aF8.0
aF8.0
aF8.0
aF8.0
aF8.0
aF8.0
aF8.0
aF8.0
aF8.0
aF8.0
aF8.0
aF8.0
aF8.0
aF8.0
aF8.0
aF8.0
aF8.0
aF8.0
aF8.0
aF8.0
aF8.0
aF8.0
aF8.0
aF8.0
aF8.0
aF8.0
aF8.0
aF8.0
aF8.0
aF8.0
aF8.0
aF8.0
aF8.0
aF8.0
aF8.0
aF8.0
aF8.0
aF8.0
aF8.0
aF8.0
aF8.0
aF8.0
aF8.0
aF8.0
aF8.0
aF8.0
aF8.0
aF8.0
aF8.0
aF8.0
aF8.0
aF8.0
aF8.0
aF8.0
aF8.0
aF8.0
aF8.0
aF8.0
aF8.0
aF8.0
aF8.0
aF8.0
aF8.0
aF8.0
aF8.0
aF8.0
aF8.0
aF8.0
aF8.0
aF8.0
aF8.0
aF8.0
aF8.0
aF8.0
atp3
Rp4
.