carray
array
p0
(S'd'
p1
(lp2
F0.23333333333333334
aF0.525
aF1.1805555555555556
aF1.8305555555555555
aF2.4694444444444446
aF3.091666666666667
aF3.7111111111111112
aF4.313888888888889
aF4.925
aF5.552777777777778
aF6.211111111111111
aF6.877777777777778
aF7.513888888888889
aF8.15
aF8.78888888888889
aF9.41388888888889
aF10.05
aF10.677777777777777
aF11.277777777777779
aF11.922222222222222
aF12.577777777777778
aF13.241666666666667
aF13.91388888888889
aF14.572222222222223
aF15.219444444444445
aF15.83611111111111
aF16.46388888888889
aF17.069444444444443
aF17.708333333333332
aF18.38888888888889
aF19.066666666666666
aF19.73611111111111
aF20.38888888888889
aF21.02777777777778
aF21.67222222222222
aF22.330555555555556
aF22.947222222222223
aF23.58888888888889
aF24.238888888888887
aF24.905555555555555
aF25.56388888888889
aF26.194444444444443
aF26.85
aF27.51388888888889
aF28.158333333333335
aF28.81388888888889
aF29.441666666666666
aF30.119444444444444
aF30.830555555555556
aF31.533333333333335
aF32.205555555555556
aF32.858333333333334
aF33.516666666666666
aF34.172222222222224
aF34.8
aF35.43611111111111
aF36.125
aF36.794444444444444
aF37.46388888888889
aF38.108333333333334
aF38.75555555555555
aF39.40555555555556
aF40.03333333333333
aF40.66111111111111
aF41.24444444444445
aF41.875
aF42.544444444444444
aF43.2
aF43.833333333333336
aF44.49444444444445
aF45.12777777777778
aF45.75555555555555
aF46.361111111111114
aF46.97222222222222
aF47.625
aF48.27777777777778
aF48.93611111111111
aF49.575
aF50.208333333333336
aF50.83888888888889
aF51.45
aF52.077777777777776
aF52.702777777777776
aF53.18888888888889
aF53.9
aF54.55277777777778
aF55.202777777777776
aF55.852777777777774
aF56.483333333333334
aF57.105555555555554
aF57.72222222222222
aF58.32222222222222
aF58.919444444444444
aF59.53333333333333
aF60.18333333333333
aF60.86388888888889
aF61.55
aF62.18888888888889
aF62.825
aF63.43888888888889
aF64.06666666666666
aF64.69722222222222
aF65.28333333333333
aF65.91666666666667
aF66.55
aF67.1361111111111
aF67.825
aF68.44722222222222
aF69.08611111111111
aF69.71111111111111
aF70.31388888888888
aF70.82222222222222
aF71.4888888888889
aF72.13333333333334
aF72.79722222222222
aF73.45277777777778
aF74.08611111111111
aF74.69722222222222
aF75.32222222222222
aF75.93888888888888
aF76.53611111111111
aF77.11666666666666
aF77.73611111111111
aF78.38333333333334
aF79.03055555555555
aF79.66111111111111
aF80.28333333333333
aF80.91944444444445
aF81.54722222222222
aF82.15
aF82.73333333333333
aF83.33055555555555
aF83.95277777777778
aF84.60277777777777
aF85.25277777777778
aF85.89444444444445
aF86.53888888888889
aF87.175
aF87.80833333333334
aF88.42777777777778
aF89.04722222222222
aF89.72222222222223
aF90.40277777777777
aF91.07777777777778
aF91.74444444444444
aF92.38888888888889
aF93.03611111111111
aF93.66666666666667
aF94.22222222222223
aF94.91666666666667
aF95.525
aF96.16944444444445
aF96.82222222222222
aF97.49166666666666
aF98.14444444444445
aF98.77222222222223
aF99.39444444444445
aF100.00277777777778
aF100.47222222222223
aF101.13055555555556
aF101.78055555555555
aF102.43611111111112
aF103.1
aF103.725
aF104.36666666666666
aF104.98333333333333
aF105.6
aF106.23055555555555
aF106.83611111111111
aF107.43055555555556
aF108.04722222222222
aF108.69166666666666
aF109.34444444444445
aF109.96111111111111
aF110.58611111111111
aF111.21944444444445
aF111.82777777777778
aF112.43611111111112
aF113.0111111111111
aF113.63055555555556
aF114.28333333333333
aF114.93611111111112
aF115.58333333333333
aF116.20277777777778
aF116.825
aF117.43333333333334
aF117.91944444444445
aF118.6361111111111
aF119.25277777777778
aF119.91944444444445
aF120.59722222222223
aF121.22777777777777
aF121.90833333333333
aF122.56111111111112
aF123.21388888888889
aF123.83611111111111
aF124.45277777777778
aF125.03888888888889
aF125.66111111111111
aF126.29722222222222
aF126.95
aF127.6
aF128.23611111111111
aF128.8527777777778
aF129.4638888888889
aF130.075
aF130.69444444444446
aF131.30277777777778
aF131.9388888888889
aF132.60555555555555
aF133.24444444444444
aF133.88333333333333
aF134.51944444444445
aF135.15555555555557
aF135.7861111111111
aF136.41666666666666
aF137.01111111111112
aF137.64444444444445
aF138.28055555555557
aF138.9361111111111
aF139.60555555555555
aF140.23888888888888
aF140.875
aF141.48888888888888
aF142.11388888888888
aF142.73611111111111
aF143.325
aF143.98611111111111
aF144.66666666666666
aF145.32777777777778
aF145.98055555555555
aF146.60833333333332
aF147.23888888888888
aF147.86388888888888
aF148.36111111111111
aF149.02777777777777
aF149.63888888888889
aF150.26111111111112
aF150.51111111111112
aF150.88888888888889
aF151.51944444444445
aF152.14444444444445
aF152.77777777777777
aF153.4111111111111
aF154.01944444444445
aF154.63055555555556
aF155.2111111111111
aF155.85
aF156.1611111111111
aF156.51666666666668
aF157.15833333333333
aF157.625
aF158.29166666666666
aF158.92777777777778
aF159.54166666666666
aF160.14166666666668
aF160.73055555555555
aF161.3527777777778
aF161.99166666666667
aF162.63888888888889
aF163.28333333333333
aF163.91944444444445
aF164.54722222222222
aF165.1861111111111
aF165.80277777777778
aF166.4138888888889
aF167.0
aF167.62222222222223
aF168.27777777777777
aF168.9361111111111
aF169.59722222222223
aF170.25
aF170.875
aF171.49722222222223
aF172.11666666666667
aF172.75555555555556
aF173.39444444444445
aF174.0611111111111
aF174.74166666666667
aF175.4111111111111
aF176.06666666666666
aF176.7277777777778
aF177.38888888888889
aF178.04444444444445
aF178.69444444444446
aF179.3
aF179.95
aF180.60555555555555
aF181.26666666666668
aF181.94166666666666
aF182.57777777777778
aF183.20833333333334
aF183.81666666666666
aF184.43333333333334
aF185.0361111111111
aF185.66666666666666
aF186.33333333333334
aF187.01111111111112
aF187.65
aF188.28055555555557
aF188.91666666666666
aF189.55555555555554
aF190.19166666666666
aF190.80555555555554
aF191.4111111111111
aF192.04166666666666
aF192.6861111111111
aF193.2111111111111
aF193.93333333333334
aF194.56944444444446
aF195.2138888888889
aF195.82222222222222
aF196.42222222222222
aF197.0
aF197.63055555555556
aF198.3111111111111
aF198.98611111111111
aF199.65555555555557
aF200.2888888888889
aF200.9388888888889
aF201.58055555555555
aF202.2
aF202.8361111111111
aF203.4611111111111
aF204.10555555555555
aF204.76944444444445
aF205.4138888888889
aF206.05833333333334
aF206.70277777777778
aF207.3361111111111
aF207.97222222222223
aF208.57777777777778
aF209.1611111111111
aF209.80833333333334
aF210.4638888888889
aF211.13055555555556
aF211.80555555555554
aF212.44722222222222
aF213.1
aF213.71666666666667
aF214.34166666666667
aF214.9777777777778
aF215.5888888888889
aF216.24166666666667
aF216.88333333333333
aF217.5361111111111
aF218.18333333333334
aF218.80277777777778
aF219.425
aF220.04166666666666
aF220.62777777777777
aF221.20277777777778
aF221.8
aF222.43055555555554
aF223.06944444444446
aF223.69722222222222
aF224.29722222222222
aF224.8972222222222
aF225.48611111111111
aF226.075
aF226.67222222222222
aF227.24444444444444
aF227.86111111111111
aF228.51388888888889
aF229.14444444444445
aF229.7722222222222
aF230.36666666666667
aF230.97222222222223
aF231.58055555555555
aF232.17222222222222
aF232.75833333333333
aF233.3111111111111
aF233.925
aF234.55833333333334
aF235.175
aF235.80833333333334
aF236.42222222222222
aF237.04166666666666
aF237.63055555555556
aF238.1888888888889
aF238.80555555555554
aF239.39444444444445
aF240.0361111111111
aF240.675
aF241.31944444444446
aF241.92222222222222
aF242.525
aF243.13888888888889
aF243.73333333333332
aF244.3388888888889
aF244.94444444444446
aF245.5361111111111
aF246.1611111111111
aF246.7861111111111
aF247.4138888888889
aF248.05
aF248.43333333333334
aF248.66944444444445
aF249.26666666666668
aF249.86111111111111
aF250.45
aF251.01388888888889
aF251.6027777777778
aF252.20277777777778
aF252.82777777777778
aF253.44166666666666
aF254.03055555555557
aF254.61111111111111
aF255.1861111111111
aF255.75833333333333
aF256.3277777777778
aF256.90833333333336
aF257.4527777777778
aF258.0388888888889
aF258.4583333333333
aF259.125
aF259.72777777777776
aF260.2916666666667
aF260.5138888888889
aF260.8722222222222
aF261.43888888888887
aF262.0138888888889
aF262.56944444444446
aF263.10277777777776
aF263.65555555555557
aF264.1333333333333
aF264.80833333333334
aF265.4138888888889
aF265.98055555555555
aF266.5472222222222
aF267.0027777777778
aF267.6222222222222
aF268.1666666666667
aF268.7027777777778
aF269.2361111111111
aF269.7972222222222
aF270.3861111111111
aF270.9555555555556
aF271.53333333333336
aF272.0805555555556
aF272.63055555555553
aF273.19166666666666
aF273.75555555555553
aF274.2944444444444
aF274.8333333333333
aF275.3361111111111
aF275.9
aF276.475
aF277.0472222222222
aF277.6138888888889
aF278.1722222222222
aF278.7416666666667
aF279.28333333333336
aF279.8277777777778
aF280.35277777777776
aF280.88055555555553
aF281.40555555555557
aF281.97222222222223
aF282.53055555555557
aF283.09722222222223
aF283.64444444444445
aF284.18888888888887
aF284.72222222222223
aF285.26944444444445
aF285.7916666666667
aF286.3277777777778
aF286.85833333333335
aF287.375
aF287.9194444444444
aF288.4555555555556
aF289.02777777777777
aF289.59722222222223
aF290.15833333333336
aF290.71666666666664
aF291.2583333333333
aF291.7916666666667
aF292.31388888888887
aF292.84722222222223
aF293.3638888888889
aF293.90833333333336
aF294.475
aF295.0444444444444
aF295.625
aF296.1611111111111
aF296.7083333333333
aF297.2416666666667
aF297.77222222222224
aF298.1694444444444
aF298.7388888888889
aF299.26944444444445
aF299.8388888888889
aF300.39444444444445
aF300.95
aF301.4916666666667
aF302.05833333333334
aF302.59166666666664
aF303.14166666666665
aF303.6722222222222
aF304.2055555555556
aF304.72777777777776
aF305.225
aF305.6138888888889
aF306.1972222222222
aF306.7888888888889
aF307.38055555555553
aF307.925
aF308.4583333333333
aF308.9888888888889
aF309.52222222222224
aF310.0527777777778
aF310.575
aF311.0833333333333
aF311.625
aF312.19444444444446
aF312.6138888888889
aF313.19166666666666
aF313.7611111111111
aF314.3027777777778
aF314.85277777777776
aF315.40277777777777
aF315.93333333333334
aF316.46944444444443
aF316.97777777777776
aF317.49444444444447
aF318.0416666666667
aF318.6111111111111
aF319.1694444444444
aF319.7416666666667
aF320.2916666666667
aF320.85277777777776
aF321.4
aF321.94444444444446
aF322.47222222222223
aF323.0027777777778
aF323.56666666666666
aF324.14444444444445
aF324.72777777777776
aF325.3
aF325.88055555555553
aF326.43611111111113
aF327.00555555555553
aF327.55833333333334
aF328.02777777777777
aF328.6722222222222
aF329.2111111111111
aF329.775
aF330.35277777777776
aF330.93888888888887
aF331.53055555555557
aF332.125
aF332.69444444444446
aF333.26666666666665
aF333.8
aF334.34444444444443
aF334.90277777777777
aF335.44166666666666
aF336.025
aF336.60277777777776
aF337.2
aF337.76944444444445
aF338.3222222222222
aF338.8666666666667
aF339.4111111111111
aF339.5861111111111
aF339.81111111111113
aF340.46944444444443
aF341.0027777777778
aF341.5388888888889
aF342.0833333333333
aF342.6694444444444
aF343.24444444444447
aF343.80833333333334
aF344.3666666666667
aF344.80555555555554
aF345.4583333333333
aF346.0027777777778
aF346.5444444444444
aF347.06111111111113
aF347.4611111111111
aF348.06388888888887
aF348.6611111111111
aF349.23055555555555
aF349.8
aF350.2138888888889
aF350.7888888888889
aF351.34722222222223
aF351.89722222222224
aF352.425
aF352.9638888888889
aF353.5
aF354.075
aF354.64166666666665
aF355.125
aF355.74444444444447
aF356.3
aF356.8638888888889
aF357.4166666666667
aF357.7916666666667
aF358.425
aF358.9555555555556
aF359.46944444444443
aF360.03333333333336
aF360.59444444444443
aF361.18333333333334
aF361.7638888888889
aF362.325
aF362.7611111111111
aF363.3888888888889
aF363.9277777777778
aF364.4611111111111
aF364.9916666666667
aF365.5416666666667
aF366.10277777777776
aF366.68333333333334
aF367.23055555555555
aF367.7944444444444
aF368.3333333333333
aF368.88055555555553
aF369.325
aF369.9472222222222
aF370.4972222222222
aF371.01944444444445
aF371.56111111111113
aF372.11944444444447
aF372.69444444444446
aF373.27777777777777
aF373.8305555555556
aF374.40833333333336
aF374.975
aF375.5083333333333
aF376.05
aF376.4916666666667
aF377.0888888888889
aF377.64444444444445
aF378.22222222222223
aF378.80555555555554
aF379.3777777777778
aF379.94444444444446
aF380.4916666666667
aF381.03055555555557
aF381.5722222222222
aF382.1277777777778
aF382.6611111111111
aF383.0722222222222
aF383.69166666666666
aF384.2527777777778
aF384.81944444444446
aF385.3888888888889
aF385.8
aF386.39444444444445
aF386.9611111111111
aF387.52222222222224
aF388.0527777777778
aF388.5833333333333
aF389.0805555555556
aF389.61944444444447
aF390.1638888888889
aF390.7583333333333
aF391.31111111111113
aF391.875
aF392.39444444444445
aF392.85555555555555
aF393.4527777777778
aF393.9916666666667
aF394.52777777777777
aF394.7944444444444
aF395.0472222222222
aF395.48055555555555
aF396.1333333333333
aF396.72222222222223
aF397.2888888888889
aF397.85
aF398.4111111111111
aF398.99444444444447
aF399.5416666666667
aF400.0527777777778
aF400.625
aF401.15
aF401.7083333333333
aF402.2888888888889
aF402.8638888888889
aF403.4555555555556
aF404.0444444444444
aF404.60555555555555
aF405.1666666666667
aF405.71944444444443
aF406.27777777777777
aF406.84444444444443
aF407.40555555555557
aF407.9972222222222
aF408.6222222222222
aF409.21944444444443
aF409.825
aF410.425
aF411.01666666666665
aF411.4527777777778
aF412.1666666666667
aF412.77777777777777
aF413.34444444444443
aF413.9472222222222
aF414.55
aF415.1777777777778
aF415.81111111111113
aF416.40277777777777
aF417.00555555555553
aF417.4583333333333
aF418.1333333333333
aF418.725
aF419.27777777777777
aF419.89444444444445
aF420.51944444444445
aF421.15833333333336
aF421.4555555555556
aF421.5805555555556
aF421.95
aF422.31666666666666
aF422.68055555555554
aF423.05833333333334
aF423.43055555555554
aF423.8027777777778
aF424.175
aF424.5416666666667
aF424.90833333333336
aF425.26944444444445
aF425.6361111111111
aF426.025
aF426.4166666666667
aF426.81111111111113
aF427.2138888888889
aF427.59444444444443
aF427.97777777777776
aF428.34722222222223
aF428.7416666666667
aF428.9583333333333
aF429.56666666666666
aF430.14444444444445
aF430.7055555555556
aF431.25
aF431.85
aF432.48333333333335
aF432.925
aF433.2888888888889
aF433.89166666666665
aF434.5027777777778
aF435.10555555555555
aF435.7027777777778
aF436.31388888888887
aF436.925
aF437.5361111111111
aF438.1694444444444
aF438.8361111111111
aF439.50555555555553
aF440.1611111111111
aF440.81944444444446
aF441.4527777777778
aF442.0138888888889
aF442.68888888888887
aF443.28055555555557
aF443.93055555555554
aF444.59166666666664
aF445.2527777777778
aF445.9222222222222
aF446.5416666666667
aF447.1666666666667
aF447.7888888888889
aF448.4222222222222
aF449.0472222222222
aF449.6722222222222
aF450.3277777777778
aF450.9583333333333
aF451.65277777777777
aF452.3
aF452.9527777777778
aF453.60833333333335
aF454.2611111111111
aF454.8861111111111
aF455.5
aF456.15
aF456.8388888888889
aF457.53333333333336
aF458.19444444444446
aF458.84444444444443
aF459.4861111111111
aF460.11944444444447
aF460.75
aF461.3666666666667
aF462.02777777777777
aF462.7111111111111
aF463.3777777777778
aF464.02222222222224
aF464.6611111111111
aF465.3222222222222
aF465.85
aF466.6
aF467.2111111111111
aF467.8777777777778
aF468.5472222222222
aF469.2083333333333
aF469.88055555555553
aF470.52222222222224
aF471.15555555555557
aF471.80555555555554
aF472.43333333333334
aF473.0416666666667
aF473.6972222222222
aF474.39166666666665
aF475.075
aF475.71944444444443
aF476.35555555555555
aF477.0083333333333
aF477.6333333333333
aF478.2638888888889
aF478.9
aF479.5111111111111
aF480.1694444444444
aF480.8277777777778
aF481.5
aF482.1611111111111
aF482.81111111111113
aF483.2888888888889
aF484.01944444444445
aF484.6722222222222
aF485.275
aF485.9138888888889
aF486.5805555555556
aF487.2416666666667
aF487.89722222222224
aF488.5361111111111
aF489.1638888888889
aF489.6722222222222
aF490.40277777777777
aF491.0388888888889
aF491.6638888888889
aF492.2916666666667
aF492.9583333333333
aF493.6138888888889
aF494.24444444444447
aF494.8861111111111
aF495.51944444444445
aF496.1638888888889
aF496.7916666666667
aF497.39444444444445
aF498.0527777777778
aF498.7388888888889
aF499.4222222222222
aF500.0805555555556
aF500.7138888888889
aF501.34166666666664
aF501.9555555555556
aF502.4888888888889
aF503.15555555555557
aF503.7888888888889
aF504.43888888888887
aF505.0722222222222
aF505.7055555555556
aF506.3305555555556
aF506.9861111111111
aF507.4555555555556
aF507.84722222222223
aF508.4166666666667
aF509.1666666666667
aF509.8333333333333
aF510.5027777777778
aF511.15277777777777
aF511.81111111111113
aF512.4416666666667
aF513.0666666666667
aF513.6861111111111
aF514.2888888888889
aF514.8916666666667
aF515.4305555555555
aF516.1416666666667
aF516.8055555555555
aF517.4527777777778
aF518.0916666666667
aF518.6583333333333
aF519.3611111111111
aF520.0027777777777
aF520.6388888888889
aF521.2611111111111
aF521.7583333333333
aF522.5444444444445
aF523.2027777777778
aF523.875
aF524.525
aF525.1583333333333
aF525.7777777777778
aF526.4
aF527.0166666666667
aF527.6277777777777
aF528.2833333333333
aF528.9527777777778
aF529.6222222222223
aF530.25
aF530.8805555555556
aF531.5083333333333
aF532.1388888888889
aF532.7861111111112
aF533.4083333333333
aF534.0666666666667
aF534.7305555555556
aF535.3972222222222
aF536.0638888888889
aF536.7166666666667
aF537.3666666666667
aF538.0138888888889
aF538.6472222222222
aF539.2444444444444
aF539.8833333333333
aF540.5694444444445
aF541.2472222222223
aF541.8972222222222
aF542.5416666666666
aF543.1833333333333
aF543.7583333333333
aF544.4194444444445
aF545.0444444444445
aF545.6666666666666
aF546.3222222222222
aF546.9833333333333
aF547.6388888888889
aF548.2694444444444
aF548.9138888888889
aF549.5611111111111
aF550.1861111111111
aF550.8027777777778
aF551.3972222222222
aF552.0444444444445
aF552.6444444444444
aF553.3833333333333
aF554.0555555555555
aF554.7194444444444
aF555.3666666666667
aF555.6722222222222
aF555.7805555555556
aF556.1388888888889
aF556.5277777777778
aF556.9611111111111
aF557.5111111111111
aF557.9805555555556
aF558.3722222222223
aF558.775
aF559.1638888888889
aF559.5555555555555
aF559.95
aF560.3194444444445
aF560.7083333333334
aF561.075
aF561.4583333333334
aF561.8388888888888
aF562.2138888888888
aF562.6
aF562.9777777777778
aF563.3305555555555
aF563.7111111111111
aF564.0888888888888
aF564.4694444444444
aF564.8611111111111
aF565.2555555555556
aF565.6472222222222
aF566.05
aF566.4277777777778
aF566.8138888888889
aF567.1944444444445
aF567.5555555555555
aF567.9222222222222
aF568.2861111111112
aF568.6416666666667
aF569.0027777777777
aF569.3388888888888
aF569.7138888888888
aF570.0972222222222
aF570.4861111111111
aF570.8861111111111
aF571.275
aF571.6583333333333
aF572.0444444444445
aF572.4111111111112
aF572.7777777777778
aF573.15
aF573.5222222222222
aF573.8944444444444
aF574.2638888888889
aF574.625
aF574.9861111111111
aF575.3416666666667
aF575.7111111111111
aF576.0972222222222
aF576.4888888888889
aF576.8722222222223
aF577.2666666666667
aF577.6361111111111
aF578.0166666666667
aF578.3944444444444
aF578.7722222222222
aF579.1583333333333
aF579.5277777777778
aF579.8972222222222
aF580.2666666666667
aF580.6416666666667
aF580.9972222222223
aF581.3472222222222
aF581.7222222222222
aF582.1138888888889
aF582.5138888888889
aF582.9
aF583.3055555555555
aF583.8333333333334
aF584.2972222222222
aF584.4416666666667
aF585.0333333333333
aF585.6416666666667
aF586.225
aF586.8361111111111
aF587.4555555555555
aF588.1166666666667
aF588.8
aF589.4833333333333
aF590.1722222222222
aF590.8666666666667
aF591.525
aF592.1833333333333
aF592.8138888888889
aF593.4138888888889
aF593.8944444444444
aF594.6777777777778
aF595.3555555555556
aF596.0194444444444
aF596.6388888888889
aF597.2666666666667
aF597.875
aF598.4861111111111
aF599.0972222222222
aF599.425
aF599.5277777777778
aF599.9
aF600.2944444444445
aF600.6777777777778
aF601.0527777777778
aF601.4416666666667
aF601.8277777777778
aF602.2111111111111
aF602.5944444444444
aF602.9777777777778
aF603.3666666666667
aF603.7472222222223
aF604.1277777777777
aF604.5166666666667
aF604.8888888888889
aF605.25
aF605.6333333333333
aF606.0194444444444
aF606.4083333333333
aF606.8
aF607.1777777777778
aF607.5722222222222
aF607.9527777777778
aF608.3194444444445
aF608.7083333333334
aF609.0805555555555
aF609.4583333333334
aF609.8277777777778
aF610.1888888888889
aF610.5583333333333
aF610.9166666666666
aF611.2527777777777
aF611.6277777777777
aF612.0083333333333
aF612.3944444444444
aF612.7944444444445
aF613.1777777777778
aF613.5638888888889
aF613.9555555555555
aF614.3138888888889
aF614.6722222222222
aF615.0361111111112
aF615.4027777777778
aF615.775
aF616.1444444444444
aF616.5027777777777
aF616.8638888888889
aF617.2027777777778
aF617.5583333333333
aF617.9527777777778
aF618.325
aF618.7083333333334
aF619.1055555555556
aF619.4805555555556
aF619.8666666666667
aF620.25
aF620.6333333333333
aF621.0277777777778
aF621.5166666666667
aF621.8194444444445
aF622.0611111111111
aF622.6027777777778
aF623.1222222222223
aF623.6777777777778
aF624.2861111111112
aF624.9194444444445
aF625.5972222222222
aF626.2611111111111
aF626.9444444444445
aF627.65
aF628.3361111111111
aF629.0166666666667
aF629.7027777777778
aF630.3972222222222
aF631.0944444444444
aF631.7805555555556
aF632.4583333333334
aF633.1194444444444
aF633.75
aF634.3611111111111
aF634.9888888888889
aF635.5944444444444
aF636.2361111111111
aF636.8972222222222
aF637.3805555555556
aF638.1583333333333
aF638.7888888888889
aF639.4083333333333
aF640.0138888888889
aF640.6222222222223
aF641.2194444444444
aF641.8472222222222
aF642.4972222222223
aF643.125
aF643.7527777777777
aF644.3861111111111
aF644.9944444444444
aF645.6194444444444
aF646.1277777777777
aF646.8222222222222
aF647.4166666666666
aF648.0333333333333
aF648.6805555555555
aF649.2777777777778
aF649.975
aF650.5888888888888
aF651.1972222222222
aF651.8
aF652.2694444444444
aF652.9472222222222
aF653.5611111111111
aF654.2222222222222
aF654.8916666666667
aF655.5388888888889
aF656.1722222222222
aF656.7888888888889
aF657.4166666666666
aF658.0388888888889
aF658.6444444444444
aF659.2361111111111
aF659.8555555555556
aF660.5055555555556
aF661.1027777777778
aF661.7972222222222
aF662.4277777777778
aF663.075
aF663.6805555555555
aF664.1888888888889
aF664.875
aF665.4805555555556
aF666.1333333333333
aF666.775
aF667.3111111111111
aF668.0277777777778
aF668.6444444444444
aF669.2805555555556
aF669.8944444444444
aF670.5138888888889
aF671.1083333333333
aF671.7
aF672.3277777777778
aF672.9416666666667
aF673.5611111111111
aF674.1805555555555
aF674.7972222222222
aF675.3916666666667
aF675.9833333333333
aF676.575
aF677.1472222222222
aF677.7555555555556
aF678.3805555555556
aF679.0222222222222
aF679.6777777777778
aF680.2972222222222
aF680.9111111111112
aF681.5111111111111
aF682.1277777777777
aF682.7527777777777
aF683.3388888888888
aF683.9694444444444
aF684.5583333333333
aF685.2416666666667
aF685.8833333333333
aF686.4916666666667
aF687.1194444444444
aF687.7388888888889
aF688.3388888888888
aF688.9444444444445
aF689.525
aF690.1583333333333
aF690.8166666666667
aF691.4722222222222
aF692.1111111111111
aF692.7138888888888
aF693.325
aF693.9444444444445
aF694.5416666666666
aF695.1305555555556
aF695.7472222222223
aF696.3972222222222
aF697.0361111111112
aF697.6611111111112
aF698.2777777777778
aF698.9111111111112
aF699.5444444444445
aF700.1444444444444
aF700.7527777777777
aF701.3388888888888
aF701.9361111111111
aF702.6111111111111
aF703.2527777777777
aF703.9055555555556
aF704.5361111111112
aF705.1555555555556
aF705.7694444444444
aF706.3611111111111
aF706.9694444444444
aF707.4638888888888
aF708.1916666666667
aF708.8555555555556
aF709.4805555555556
aF710.1055555555556
aF710.6333333333333
aF711.3138888888889
aF711.9333333333333
aF712.5472222222222
aF713.1416666666667
aF713.6
aF714.3111111111111
aF714.9722222222222
aF715.6361111111111
aF716.2805555555556
aF716.8972222222222
aF717.5222222222222
aF718.125
aF718.7277777777778
aF719.3194444444445
aF719.9472222222222
aF720.6027777777778
aF721.2555555555556
aF721.8916666666667
aF722.5166666666667
aF723.1388888888889
aF723.7611111111111
aF724.4
aF725.0166666666667
aF725.625
aF726.2638888888889
aF726.9277777777778
aF727.5916666666667
aF728.2222222222222
aF728.8583333333333
aF729.5
aF730.125
aF730.6833333333333
aF731.3305555555555
aF731.9833333333333
aF732.6527777777778
aF733.3166666666667
aF733.6416666666667
aF733.7805555555556
aF734.1861111111111
aF734.7277777777778
aF735.2
aF735.5722222222222
aF735.9583333333334
aF736.3222222222222
aF736.6972222222222
aF737.0666666666667
aF737.425
aF737.8194444444445
aF738.2166666666667
aF738.6111111111111
aF739.0138888888889
aF739.4111111111112
aF739.8
aF740.1861111111111
aF740.5722222222222
aF740.9638888888888
aF741.3638888888889
aF741.7361111111111
aF742.1055555555556
aF742.4777777777778
aF742.8416666666667
aF743.1861111111111
aF743.5555555555555
aF743.9361111111111
aF744.3222222222222
aF744.7
aF745.0805555555555
aF745.475
aF745.8555555555556
aF746.2333333333333
aF746.6111111111111
aF746.975
aF747.3416666666667
aF747.7055555555555
aF748.0611111111111
aF748.4222222222222
aF748.7722222222222
aF749.1194444444444
aF749.3277777777778
aF749.9166666666666
aF750.5027777777777
aF751.075
aF751.6333333333333
aF752.1888888888889
aF752.4305555555555
aF752.7472222222223
aF753.2916666666666
aF753.8472222222222
aF754.3972222222222
aF754.975
aF755.3222222222222
aF756.075
aF756.7
aF757.3611111111111
aF758.025
aF758.6444444444444
aF759.2722222222222
aF759.8666666666667
aF760.4694444444444
aF761.0694444444445
aF761.6416666666667
aF762.2805555555556
aF762.9166666666666
aF763.5444444444445
aF764.1472222222222
aF764.7388888888889
aF765.3194444444445
aF765.8583333333333
aF766.4888888888889
aF767.0638888888889
aF767.6277777777777
aF768.2027777777778
aF768.7972222222222
aF769.4055555555556
aF769.9972222222223
aF770.5777777777778
aF771.1583333333333
aF771.7472222222223
aF772.3055555555555
aF772.8638888888889
aF773.4
aF773.9944444444444
aF774.6194444444444
aF775.2194444444444
aF775.6444444444444
aF776.3333333333334
aF776.925
aF777.5
aF778.0861111111111
aF778.5333333333333
aF779.1722222222222
aF779.7944444444445
aF780.4472222222222
aF780.6527777777778
aF781.1166666666667
aF781.7694444444444
aF782.4138888888889
aF783.0833333333334
aF783.6833333333333
aF784.3444444444444
aF784.9666666666667
aF785.575
aF786.2277777777778
aF786.8722222222223
aF787.5194444444444
aF788.1694444444445
aF788.8027777777778
aF789.4333333333333
aF790.0416666666666
aF790.6666666666666
aF791.275
aF791.7055555555555
aF792.2944444444445
aF792.6027777777778
aF792.7777777777778
aF793.1861111111111
aF793.5916666666667
aF793.9861111111111
aF794.3666666666667
aF794.7527777777777
aF795.1361111111111
aF795.5305555555556
aF795.9027777777778
aF796.2777777777778
aF796.65
aF797.0055555555556
aF797.3555555555556
aF797.7277777777778
aF798.1027777777778
aF798.4944444444444
aF798.8861111111111
aF799.2888888888889
aF799.7027777777778
aF800.0944444444444
aF800.4638888888888
aF800.8472222222222
aF801.1944444444445
aF801.5472222222222
aF801.9111111111112
aF802.3111111111111
aF802.4972222222223
aF803.1666666666666
aF803.7583333333333
aF804.3638888888889
aF804.9805555555556
aF805.5527777777778
aF806.1638888888889
aF806.7444444444444
aF807.35
aF807.975
aF808.2722222222222
aF808.45
aF809.175
aF809.4361111111111
aF809.7916666666666
aF810.45
aF810.6694444444445
aF811.1083333333333
aF811.3222222222222
aF811.7444444444444
aF812.3833333333333
aF813.025
aF813.6444444444444
aF814.2277777777778
aF814.8694444444444
aF815.475
aF816.1305555555556
aF816.7888888888889
aF817.2833333333333
aF818.0416666666666
aF818.6861111111111
aF819.3194444444445
aF819.9166666666666
aF820.5388888888889
aF821.1361111111111
aF821.7694444444444
aF822.4055555555556
aF822.8166666666667
aF823.0416666666666
aF823.6805555555555
aF824.3194444444445
aF824.95
aF825.5611111111111
aF826.1777777777778
aF826.7944444444445
aF827.3833333333333
aF828.025
aF828.6861111111111
aF829.3555555555556
aF830.0194444444444
aF830.6444444444444
aF831.2833333333333
aF831.8972222222222
aF832.525
aF833.1527777777778
aF833.7861111111112
aF834.4472222222222
aF835.1055555555556
aF835.7694444444444
aF836.4138888888889
aF837.0583333333333
aF837.6944444444445
aF838.275
aF838.9611111111111
aF839.5777777777778
aF840.2416666666667
aF840.9305555555555
aF841.6111111111111
aF842.2638888888889
aF842.9083333333333
aF843.55
aF844.1305555555556
aF844.8527777777778
aF845.4861111111111
aF846.1416666666667
aF846.8111111111111
aF847.4527777777778
aF847.6555555555556
aF848.0888888888888
aF848.6944444444445
aF849.3305555555555
aF849.975
aF850.5916666666667
aF851.1861111111111
aF851.8111111111111
aF852.4527777777778
aF853.0666666666667
aF853.7416666666667
aF854.3805555555556
aF855.0277777777778
aF855.6416666666667
aF856.1277777777777
aF856.8277777777778
aF857.4305555555555
aF858.075
aF858.7222222222222
aF859.3638888888889
aF859.9805555555556
aF860.3083333333333
aF860.5833333333334
aF861.2027777777778
aF861.8055555555555
aF862.2277777777778
aF862.7944444444445
aF863.1138888888889
aF863.2388888888889
aF863.6166666666667
aF864.0
aF864.3916666666667
aF864.775
aF865.1527777777778
aF865.5388888888889
aF865.9361111111111
aF866.325
aF866.7194444444444
aF867.0916666666667
aF867.4805555555556
aF867.8611111111111
aF868.2277777777778
aF868.7583333333333
aF869.3194444444445
aF869.4527777777778
aF870.0666666666667
aF870.6972222222222
aF871.3166666666667
aF871.9305555555555
aF872.5
aF873.0861111111111
aF873.6583333333333
aF874.2361111111111
aF874.825
aF875.3888888888889
aF876.0
aF876.6138888888889
aF876.8444444444444
aF877.2444444444444
aF877.8611111111111
aF878.4666666666667
aF879.0777777777778
aF879.6805555555555
aF880.2888888888889
aF880.8305555555555
aF881.4361111111111
aF882.0361111111112
aF882.6722222222222
aF883.2916666666666
aF883.9527777777778
aF884.5722222222222
aF885.1777777777778
aF885.7888888888889
aF886.3527777777778
aF886.9944444444444
aF887.5972222222222
aF888.2361111111111
aF888.8694444444444
aF889.3638888888889
aF890.0916666666667
aF890.7055555555555
aF891.3305555555555
aF891.8416666666667
aF892.5305555555556
aF893.1222222222223
aF893.7083333333334
aF894.3305555555555
aF894.9777777777778
aF895.6083333333333
aF896.2333333333333
aF896.8638888888889
aF897.4666666666667
aF898.0694444444445
aF898.6638888888889
aF899.2527777777777
aF899.8388888888888
aF900.5083333333333
aF901.1555555555556
aF901.7722222222222
aF902.3805555555556
aF902.925
aF903.5722222222222
aF904.1805555555555
aF904.7666666666667
aF905.3333333333334
aF905.9277777777778
aF906.5472222222222
aF907.1527777777778
aF907.7638888888889
aF908.375
aF908.9611111111111
aF909.55
aF910.1138888888889
aF910.6972222222222
aF911.2638888888889
aF911.8555555555556
aF912.4861111111111
aF913.1305555555556
aF913.7694444444444
aF914.3888888888889
aF915.0027777777777
aF915.6083333333333
aF916.2444444444444
aF916.875
aF917.4666666666667
aF918.1111111111111
aF918.6277777777777
aF919.3888888888889
aF920.0527777777778
aF920.7055555555555
aF921.3388888888888
aF921.9666666666667
aF922.5805555555555
aF923.1777777777778
aF923.7944444444445
aF924.2944444444445
aF925.0861111111111
aF925.7416666666667
aF926.3694444444444
aF926.9805555555556
aF927.5972222222222
aF928.2138888888888
aF928.8111111111111
aF929.4027777777778
aF930.0
aF930.6805555555555
aF931.3166666666667
aF931.95
aF932.5694444444445
aF933.2083333333334
aF933.8333333333334
aF934.4583333333334
aF935.0638888888889
aF935.6666666666666
aF936.3333333333334
aF936.9916666666667
aF937.6527777777778
aF938.2916666666666
aF938.925
aF939.55
aF940.1444444444444
aF940.6277777777777
aF941.3055555555555
aF941.9527777777778
aF942.6083333333333
aF943.25
aF943.8916666666667
aF944.5138888888889
aF945.1361111111111
aF945.7527777777777
aF946.3722222222223
aF946.9888888888889
aF947.5694444444445
aF948.1972222222222
aF948.8444444444444
aF949.5083333333333
aF950.175
aF950.8027777777778
aF951.3972222222222
aF952.0583333333333
aF952.6777777777778
aF953.2861111111112
aF953.9277777777778
aF954.4444444444445
aF955.2666666666667
aF955.9472222222222
aF956.6083333333333
aF957.2472222222223
aF957.9
aF958.5666666666667
aF959.1916666666667
aF959.8333333333334
aF960.4972222222223
aF961.1638888888889
aF961.8222222222222
aF962.3861111111111
aF963.0666666666667
aF963.7055555555555
aF964.3222222222222
aF964.9555555555555
aF965.3666666666667
aF966.1277777777777
aF966.8444444444444
aF967.5166666666667
aF968.0305555555556
aF968.7305555555556
aF969.3805555555556
aF970.0277777777778
aF970.6444444444444
aF971.2472222222223
aF971.9055555555556
aF972.5722222222222
aF973.2583333333333
aF973.9222222222222
aF974.5805555555555
aF975.2583333333333
aF975.8083333333333
aF976.5305555555556
aF977.1527777777778
aF977.7944444444445
aF978.4638888888888
aF979.1361111111111
aF979.8111111111111
aF980.4833333333333
aF981.1333333333333
aF981.7805555555556
aF982.4083333333333
aF983.0333333333333
aF983.6611111111112
aF984.3111111111111
aF984.9722222222222
aF985.6111111111111
aF986.2472222222223
aF986.8777777777777
aF987.4805555555556
aF988.0138888888889
aF988.7083333333334
aF989.3055555555555
aF989.95
aF990.6083333333333
aF991.2916666666666
aF991.9805555555556
aF992.6222222222223
aF993.2833333333333
aF993.9194444444445
aF994.5638888888889
aF995.1944444444445
aF995.8277777777778
aF996.5444444444445
aF997.2527777777777
aF997.9333333333333
aF998.5083333333333
aF999.2333333333333
aF999.9055555555556
aF1000.5805555555555
aF1001.2
aF1001.6916666666667
aF1002.4416666666667
aF1003.1388888888889
aF1003.8027777777778
aF1004.4444444444445
aF1005.0944444444444
aF1005.7333333333333
aF1006.3472222222222
aF1006.9583333333334
aF1007.5611111111111
aF1008.2166666666667
aF1008.8888888888889
aF1009.5388888888889
aF1010.1916666666667
aF1010.8166666666667
aF1011.4416666666667
aF1012.075
aF1012.7083333333334
aF1013.3166666666667
aF1013.975
aF1014.6388888888889
aF1015.3138888888889
aF1015.9833333333333
aF1016.6527777777778
aF1017.3222222222222
aF1017.9638888888888
aF1018.5777777777778
aF1019.1194444444444
aF1019.8083333333333
aF1020.4611111111111
aF1021.1361111111111
aF1021.7972222222222
aF1022.35
aF1023.0555555555555
aF1023.6861111111111
aF1024.3111111111111
aF1024.9444444444443
aF1025.5194444444444
aF1026.1944444444443
aF1026.8527777777779
aF1027.5111111111112
aF1028.1527777777778
aF1028.7805555555556
aF1029.4222222222222
aF1030.0388888888888
aF1030.6583333333333
aF1031.2416666666666
aF1031.8527777777779
aF1032.4833333333333
aF1033.1444444444444
aF1033.8083333333334
aF1034.4361111111111
aF1035.0583333333334
aF1035.6722222222222
aF1036.2805555555556
aF1036.8944444444444
aF1037.4888888888888
aF1038.1333333333334
aF1038.3472222222222
aF1038.7972222222222
aF1039.4333333333334
aF1040.0694444444443
aF1040.675
aF1041.2972222222222
aF1041.9138888888888
aF1042.5083333333334
aF1043.111111111111
aF1043.6805555555557
aF1044.3027777777777
aF1044.9472222222223
aF1045.5833333333333
aF1046.2277777777779
aF1046.8472222222222
aF1047.463888888889
aF1048.0805555555555
aF1048.675
aF1049.2833333333333
aF1049.9277777777777
aF1050.588888888889
aF1051.25
aF1051.8833333333334
aF1052.5111111111112
aF1053.1361111111112
aF1053.7555555555555
aF1054.3805555555555
aF1054.9361111111111
aF1055.588888888889
aF1056.2333333333333
aF1056.8833333333334
aF1057.525
aF1058.1555555555556
aF1058.8083333333334
aF1059.4444444444443
aF1060.0722222222223
aF1060.6777777777777
aF1061.2694444444444
aF1061.9055555555556
aF1062.5527777777777
aF1063.2055555555555
aF1063.861111111111
aF1064.4722222222222
aF1065.088888888889
aF1065.6805555555557
aF1066.2944444444445
aF1066.9138888888888
aF1067.4944444444445
aF1068.1166666666666
aF1068.7444444444445
aF1069.3833333333334
aF1070.0222222222221
aF1070.6305555555555
aF1071.263888888889
aF1071.888888888889
aF1072.3527777777779
aF1073.0222222222221
aF1073.625
aF1074.263888888889
aF1074.925
aF1075.5861111111112
aF1076.2277777777779
aF1076.85
aF1077.4694444444444
aF1078.0805555555555
aF1078.6944444444443
aF1079.2916666666667
aF1079.9277777777777
aF1080.5972222222222
aF1081.25
aF1081.8972222222221
aF1082.5222222222221
aF1083.1583333333333
aF1083.7888888888888
aF1084.3916666666667
aF1085.0
aF1085.5833333333333
aF1086.2055555555555
aF1086.85
aF1087.4833333333333
aF1088.1333333333334
aF1088.763888888889
aF1089.3777777777777
aF1089.9666666666667
aF1090.5861111111112
aF1091.1777777777777
aF1091.8777777777777
aF1092.5583333333334
aF1093.225
aF1093.8555555555556
aF1094.475
aF1095.1194444444445
aF1095.7388888888888
aF1096.3583333333333
aF1096.9722222222222
aF1097.5666666666666
aF1098.125
aF1098.8111111111111
aF1099.4555555555555
aF1100.1
aF1100.7166666666667
aF1101.161111111111
aF1101.575
aF1101.8694444444445
aF1102.4805555555556
aF1103.0722222222223
aF1103.6666666666667
aF1104.2944444444445
aF1104.95
aF1105.6027777777779
aF1106.225
aF1106.8472222222222
aF1107.4527777777778
aF1108.0638888888889
aF1108.6805555555557
aF1109.2666666666667
aF1109.8916666666667
aF1110.5166666666667
aF1111.1694444444445
aF1111.8277777777778
aF1112.4472222222223
aF1113.0916666666667
aF1113.7277777777779
aF1114.3583333333333
aF1114.975
aF1115.5666666666666
aF1116.213888888889
aF1116.888888888889
aF1117.5527777777777
aF1118.2027777777778
aF1118.8194444444443
aF1119.3166666666666
aF1120.036111111111
aF1120.6583333333333
aF1121.263888888889
aF1121.8222222222223
aF1122.536111111111
aF1123.1944444444443
aF1123.8472222222222
aF1124.4805555555556
aF1125.0444444444445
aF1125.7694444444444
aF1126.3944444444444
aF1127.0055555555555
aF1127.6055555555556
aF1128.2472222222223
aF1128.9
aF1129.5472222222222
aF1130.1861111111111
aF1130.7611111111112
aF1131.425
aF1132.0333333333333
aF1132.6416666666667
aF1133.2416666666666
aF1133.875
aF1134.5166666666667
aF1135.175
aF1135.8166666666666
aF1136.4388888888889
aF1137.0805555555555
aF1137.713888888889
aF1138.3444444444444
aF1138.9777777777779
aF1139.5416666666667
aF1140.2277777777779
aF1140.875
aF1141.5388888888888
aF1142.2083333333333
aF1142.8333333333333
aF1143.463888888889
aF1144.0833333333333
aF1144.7027777777778
aF1145.3027777777777
aF1145.9333333333334
aF1146.6027777777779
aF1147.2805555555556
aF1147.9277777777777
aF1148.5583333333334
aF1149.1916666666666
aF1149.8305555555555
aF1150.3138888888889
aF1151.0222222222221
aF1151.6472222222221
aF1152.2805555555556
aF1152.9222222222222
aF1153.5805555555555
aF1154.2222222222222
aF1154.8527777777779
aF1155.4833333333333
aF1156.0916666666667
aF1156.5527777777777
aF1157.2416666666666
aF1157.8833333333334
aF1158.5527777777777
aF1159.2083333333333
aF1159.8555555555556
aF1160.4666666666667
aF1161.1
aF1161.725
aF1162.3305555555555
aF1162.9527777777778
aF1163.575
aF1164.2194444444444
aF1164.8805555555555
aF1165.5388888888888
aF1166.1972222222223
aF1166.8527777777779
aF1167.486111111111
aF1168.125
aF1168.7333333333333
aF1169.3333333333333
aF1169.9777777777779
aF1170.6305555555555
aF1171.3027777777777
aF1171.963888888889
aF1172.5944444444444
aF1173.2333333333333
aF1173.8416666666667
aF1174.4611111111112
aF1174.9277777777777
aF1175.6361111111112
aF1176.2916666666667
aF1176.9388888888889
aF1177.5972222222222
aF1178.2472222222223
aF1178.8722222222223
aF1179.5166666666667
aF1180.111111111111
aF1180.775
aF1181.3722222222223
aF1182.0027777777777
aF1182.4944444444445
aF1183.2527777777777
aF1183.9444444444443
aF1184.5861111111112
aF1185.213888888889
aF1185.8333333333333
aF1186.4472222222223
aF1187.0638888888889
aF1187.6805555555557
aF1188.2888888888888
aF1188.9972222222223
aF1189.6555555555556
aF1190.2972222222222
aF1190.8333333333333
aF1191.5555555555557
aF1192.2027777777778
aF1192.8166666666666
aF1193.4083333333333
aF1194.0416666666667
aF1194.6833333333334
aF1195.3333333333333
aF1195.9833333333333
aF1196.6138888888888
aF1197.2583333333334
aF1197.8666666666666
aF1198.486111111111
aF1199.088888888889
aF1199.6916666666666
aF1200.3527777777779
aF1201.0083333333334
aF1201.6722222222222
aF1202.1555555555556
aF1202.85
aF1203.5055555555555
aF1204.1222222222223
aF1204.75
aF1205.361111111111
aF1206.0
aF1206.6555555555556
aF1207.2916666666667
aF1207.9555555555555
aF1208.6055555555556
aF1209.2388888888888
aF1209.861111111111
aF1210.4333333333334
aF1211.0833333333333
aF1211.6916666666666
aF1212.3333333333333
aF1212.9277777777777
aF1213.6583333333333
aF1214.3055555555557
aF1214.9555555555555
aF1215.5833333333333
aF1216.2111111111112
aF1216.8416666666667
aF1217.45
aF1218.1
aF1218.7444444444445
aF1219.3638888888888
aF1220.0666666666666
aF1220.6916666666666
aF1221.1166666666666
aF1221.338888888889
aF1221.975
aF1222.6138888888888
aF1223.225
aF1223.8416666666667
aF1224.5
aF1225.0166666666667
aF1225.7944444444445
aF1226.4416666666666
aF1227.0694444444443
aF1227.6861111111111
aF1228.2972222222222
aF1228.8972222222221
aF1229.5027777777777
aF1230.1416666666667
aF1230.6361111111112
aF1231.3944444444444
aF1232.0555555555557
aF1232.6777777777777
aF1233.3111111111111
aF1233.95
aF1234.5638888888889
aF1235.1694444444445
aF1235.7583333333334
aF1236.3944444444444
aF1237.0583333333334
aF1237.6972222222223
aF1238.3194444444443
aF1238.975
aF1239.5805555555555
aF1240.1861111111111
aF1240.7777777777778
aF1241.3694444444445
aF1242.013888888889
aF1242.6472222222221
aF1243.3027777777777
aF1243.9333333333334
aF1244.5555555555557
aF1245.1916666666666
aF1245.8027777777777
aF1246.3333333333333
aF1247.0277777777778
aF1247.6222222222223
aF1248.2611111111112
aF1248.7722222222221
aF1248.9027777777778
aF1249.5444444444445
aF1250.1944444444443
aF1250.8222222222223
aF1251.4444444444443
aF1252.0416666666667
aF1252.6472222222221
aF1253.2333333333333
aF1253.8416666666667
aF1254.4833333333333
aF1255.1361111111112
aF1255.7833333333333
aF1256.4083333333333
aF1257.025
aF1257.6361111111112
aF1258.2611111111112
aF1258.8805555555555
aF1259.4666666666667
aF1260.0
aF1260.713888888889
aF1261.3527777777779
aF1261.9972222222223
aF1262.6222222222223
aF1263.2527777777777
aF1263.8777777777777
aF1264.486111111111
aF1265.0944444444444
aF1265.6861111111111
aF1266.3277777777778
aF1266.9972222222223
aF1267.6472222222221
aF1268.2888888888888
aF1268.9027777777778
aF1269.5277777777778
aF1270.138888888889
aF1270.7666666666667
aF1271.361111111111
aF1272.0083333333334
aF1272.6555555555556
aF1273.3027777777777
aF1273.9388888888889
aF1274.575
aF1275.225
aF1275.8333333333333
aF1276.4472222222223
aF1277.0444444444445
aF1277.6305555555555
aF1278.275
aF1278.9083333333333
aF1279.5555555555557
aF1280.1972222222223
aF1280.6277777777777
aF1281.2777777777778
aF1281.8944444444444
aF1282.4888888888888
aF1283.0916666666667
aF1283.6916666666666
aF1284.3166666666666
aF1284.9527777777778
aF1285.5861111111112
aF1286.2194444444444
aF1286.85
aF1287.475
aF1288.1
aF1288.7333333333333
aF1289.325
aF1289.963888888889
aF1290.611111111111
aF1291.2916666666667
aF1291.8361111111112
aF1292.5777777777778
aF1293.2388888888888
aF1293.8583333333333
aF1294.475
aF1295.1027777777779
aF1295.7027777777778
aF1296.3583333333333
aF1297.0305555555556
aF1297.6277777777777
aF1298.3138888888889
aF1298.9305555555557
aF1299.5555555555557
aF1300.1861111111111
aF1300.8
aF1301.4055555555556
aF1302.036111111111
aF1302.7
aF1303.3805555555555
aF1304.0277777777778
aF1304.5166666666667
aF1305.2888888888888
aF1305.925
aF1306.5527777777777
aF1307.161111111111
aF1307.7777777777778
aF1308.4444444444443
aF1309.1027777777779
aF1309.7666666666667
aF1310.388888888889
aF1311.013888888889
aF1311.6527777777778
aF1312.2694444444444
aF1312.9
aF1313.513888888889
aF1314.1666666666667
aF1314.8444444444444
aF1315.4972222222223
aF1316.161111111111
aF1316.8277777777778
aF1317.3777777777777
aF1318.0777777777778
aF1318.7
aF1319.3083333333334
aF1319.9555555555555
aF1320.6027777777779
aF1321.2777777777778
aF1321.9555555555555
aF1322.5916666666667
aF1323.2333333333333
aF1323.8583333333333
aF1324.4833333333333
aF1325.1194444444445
aF1325.7305555555556
aF1326.3583333333333
aF1327.0194444444444
aF1327.6666666666667
aF1328.3138888888889
aF1328.9388888888889
aF1329.4805555555556
aF1330.1861111111111
aF1330.8194444444443
aF1331.4222222222222
aF1331.8972222222221
aF1332.661111111111
aF1333.35
aF1334.0194444444444
aF1334.6444444444444
aF1335.2777777777778
aF1335.9
aF1336.5194444444444
aF1337.1277777777777
aF1337.7388888888888
aF1338.3916666666667
aF1339.05
aF1339.6916666666666
aF1340.325
aF1340.9527777777778
aF1341.5861111111112
aF1342.2166666666667
aF1342.8361111111112
aF1343.4333333333334
aF1344.0638888888889
aF1344.7277777777779
aF1345.3972222222221
aF1346.0638888888889
aF1346.7083333333333
aF1347.3694444444445
aF1348.0111111111112
aF1348.638888888889
aF1349.2333333333333
aF1349.888888888889
aF1350.5666666666666
aF1351.2277777777779
aF1351.8916666666667
aF1352.525
aF1353.1638888888888
aF1353.7916666666667
aF1354.4138888888888
aF1355.0555555555557
aF1355.6777777777777
aF1356.3277777777778
aF1356.9972222222223
aF1357.6638888888888
aF1358.3305555555555
aF1358.9888888888888
aF1359.6333333333334
aF1360.2555555555555
aF1360.8777777777777
aF1361.4833333333333
aF1362.1222222222223
aF1362.7972222222222
aF1363.4666666666667
aF1364.1361111111112
aF1364.7777777777778
aF1365.4055555555556
aF1365.9777777777779
aF1366.6944444444443
aF1367.3138888888889
aF1367.9611111111112
aF1368.6222222222223
aF1369.2888888888888
aF1369.9527777777778
aF1370.5833333333333
aF1371.2444444444445
aF1371.888888888889
aF1372.5027777777777
aF1373.1277777777777
aF1373.7277777777779
aF1374.3777777777777
aF1375.0611111111111
aF1375.7333333333333
aF1376.3805555555555
aF1377.0027777777777
aF1377.6361111111112
aF1378.2777777777778
aF1378.888888888889
aF1379.4916666666666
aF1380.1555555555556
aF1380.8166666666666
aF1381.4694444444444
aF1382.111111111111
aF1382.7416666666666
aF1383.3861111111112
aF1384.0083333333334
aF1384.6277777777777
aF1385.2166666666667
aF1385.8277777777778
aF1386.4777777777779
aF1387.1277777777777
aF1387.7888888888888
aF1388.4388888888889
aF1389.0611111111111
aF1389.6916666666666
aF1390.3027777777777
aF1390.9222222222222
aF1391.5305555555556
aF1392.175
aF1392.8277777777778
aF1393.4694444444444
aF1394.1166666666666
aF1394.7472222222223
aF1395.25
aF1395.9694444444444
aF1396.6
aF1397.2027777777778
aF1397.8083333333334
aF1398.2944444444445
aF1399.0222222222221
aF1399.7055555555555
aF1400.3638888888888
aF1400.9972222222223
aF1401.6277777777777
aF1402.2527777777777
aF1402.8694444444445
aF1403.4666666666667
aF1404.1194444444445
aF1404.7833333333333
aF1405.45
aF1406.111111111111
aF1406.6027777777779
aF1407.3194444444443
aF1407.9777777777779
aF1408.6277777777777
aF1409.2388888888888
aF1409.7166666666667
aF1410.425
aF1411.0972222222222
aF1411.7611111111112
aF1412.2416666666666
aF1412.9583333333333
aF1413.6277777777777
aF1414.2527777777777
aF1414.8694444444445
aF1415.4694444444444
aF1416.125
aF1416.8055555555557
aF1417.463888888889
aF1418.1277777777777
aF1418.7527777777777
aF1419.3722222222223
aF1420.0
aF1420.6222222222223
aF1421.2305555555556
aF1421.8638888888888
aF1422.513888888889
aF1423.1833333333334
aF1423.8277777777778
aF1424.463888888889
aF1425.1083333333333
aF1425.725
aF1426.35
aF1426.9555555555555
aF1427.5527777777777
aF1428.2055555555555
aF1428.861111111111
aF1429.536111111111
aF1430.2083333333333
aF1430.8416666666667
aF1431.475
aF1432.0944444444444
aF1432.7277777777779
aF1433.3472222222222
aF1433.9805555555556
aF1434.6472222222221
aF1435.2972222222222
aF1435.9527777777778
aF1436.5944444444444
aF1437.2194444444444
aF1437.8555555555556
aF1438.4888888888888
aF1439.1083333333333
aF1439.7083333333333
aF1440.3472222222222
aF1441.0166666666667
aF1441.7
aF1442.3583333333333
aF1443.0111111111112
aF1443.638888888889
aF1444.275
aF1444.9138888888888
aF1445.513888888889
aF1446.1166666666666
aF1446.8472222222222
aF1447.5055555555555
aF1448.1638888888888
aF1448.786111111111
aF1449.4222222222222
aF1450.0611111111111
aF1450.6805555555557
aF1451.286111111111
aF1451.9027777777778
aF1452.5444444444445
aF1453.2166666666667
aF1453.8666666666666
aF1454.513888888889
aF1455.1583333333333
aF1455.7833333333333
aF1456.4083333333333
aF1457.0111111111112
aF1457.611111111111
aF1458.2722222222221
aF1458.9305555555557
aF1459.5916666666667
aF1460.225
aF1460.85
aF1461.4777777777779
aF1462.0833333333333
aF1462.7166666666667
aF1463.3138888888889
aF1463.8638888888888
aF1464.575
aF1465.2305555555556
aF1465.8861111111112
aF1466.525
aF1467.1722222222222
aF1467.8
aF1468.411111111111
aF1469.0222222222221
aF1469.6194444444445
aF1470.263888888889
aF1470.9305555555557
aF1471.588888888889
aF1472.2444444444445
aF1472.8666666666666
aF1473.4888888888888
aF1474.1055555555556
aF1474.675
aF1475.3333333333333
aF1475.9666666666667
aF1476.6194444444445
aF1477.2805555555556
aF1477.9305555555557
aF1478.5555555555557
aF1479.2
aF1479.8361111111112
aF1480.4722222222222
aF1481.0833333333333
aF1481.6805555555557
aF1482.3333333333333
aF1483.0111111111112
aF1483.6805555555557
aF1484.3333333333333
aF1484.9583333333333
aF1485.5777777777778
aF1486.1722222222222
aF1486.8
aF1487.3972222222221
aF1488.0277777777778
aF1488.6888888888889
aF1489.338888888889
aF1489.9805555555556
aF1490.5916666666667
aF1491.2277777777779
aF1491.8666666666666
aF1492.4805555555556
aF1493.0972222222222
aF1493.6972222222223
aF1494.3305555555555
aF1494.9888888888888
aF1495.65
aF1496.2972222222222
aF1496.9361111111111
aF1497.5555555555557
aF1498.1805555555557
aF1498.8
aF1499.4083333333333
aF1500.0722222222223
aF1500.7388888888888
aF1501.4055555555556
aF1502.0583333333334
aF1502.6027777777779
aF1503.3194444444443
aF1503.9611111111112
aF1504.5833333333333
aF1505.2111111111112
aF1505.6638888888888
aF1506.4222222222222
aF1507.0972222222222
aF1507.775
aF1508.4333333333334
aF1509.0666666666666
aF1509.6944444444443
aF1510.3138888888889
aF1510.9277777777777
aF1511.5277777777778
aF1512.1805555555557
aF1512.8472222222222
aF1513.5083333333334
aF1514.1527777777778
aF1514.786111111111
aF1515.4222222222222
aF1515.9194444444445
aF1516.6305555555555
aF1517.2583333333334
aF1517.8972222222221
aF1518.5555555555557
aF1519.2222222222222
aF1519.8916666666667
aF1520.5444444444445
aF1521.1972222222223
aF1521.85
aF1522.4833333333333
aF1523.1
aF1523.7027777777778
aF1524.3805555555555
aF1525.0694444444443
aF1525.7333333333333
aF1526.3861111111112
aF1526.9083333333333
aF1527.6444444444444
aF1528.2833333333333
aF1528.9222222222222
aF1529.338888888889
aF1529.9388888888889
aF1530.263888888889
aF1530.4166666666667
aF1530.838888888889
aF1531.2527777777777
aF1531.6638888888888
aF1532.075
aF1532.5027777777777
aF1532.8972222222221
aF1533.1055555555556
aF1533.9138888888888
aF1534.5611111111111
aF1535.1694444444445
aF1535.7694444444444
aF1536.4194444444445
aF1537.0666666666666
aF1537.7111111111112
aF1538.3555555555556
aF1538.9722222222222
aF1539.5916666666667
aF1540.1888888888889
aF1540.8111111111111
aF1541.425
aF1542.0638888888889
aF1542.6055555555556
aF1543.3583333333333
aF1544.0277777777778
aF1544.6777777777777
aF1545.3166666666666
aF1545.9583333333333
aF1546.6027777777779
aF1547.213888888889
aF1547.713888888889
aF1548.4555555555555
aF1549.1305555555555
aF1549.8083333333334
aF1550.4527777777778
aF1551.0916666666667
aF1551.7055555555555
aF1552.3305555555555
aF1552.9166666666667
aF1553.5444444444445
aF1554.2027777777778
aF1554.8833333333334
aF1555.5444444444445
aF1556.0555555555557
aF1556.7777777777778
aF1557.4222222222222
aF1558.0527777777777
aF1558.5944444444444
aF1559.2666666666667
aF1559.8916666666667
aF1560.55
aF1561.225
aF1561.888888888889
aF1562.55
aF1563.2027777777778
aF1563.8444444444444
aF1564.4916666666666
aF1565.111111111111
aF1565.7305555555556
aF1566.4166666666667
aF1567.0916666666667
aF1567.763888888889
aF1568.3972222222221
aF1569.036111111111
aF1569.6861111111111
aF1570.1861111111111
aF1570.9083333333333
aF1571.5333333333333
aF1572.1777777777777
aF1572.6472222222221
aF1573.3805555555555
aF1574.0611111111111
aF1574.7083333333333
aF1575.35
aF1575.9833333333333
aF1576.6
aF1577.213888888889
aF1577.8277777777778
aF1578.4333333333334
aF1579.15
aF1579.8138888888889
aF1580.463888888889
aF1581.1083333333333
aF1581.7305555555556
aF1582.35
aF1582.9944444444445
aF1583.6083333333333
aF1584.2583333333334
aF1584.9083333333333
aF1585.5694444444443
aF1586.2305555555556
aF1586.8555555555556
aF1587.5083333333334
aF1588.1555555555556
aF1588.7777777777778
aF1589.3694444444445
aF1590.0
aF1590.6555555555556
aF1591.2833333333333
aF1591.9805555555556
aF1592.6138888888888
aF1593.236111111111
aF1593.8583333333333
aF1594.4833333333333
aF1595.1
aF1595.713888888889
aF1596.3666666666666
aF1596.8694444444445
aF1597.6527777777778
aF1598.3138888888889
aF1598.95
aF1599.6
aF1599.9194444444445
aF1600.236111111111
aF1600.861111111111
aF1601.4472222222223
aF1602.0944444444444
aF1602.6472222222221
aF1603.3722222222223
aF1604.0277777777778
aF1604.6555555555556
aF1605.1138888888888
aF1605.7388888888888
aF1606.3527777777779
aF1606.9444444444443
aF1607.525
aF1608.1583333333333
aF1608.7888888888888
aF1609.4333333333334
aF1610.0611111111111
aF1610.6583333333333
aF1611.275
aF1611.8722222222223
aF1612.4722222222222
aF1613.0722222222223
aF1613.6472222222221
aF1614.2722222222221
aF1614.8944444444444
aF1615.4611111111112
aF1615.6916666666666
aF1616.161111111111
aF1616.786111111111
aF1617.3972222222221
aF1617.986111111111
aF1618.4777777777779
aF1619.15
aF1619.736111111111
aF1620.375
aF1621.0222222222221
aF1621.6583333333333
aF1622.2805555555556
aF1622.8833333333334
aF1623.486111111111
aF1624.088888888889
aF1624.6944444444443
aF1625.2694444444444
aF1625.875
aF1626.4944444444445
aF1627.125
aF1627.7722222222221
aF1628.388888888889
aF1629.0166666666667
aF1629.6361111111112
aF1630.1861111111111
aF1630.838888888889
aF1631.411111111111
aF1632.0416666666667
aF1632.7027777777778
aF1633.275
aF1633.9916666666666
aF1634.611111111111
aF1635.2388888888888
aF1635.8527777777779
aF1636.4472222222223
aF1637.0555555555557
aF1637.6527777777778
aF1638.2833333333333
aF1638.9138888888888
aF1639.5444444444445
aF1640.1722222222222
aF1640.7833333333333
aF1641.3416666666667
aF1642.0055555555555
aF1642.6138888888888
aF1643.2027777777778
aF1643.7805555555556
aF1644.3666666666666
aF1645.0416666666667
aF1645.6833333333334
aF1646.3166666666666
aF1646.9166666666667
aF1647.5222222222221
aF1648.1055555555556
aF1648.7027777777778
aF1649.2944444444445
aF1649.9027777777778
aF1650.5388888888888
aF1651.1666666666667
aF1651.8194444444443
aF1652.4416666666666
aF1653.0555555555557
aF1653.6722222222222
aF1653.9805555555556
aF1654.2666666666667
aF1654.8694444444445
aF1655.4166666666667
aF1656.0111111111112
aF1656.611111111111
aF1657.2277777777779
aF1657.8472222222222
aF1658.4388888888889
aF1659.0333333333333
aF1659.6027777777779
aF1660.1694444444445
aF1660.7416666666666
aF1661.2888888888888
aF1661.4694444444444
aF1661.8722222222223
aF1662.463888888889
aF1662.9888888888888
aF1663.661111111111
aF1664.2666666666667
aF1664.8333333333333
aF1665.4138888888888
aF1666.0
aF1666.5777777777778
aF1667.1583333333333
aF1667.7194444444444
aF1668.3333333333333
aF1668.9555555555555
aF1669.5861111111112
aF1670.213888888889
aF1670.6527777777778
aF1671.3361111111112
aF1671.95
aF1672.5555555555557
aF1673.138888888889
aF1673.713888888889
aF1674.3333333333333
aF1674.975
aF1675.6027777777779
aF1676.1361111111112
aF1676.7833333333333
aF1677.3861111111112
aF1677.9805555555556
aF1678.411111111111
aF1679.0972222222222
aF1679.6972222222223
aF1680.3055555555557
aF1680.9416666666666
aF1681.55
aF1682.1805555555557
aF1682.8055555555557
aF1683.3166666666666
aF1684.0027777777777
aF1684.6
aF1685.2083333333333
aF1685.7972222222222
aF1686.4194444444445
aF1687.075
aF1687.713888888889
aF1688.3416666666667
aF1688.9416666666666
aF1689.5444444444445
aF1690.1333333333334
aF1690.5444444444445
aF1690.7305555555556
aF1691.286111111111
aF1691.911111111111
aF1692.5305555555556
aF1693.1361111111112
aF1693.6361111111112
aF1694.3277777777778
aF1694.9388888888889
aF1695.5555555555557
aF1696.1722222222222
aF1696.7888888888888
aF1697.375
aF1697.8472222222222
aF1697.9777777777779
aF1698.611111111111
aF1699.1361111111112
aF1699.8805555555555
aF1700.5
aF1701.1083333333333
aF1701.7027777777778
aF1702.2888888888888
aF1702.8833333333334
aF1703.4416666666666
aF1704.0305555555556
aF1704.675
aF1705.2888888888888
aF1705.9083333333333
aF1706.5027777777777
aF1706.975
aF1707.65
aF1708.2666666666667
aF1708.8722222222223
aF1709.4388888888889
aF1710.0472222222222
aF1710.675
aF1711.3083333333334
aF1711.9555555555555
aF1712.5777777777778
aF1713.2194444444444
aF1713.8305555555555
aF1714.2583333333334
aF1714.8361111111112
aF1715.1527777777778
aF1715.2888888888888
aF1715.6861111111111
aF1716.1027777777779
aF1716.5305555555556
aF1716.8555555555556
aF1717.1222222222223
aF1717.463888888889
aF1717.6361111111112
aF1718.0611111111111
aF1718.475
aF1719.0583333333334
aF1719.5444444444445
aF1719.9388888888889
aF1720.338888888889
aF1720.7388888888888
aF1721.1333333333334
aF1721.5
aF1721.9
aF1722.325
aF1722.7472222222223
aF1723.0694444444443
aF1723.3277777777778
aF1724.1444444444444
aF1724.7944444444445
aF1725.4166666666667
aF1725.9611111111112
aF1726.5722222222223
aF1727.161111111111
aF1727.7416666666666
aF1728.2166666666667
aF1728.9333333333334
aF1729.6194444444445
aF1730.2583333333334
aF1730.8833333333334
aF1731.5055555555555
aF1732.1416666666667
aF1732.7833333333333
aF1733.3333333333333
aF1734.0111111111112
aF1734.6722222222222
aF1735.338888888889
aF1736.0055555555555
aF1736.661111111111
aF1737.3166666666666
aF1737.9666666666667
aF1738.5944444444444
aF1739.2222222222222
aF1739.8444444444444
aF1740.5277777777778
aF1741.2305555555556
aF1741.763888888889
aF1742.5416666666667
aF1743.2166666666667
aF1743.888888888889
aF1744.5333333333333
aF1745.1861111111111
aF1745.8305555555555
aF1746.5
aF1747.0416666666667
aF1747.825
aF1748.5
aF1749.1777777777777
aF1749.8305555555555
aF1750.4888888888888
aF1751.125
aF1751.7527777777777
aF1752.425
aF1753.125
aF1753.8111111111111
aF1754.4777777777779
aF1754.9416666666666
aF1755.2694444444444
aF1755.5083333333334
aF1755.975
aF1756.3666666666666
aF1756.7611111111112
aF1757.1583333333333
aF1757.5555555555557
aF1757.9694444444444
aF1758.1583333333333
aF1759.0194444444444
aF1759.6944444444443
aF1760.3527777777779
aF1760.9972222222223
aF1761.6416666666667
aF1762.2833333333333
aF1762.8333333333333
aF1763.5166666666667
aF1764.1694444444445
aF1764.8444444444444
aF1765.5333333333333
aF1766.2111111111112
aF1766.8527777777779
aF1767.5027777777777
aF1768.1
aF1768.75
aF1769.3583333333333
aF1770.013888888889
aF1770.6833333333334
aF1771.3527777777779
aF1772.013888888889
aF1772.6583333333333
aF1773.3083333333334
aF1773.9527777777778
aF1774.5972222222222
aF1775.236111111111
aF1775.85
aF1776.3694444444445
aF1777.1527777777778
aF1777.838888888889
aF1778.5027777777777
aF1779.1638888888888
aF1779.8138888888889
aF1780.4555555555555
aF1781.0916666666667
aF1781.7222222222222
aF1782.4138888888888
aF1783.1083333333333
aF1783.8111111111111
aF1784.475
aF1785.05
aF1785.7722222222221
aF1786.4083333333333
aF1787.0527777777777
aF1787.6888888888889
aF1788.3416666666667
aF1789.0166666666667
aF1789.6583333333333
aF1790.2055555555555
aF1790.9444444444443
aF1791.5805555555555
aF1792.2083333333333
aF1792.6527777777778
aF1793.3416666666667
aF1794.0
aF1794.6527777777778
aF1795.3333333333333
aF1796.0111111111112
aF1796.6527777777778
aF1797.3166666666666
aF1797.9583333333333
aF1798.4527777777778
aF1799.213888888889
aF1799.8527777777779
aF1800.5388888888888
aF1801.2083333333333
aF1801.8694444444445
aF1802.5333333333333
aF1803.1916666666666
aF1803.8527777777779
aF1804.5194444444444
aF1805.1583333333333
atp3
Rp4
.