carray
array
p0
(S'd'
p1
(lp2
F28.0
aF1.0
aF1.0
aF1.0
aF5.0
aF1.0
aF1.0
aF1.0
aF1.0
aF1.0
aF1.0
aF1.0
aF1.0
aF1.0
aF1.0
aF1.0
aF1.0
aF1.0
aF5.0
aF1.0
aF1.0
aF1.0
aF1.0
aF1.0
aF1.0
aF1.0
aF1.0
aF1.0
aF1.0
aF5.0
aF1.0
aF1.0
aF1.0
aF1.0
aF1.0
aF1.0
aF6.0
aF1.0
aF1.0
aF1.0
aF1.0
aF1.0
aF1.0
aF1.0
aF1.0
aF1.0
aF1.0
aF1.0
aF5.0
aF1.0
aF1.0
aF1.0
aF1.0
aF1.0
aF5.0
aF1.0
aF1.0
aF1.0
aF1.0
aF1.0
aF1.0
aF1.0
aF1.0
aF1.0
aF1.0
aF1.0
aF1.0
aF1.0
aF1.0
aF1.0
aF1.0
aF1.0
aF1.0
aF5.0
aF1.0
aF1.0
aF1.0
aF1.0
aF1.0
aF1.0
aF1.0
aF1.0
aF5.0
aF1.0
aF1.0
aF1.0
aF1.0
aF1.0
aF1.0
aF1.0
aF1.0
aF1.0
aF1.0
aF1.0
aF1.0
aF1.0
aF1.0
aF1.0
aF1.0
aF1.0
aF1.0
aF1.0
aF1.0
aF1.0
aF1.0
aF1.0
aF1.0
aF1.0
aF1.0
aF5.0
aF1.0
aF1.0
aF1.0
aF1.0
aF1.0
aF1.0
aF1.0
aF1.0
aF1.0
aF1.0
aF1.0
aF1.0
aF1.0
aF1.0
aF1.0
aF1.0
aF1.0
aF1.0
aF1.0
aF1.0
aF1.0
aF1.0
aF1.0
aF1.0
aF1.0
aF1.0
aF1.0
aF1.0
aF1.0
aF1.0
aF1.0
aF1.0
aF1.0
aF1.0
aF1.0
aF1.0
aF1.0
aF1.0
aF5.0
aF5.0
aF1.0
aF1.0
aF1.0
aF1.0
aF1.0
aF1.0
aF1.0
aF1.0
aF1.0
aF1.0
aF1.0
aF1.0
aF1.0
aF1.0
aF1.0
aF1.0
aF1.0
aF1.0
aF1.0
aF1.0
aF1.0
aF1.0
aF1.0
aF1.0
aF1.0
aF1.0
aF1.0
aF1.0
aF1.0
aF1.0
aF1.0
aF1.0
aF1.0
aF1.0
aF1.0
aF1.0
aF1.0
aF5.0
aF5.0
aF1.0
aF5.0
aF1.0
aF5.0
aF1.0
aF1.0
aF5.0
aF1.0
aF5.0
aF1.0
aF1.0
aF5.0
aF1.0
aF1.0
aF5.0
aF5.0
aF1.0
aF1.0
aF1.0
aF1.0
aF5.0
aF1.0
aF1.0
aF1.0
aF1.0
aF1.0
aF1.0
aF1.0
aF1.0
aF1.0
aF1.0
aF1.0
aF1.0
aF1.0
aF1.0
aF1.0
aF1.0
aF1.0
aF1.0
aF1.0
aF1.0
aF1.0
aF1.0
aF1.0
aF1.0
aF1.0
aF1.0
aF1.0
aF1.0
aF1.0
aF1.0
aF1.0
aF1.0
aF1.0
aF1.0
aF1.0
aF1.0
aF1.0
aF1.0
aF1.0
aF1.0
aF1.0
aF1.0
aF1.0
aF1.0
aF1.0
aF1.0
aF1.0
aF1.0
aF1.0
aF1.0
aF1.0
aF1.0
aF1.0
aF1.0
aF1.0
aF1.0
aF1.0
aF1.0
aF1.0
aF1.0
aF1.0
aF1.0
aF1.0
aF1.0
aF1.0
aF1.0
aF1.0
aF1.0
aF1.0
aF1.0
aF14.0
aF1.0
aF1.0
aF1.0
aF1.0
aF1.0
aF1.0
aF1.0
aF1.0
aF1.0
aF1.0
aF1.0
aF1.0
aF1.0
aF1.0
aF1.0
aF14.0
aF1.0
aF1.0
aF1.0
aF5.0
aF5.0
aF1.0
aF1.0
aF1.0
aF1.0
aF1.0
aF1.0
aF1.0
aF1.0
aF1.0
aF5.0
aF1.0
aF1.0
aF1.0
aF1.0
aF4.0
aF1.0
aF1.0
aF1.0
aF1.0
aF1.0
aF1.0
aF1.0
aF1.0
aF1.0
aF1.0
aF1.0
aF1.0
aF1.0
aF1.0
aF1.0
aF1.0
aF1.0
aF1.0
aF1.0
aF1.0
aF5.0
aF1.0
aF14.0
aF1.0
aF1.0
aF1.0
aF1.0
aF1.0
aF14.0
aF1.0
aF1.0
aF1.0
aF1.0
aF1.0
aF1.0
aF1.0
aF5.0
aF1.0
aF1.0
aF1.0
aF1.0
aF1.0
aF1.0
aF1.0
aF1.0
aF1.0
aF1.0
aF5.0
aF1.0
aF1.0
aF1.0
aF1.0
aF1.0
aF14.0
aF1.0
aF1.0
aF1.0
aF1.0
aF1.0
aF1.0
aF1.0
aF1.0
aF1.0
aF1.0
aF1.0
aF1.0
aF1.0
aF1.0
aF1.0
aF1.0
aF1.0
aF5.0
aF1.0
aF1.0
aF1.0
aF5.0
aF1.0
aF1.0
aF1.0
aF1.0
aF1.0
aF1.0
aF1.0
aF1.0
aF1.0
aF1.0
aF1.0
aF1.0
aF4.0
aF1.0
aF1.0
aF1.0
aF1.0
aF1.0
aF1.0
aF1.0
aF1.0
aF1.0
aF1.0
aF1.0
aF1.0
aF1.0
aF1.0
aF1.0
aF5.0
aF1.0
aF1.0
aF1.0
aF1.0
aF1.0
aF1.0
aF1.0
aF1.0
aF1.0
aF1.0
aF1.0
aF1.0
aF1.0
aF1.0
aF1.0
aF1.0
aF1.0
aF1.0
aF1.0
aF1.0
aF1.0
aF1.0
aF1.0
aF5.0
aF1.0
aF1.0
aF1.0
aF1.0
aF1.0
aF1.0
aF1.0
aF5.0
aF1.0
aF1.0
aF1.0
aF1.0
aF1.0
aF1.0
aF1.0
aF1.0
aF1.0
aF1.0
aF1.0
aF1.0
aF1.0
aF1.0
aF1.0
aF1.0
aF1.0
aF1.0
aF1.0
aF1.0
aF1.0
aF1.0
aF1.0
aF1.0
aF1.0
aF1.0
aF1.0
aF1.0
aF1.0
aF1.0
aF1.0
aF5.0
aF1.0
aF1.0
aF1.0
aF1.0
aF1.0
aF1.0
aF1.0
aF1.0
aF1.0
aF1.0
aF1.0
aF1.0
aF1.0
aF1.0
aF5.0
aF1.0
aF1.0
aF1.0
aF1.0
aF1.0
aF1.0
aF1.0
aF1.0
aF1.0
aF1.0
aF1.0
aF1.0
aF1.0
aF1.0
aF1.0
aF1.0
aF1.0
aF1.0
aF1.0
aF1.0
aF1.0
aF1.0
aF1.0
aF1.0
aF1.0
aF1.0
aF1.0
aF1.0
aF1.0
aF1.0
aF1.0
aF1.0
aF1.0
aF1.0
aF1.0
aF1.0
aF5.0
aF1.0
aF1.0
aF1.0
aF1.0
aF1.0
aF1.0
aF1.0
aF1.0
aF1.0
aF1.0
aF1.0
aF1.0
aF1.0
aF1.0
aF1.0
aF1.0
aF1.0
aF1.0
aF1.0
aF1.0
aF1.0
aF1.0
aF1.0
aF1.0
aF1.0
aF1.0
aF1.0
aF1.0
aF1.0
aF1.0
aF1.0
aF1.0
aF1.0
aF1.0
aF1.0
aF1.0
aF1.0
aF1.0
aF1.0
aF1.0
aF1.0
aF1.0
aF1.0
aF1.0
aF1.0
aF1.0
aF1.0
aF1.0
aF1.0
aF1.0
aF1.0
aF1.0
aF1.0
aF1.0
aF1.0
aF1.0
aF1.0
aF1.0
aF1.0
aF1.0
aF1.0
aF1.0
aF1.0
aF1.0
aF1.0
aF1.0
aF1.0
aF1.0
aF1.0
aF1.0
aF1.0
aF1.0
aF1.0
aF1.0
aF1.0
aF1.0
aF1.0
aF1.0
aF1.0
aF1.0
aF1.0
aF1.0
aF1.0
aF1.0
aF1.0
aF1.0
aF1.0
aF1.0
aF28.0
aF5.0
aF5.0
aF5.0
aF5.0
aF5.0
aF5.0
aF28.0
aF1.0
aF5.0
aF1.0
aF1.0
aF1.0
aF1.0
aF1.0
aF1.0
aF1.0
aF1.0
aF1.0
aF1.0
aF1.0
aF1.0
aF1.0
aF1.0
aF1.0
aF1.0
aF1.0
aF1.0
aF1.0
aF1.0
aF1.0
aF1.0
aF1.0
aF1.0
aF1.0
aF1.0
aF1.0
aF1.0
aF1.0
aF1.0
aF1.0
aF1.0
aF1.0
aF1.0
aF1.0
aF1.0
aF1.0
aF1.0
aF1.0
aF5.0
aF1.0
aF1.0
aF1.0
aF1.0
aF5.0
aF1.0
aF1.0
aF1.0
aF1.0
aF1.0
aF1.0
aF1.0
aF1.0
aF1.0
aF1.0
aF1.0
aF1.0
aF1.0
aF1.0
aF1.0
aF1.0
aF1.0
aF1.0
aF1.0
aF1.0
aF1.0
aF1.0
aF1.0
aF1.0
aF5.0
aF1.0
aF5.0
aF1.0
aF1.0
aF1.0
aF1.0
aF1.0
aF1.0
aF1.0
aF1.0
aF1.0
aF1.0
aF1.0
aF1.0
aF1.0
aF1.0
aF1.0
aF1.0
aF1.0
aF1.0
aF1.0
aF1.0
aF1.0
aF1.0
aF1.0
aF5.0
aF1.0
aF1.0
aF1.0
aF1.0
aF1.0
aF1.0
aF1.0
aF1.0
aF1.0
aF1.0
aF1.0
aF4.0
aF1.0
aF1.0
aF1.0
aF1.0
aF1.0
aF1.0
aF1.0
aF1.0
aF1.0
aF1.0
aF1.0
aF1.0
aF1.0
aF1.0
aF1.0
aF1.0
aF1.0
aF1.0
aF1.0
aF1.0
aF1.0
aF5.0
aF1.0
aF5.0
aF1.0
aF1.0
aF1.0
aF1.0
aF1.0
aF1.0
aF1.0
aF1.0
aF1.0
aF1.0
aF1.0
aF1.0
aF1.0
aF1.0
aF1.0
aF1.0
aF1.0
aF1.0
aF1.0
aF1.0
aF1.0
aF1.0
aF1.0
aF1.0
aF1.0
aF1.0
aF1.0
aF1.0
aF1.0
aF1.0
aF1.0
aF1.0
aF1.0
aF5.0
aF1.0
aF6.0
aF1.0
aF1.0
aF1.0
aF1.0
aF1.0
aF1.0
aF1.0
aF1.0
aF1.0
aF1.0
aF1.0
aF1.0
aF6.0
aF1.0
aF1.0
aF5.0
aF1.0
aF1.0
aF1.0
aF1.0
aF1.0
aF1.0
aF1.0
aF1.0
aF1.0
aF1.0
aF5.0
aF1.0
aF1.0
aF1.0
aF1.0
aF5.0
aF1.0
aF1.0
aF1.0
aF1.0
aF1.0
aF1.0
aF1.0
aF1.0
aF1.0
aF1.0
aF1.0
aF1.0
aF1.0
aF1.0
aF1.0
aF1.0
aF1.0
aF1.0
aF1.0
aF1.0
aF1.0
aF1.0
aF1.0
aF1.0
aF1.0
aF1.0
aF1.0
aF1.0
aF1.0
aF1.0
aF1.0
aF1.0
aF1.0
aF1.0
aF1.0
aF1.0
aF1.0
aF1.0
aF1.0
aF1.0
aF1.0
aF1.0
aF1.0
aF1.0
aF1.0
aF1.0
aF1.0
aF1.0
aF1.0
aF1.0
aF1.0
aF1.0
aF1.0
aF1.0
aF28.0
aF5.0
aF1.0
aF1.0
aF5.0
aF1.0
aF1.0
aF5.0
aF1.0
aF1.0
aF5.0
aF5.0
aF28.0
aF1.0
aF1.0
aF1.0
aF1.0
aF5.0
aF1.0
aF1.0
aF1.0
aF1.0
aF1.0
aF1.0
aF1.0
aF1.0
aF1.0
aF1.0
aF1.0
aF1.0
aF1.0
aF4.0
aF5.0
aF1.0
aF1.0
aF1.0
aF1.0
aF1.0
aF1.0
aF1.0
aF1.0
aF1.0
aF1.0
aF1.0
aF1.0
aF1.0
aF1.0
aF1.0
aF1.0
aF1.0
aF1.0
aF1.0
aF1.0
aF1.0
aF1.0
aF1.0
aF1.0
aF1.0
aF1.0
aF1.0
aF1.0
aF1.0
aF1.0
aF1.0
aF1.0
aF1.0
aF1.0
aF5.0
aF1.0
aF1.0
aF1.0
aF1.0
aF1.0
aF1.0
aF1.0
aF1.0
aF1.0
aF1.0
aF1.0
aF1.0
aF1.0
aF1.0
aF1.0
aF1.0
aF1.0
aF1.0
aF5.0
aF1.0
aF1.0
aF1.0
aF1.0
aF1.0
aF1.0
aF1.0
aF1.0
aF1.0
aF1.0
aF1.0
aF1.0
aF1.0
aF1.0
aF1.0
aF1.0
aF1.0
aF1.0
aF1.0
aF1.0
aF1.0
aF1.0
aF1.0
aF1.0
aF5.0
aF1.0
aF1.0
aF1.0
aF1.0
aF1.0
aF1.0
aF1.0
aF1.0
aF1.0
aF1.0
aF1.0
aF1.0
aF1.0
aF1.0
aF5.0
aF1.0
aF1.0
aF1.0
aF1.0
aF1.0
aF1.0
aF1.0
aF1.0
aF5.0
aF1.0
aF1.0
aF1.0
aF1.0
aF1.0
aF1.0
aF1.0
aF1.0
aF1.0
aF1.0
aF1.0
aF1.0
aF1.0
aF1.0
aF1.0
aF1.0
aF1.0
aF1.0
aF1.0
aF1.0
aF1.0
aF1.0
aF1.0
aF1.0
aF1.0
aF1.0
aF1.0
aF1.0
aF1.0
aF1.0
aF1.0
aF1.0
aF1.0
aF1.0
aF1.0
aF1.0
aF1.0
aF1.0
aF1.0
aF1.0
aF1.0
aF1.0
aF1.0
aF1.0
aF1.0
aF1.0
aF1.0
aF1.0
aF1.0
aF1.0
aF1.0
aF1.0
aF1.0
aF1.0
aF1.0
aF1.0
aF5.0
aF1.0
aF5.0
aF1.0
aF1.0
aF1.0
aF1.0
aF1.0
aF1.0
aF1.0
aF1.0
aF1.0
aF1.0
aF1.0
aF1.0
aF1.0
aF1.0
aF1.0
aF1.0
aF1.0
aF1.0
aF1.0
aF1.0
aF1.0
aF1.0
aF1.0
aF1.0
aF1.0
aF1.0
aF1.0
aF1.0
aF1.0
aF1.0
aF1.0
aF1.0
aF1.0
aF1.0
aF1.0
aF1.0
aF1.0
aF1.0
aF1.0
aF1.0
aF1.0
aF1.0
aF1.0
aF5.0
aF1.0
aF1.0
aF1.0
aF1.0
aF1.0
aF1.0
aF1.0
aF1.0
aF1.0
aF1.0
aF1.0
aF1.0
aF1.0
aF1.0
aF1.0
aF5.0
aF4.0
aF1.0
aF1.0
aF1.0
aF1.0
aF1.0
aF1.0
aF1.0
aF1.0
aF1.0
aF5.0
aF1.0
aF5.0
aF1.0
aF1.0
aF1.0
aF1.0
aF1.0
aF1.0
aF1.0
aF1.0
aF1.0
aF1.0
aF1.0
aF1.0
aF1.0
aF1.0
aF1.0
aF1.0
aF1.0
aF1.0
aF1.0
aF1.0
aF5.0
aF1.0
aF1.0
aF1.0
aF1.0
aF1.0
aF5.0
aF5.0
aF1.0
aF1.0
aF1.0
aF1.0
aF5.0
aF5.0
aF1.0
aF5.0
aF5.0
aF1.0
aF1.0
aF1.0
aF1.0
aF1.0
aF1.0
aF1.0
aF1.0
aF1.0
aF1.0
aF1.0
aF1.0
aF1.0
aF1.0
aF1.0
aF1.0
aF1.0
aF1.0
aF1.0
aF1.0
aF1.0
aF1.0
aF1.0
aF1.0
aF1.0
aF1.0
aF1.0
aF1.0
aF1.0
aF1.0
aF1.0
aF1.0
aF1.0
aF1.0
aF5.0
aF1.0
aF1.0
aF1.0
aF1.0
aF5.0
aF5.0
aF1.0
aF1.0
aF1.0
aF1.0
aF1.0
aF1.0
aF1.0
aF1.0
aF1.0
aF1.0
aF1.0
aF1.0
aF1.0
aF1.0
aF1.0
aF14.0
aF16.0
aF1.0
aF1.0
aF14.0
aF1.0
aF14.0
aF1.0
aF1.0
aF1.0
aF1.0
aF1.0
aF1.0
aF1.0
aF1.0
aF1.0
aF5.0
aF1.0
aF4.0
aF1.0
aF1.0
aF1.0
aF1.0
aF1.0
aF1.0
aF1.0
aF1.0
aF1.0
aF1.0
aF1.0
aF1.0
aF1.0
aF1.0
aF1.0
aF1.0
aF1.0
aF4.0
aF1.0
aF1.0
aF1.0
aF1.0
aF1.0
aF1.0
aF1.0
aF1.0
aF1.0
aF1.0
aF1.0
aF1.0
aF1.0
aF1.0
aF1.0
aF1.0
aF1.0
aF1.0
aF1.0
aF5.0
aF1.0
aF5.0
aF1.0
aF1.0
aF1.0
aF1.0
aF1.0
aF1.0
aF1.0
aF1.0
aF1.0
aF1.0
aF1.0
aF1.0
aF1.0
aF1.0
aF1.0
aF1.0
aF1.0
aF1.0
aF1.0
aF1.0
aF1.0
aF1.0
aF1.0
aF1.0
aF1.0
aF1.0
aF1.0
aF1.0
aF1.0
aF1.0
aF1.0
aF1.0
aF1.0
aF1.0
aF1.0
aF1.0
aF1.0
aF1.0
aF1.0
aF1.0
aF1.0
aF6.0
aF1.0
aF1.0
aF1.0
aF1.0
aF1.0
aF1.0
aF1.0
aF1.0
aF1.0
aF1.0
aF1.0
aF1.0
aF1.0
aF1.0
aF1.0
aF1.0
aF1.0
aF1.0
aF1.0
aF1.0
aF1.0
aF1.0
aF1.0
aF1.0
aF1.0
aF1.0
aF1.0
aF5.0
aF1.0
aF1.0
aF1.0
aF1.0
aF1.0
aF5.0
aF1.0
aF1.0
aF1.0
aF1.0
aF1.0
aF1.0
aF1.0
aF1.0
aF5.0
aF1.0
aF1.0
aF1.0
aF1.0
aF1.0
aF1.0
aF1.0
aF1.0
aF1.0
aF5.0
aF1.0
aF1.0
aF1.0
aF5.0
aF1.0
aF1.0
aF1.0
aF1.0
aF1.0
aF1.0
aF1.0
aF1.0
aF1.0
aF1.0
aF1.0
aF1.0
aF1.0
aF1.0
aF1.0
aF1.0
aF1.0
aF1.0
aF1.0
aF1.0
aF14.0
aF1.0
aF14.0
aF1.0
aF1.0
aF14.0
aF14.0
aF1.0
aF5.0
aF1.0
aF1.0
aF1.0
aF1.0
aF1.0
aF1.0
aF1.0
aF1.0
aF1.0
aF1.0
aF1.0
aF4.0
aF14.0
aF1.0
aF5.0
aF1.0
aF5.0
aF1.0
aF1.0
aF1.0
aF1.0
aF1.0
aF1.0
aF1.0
aF1.0
aF1.0
aF1.0
aF14.0
aF1.0
aF1.0
aF1.0
aF1.0
aF14.0
aF1.0
aF1.0
aF14.0
aF1.0
aF14.0
aF1.0
aF1.0
aF1.0
aF1.0
aF1.0
aF1.0
aF1.0
aF1.0
aF1.0
aF1.0
aF1.0
aF1.0
aF1.0
aF1.0
aF1.0
aF1.0
aF1.0
aF1.0
aF1.0
aF1.0
aF1.0
aF1.0
aF1.0
aF4.0
aF1.0
aF1.0
aF1.0
aF1.0
aF1.0
aF1.0
aF1.0
aF1.0
aF1.0
aF1.0
aF1.0
aF1.0
aF1.0
aF1.0
aF1.0
aF1.0
aF1.0
aF1.0
aF1.0
aF1.0
aF1.0
aF1.0
aF28.0
aF5.0
aF1.0
aF5.0
aF1.0
aF5.0
aF28.0
aF1.0
aF1.0
aF5.0
aF1.0
aF5.0
aF1.0
aF1.0
aF28.0
aF5.0
aF1.0
aF5.0
aF1.0
aF5.0
aF28.0
aF1.0
aF1.0
aF1.0
aF1.0
aF1.0
aF1.0
aF1.0
aF1.0
aF1.0
aF1.0
aF1.0
aF1.0
aF1.0
aF1.0
aF1.0
aF1.0
aF1.0
aF1.0
aF1.0
aF1.0
aF1.0
aF1.0
aF1.0
aF1.0
aF1.0
aF1.0
aF1.0
aF1.0
aF5.0
aF1.0
aF1.0
aF5.0
aF1.0
aF5.0
aF1.0
aF1.0
aF1.0
aF1.0
aF1.0
aF1.0
aF6.0
aF1.0
aF1.0
aF1.0
aF4.0
aF1.0
aF1.0
aF1.0
aF1.0
aF1.0
aF1.0
aF1.0
aF1.0
aF1.0
aF1.0
aF1.0
aF1.0
aF1.0
aF1.0
aF1.0
aF1.0
aF1.0
aF1.0
aF1.0
aF1.0
aF1.0
aF1.0
aF1.0
aF1.0
aF1.0
aF5.0
aF1.0
aF1.0
aF5.0
aF6.0
aF1.0
aF1.0
aF5.0
aF1.0
aF28.0
aF5.0
aF5.0
aF5.0
aF5.0
aF5.0
aF5.0
aF28.0
aF1.0
aF5.0
aF1.0
aF5.0
aF1.0
aF1.0
aF1.0
aF28.0
aF5.0
aF1.0
aF5.0
aF1.0
aF5.0
aF28.0
aF1.0
aF6.0
aF1.0
aF1.0
aF1.0
aF5.0
aF1.0
aF1.0
aF1.0
aF6.0
aF1.0
aF1.0
aF28.0
aF5.0
aF1.0
aF5.0
aF1.0
aF5.0
aF1.0
aF5.0
aF5.0
aF1.0
aF5.0
aF5.0
aF1.0
aF5.0
aF1.0
aF5.0
aF28.0
aF1.0
aF1.0
aF1.0
aF1.0
aF5.0
aF1.0
aF1.0
aF1.0
aF1.0
aF1.0
aF1.0
aF1.0
aF1.0
aF1.0
aF1.0
aF1.0
aF1.0
aF1.0
aF1.0
aF1.0
aF1.0
aF1.0
aF1.0
aF1.0
aF1.0
aF1.0
aF1.0
aF1.0
aF1.0
aF1.0
aF1.0
aF1.0
aF1.0
aF1.0
aF6.0
aF1.0
aF1.0
aF1.0
aF1.0
aF1.0
aF1.0
aF1.0
aF1.0
aF5.0
aF1.0
aF1.0
aF1.0
aF1.0
aF1.0
aF1.0
aF1.0
aF1.0
aF1.0
aF1.0
aF1.0
aF1.0
aF1.0
aF1.0
aF1.0
aF1.0
aF1.0
aF1.0
aF1.0
aF1.0
aF1.0
aF1.0
aF4.0
aF1.0
aF1.0
aF1.0
aF1.0
aF1.0
aF5.0
aF1.0
aF1.0
aF1.0
aF1.0
aF1.0
aF1.0
aF1.0
aF1.0
aF1.0
aF1.0
aF1.0
aF1.0
aF1.0
aF1.0
aF1.0
aF1.0
aF1.0
aF1.0
aF1.0
aF1.0
aF1.0
aF1.0
aF1.0
aF1.0
aF1.0
aF1.0
aF1.0
aF5.0
aF1.0
aF5.0
aF5.0
aF1.0
aF1.0
aF1.0
aF1.0
aF1.0
aF1.0
aF4.0
aF1.0
aF1.0
aF1.0
aF1.0
aF1.0
aF1.0
aF1.0
aF1.0
aF1.0
aF1.0
aF1.0
aF1.0
aF1.0
aF1.0
aF1.0
aF1.0
aF1.0
aF1.0
aF1.0
aF1.0
aF1.0
aF1.0
aF1.0
aF1.0
aF1.0
aF1.0
aF5.0
aF1.0
aF1.0
aF1.0
aF1.0
aF1.0
aF5.0
aF1.0
aF1.0
aF1.0
aF1.0
aF1.0
aF1.0
aF1.0
aF1.0
aF1.0
aF1.0
aF1.0
aF1.0
aF1.0
aF1.0
aF1.0
aF1.0
aF5.0
aF1.0
aF1.0
aF1.0
aF1.0
aF1.0
aF1.0
aF1.0
aF1.0
aF1.0
aF1.0
aF1.0
aF1.0
aF1.0
aF1.0
aF1.0
aF1.0
aF1.0
aF1.0
aF1.0
aF5.0
aF1.0
aF4.0
aF1.0
aF5.0
aF1.0
aF1.0
aF1.0
aF1.0
aF1.0
aF1.0
aF1.0
aF1.0
aF1.0
aF1.0
aF1.0
aF1.0
aF1.0
aF1.0
aF1.0
aF1.0
aF1.0
aF1.0
aF1.0
aF1.0
aF1.0
aF1.0
aF1.0
aF1.0
aF1.0
aF1.0
aF1.0
aF1.0
aF1.0
aF1.0
aF1.0
aF1.0
aF5.0
aF1.0
aF1.0
aF1.0
aF4.0
aF5.0
aF1.0
aF1.0
aF1.0
aF1.0
aF1.0
aF1.0
aF1.0
aF1.0
aF1.0
aF1.0
aF1.0
aF1.0
aF1.0
aF1.0
aF1.0
aF1.0
aF1.0
aF1.0
aF5.0
aF1.0
aF1.0
aF1.0
aF1.0
aF1.0
aF1.0
aF5.0
aF1.0
aF1.0
aF5.0
aF1.0
aF1.0
aF1.0
aF1.0
aF1.0
aF1.0
aF1.0
aF1.0
aF1.0
aF1.0
aF1.0
aF1.0
aF1.0
aF1.0
aF1.0
aF1.0
aF1.0
aF1.0
aF1.0
aF1.0
aF5.0
aF1.0
aF1.0
aF1.0
aF1.0
aF1.0
aF1.0
aF1.0
aF1.0
aF1.0
aF1.0
aF1.0
aF1.0
aF1.0
aF1.0
aF1.0
aF1.0
aF1.0
aF1.0
aF1.0
aF1.0
aF1.0
aF1.0
aF1.0
aF1.0
aF1.0
aF1.0
aF1.0
aF1.0
aF1.0
aF1.0
aF1.0
aF1.0
aF1.0
aF1.0
aF1.0
aF1.0
aF1.0
aF1.0
aF1.0
aF1.0
aF1.0
aF1.0
aF1.0
aF1.0
aF1.0
aF1.0
aF1.0
aF1.0
aF1.0
aF1.0
aF5.0
aF1.0
aF1.0
aF1.0
aF1.0
aF1.0
aF1.0
aF1.0
aF1.0
aF1.0
aF1.0
aF5.0
aF1.0
aF5.0
aF1.0
aF1.0
aF1.0
aF1.0
aF1.0
aF1.0
aF1.0
aF1.0
aF1.0
aF1.0
aF1.0
aF1.0
aF1.0
aF1.0
aF1.0
aF1.0
aF1.0
aF1.0
aF1.0
aF1.0
aF1.0
aF1.0
aF1.0
aF1.0
aF1.0
aF1.0
aF1.0
aF1.0
aF1.0
aF1.0
aF1.0
aF1.0
aF1.0
aF1.0
aF1.0
aF5.0
aF1.0
aF5.0
aF1.0
aF1.0
aF1.0
aF1.0
aF1.0
aF1.0
aF1.0
aF1.0
aF1.0
aF1.0
aF1.0
aF1.0
aF1.0
aF5.0
aF1.0
aF1.0
aF1.0
aF1.0
aF5.0
aF1.0
aF1.0
aF1.0
aF1.0
aF1.0
aF1.0
aF1.0
aF1.0
aF1.0
aF1.0
aF1.0
aF1.0
aF1.0
aF1.0
aF1.0
aF1.0
aF1.0
aF1.0
aF1.0
aF1.0
aF1.0
aF1.0
aF1.0
aF1.0
aF1.0
aF1.0
aF1.0
aF1.0
aF1.0
aF1.0
aF1.0
aF1.0
aF1.0
aF1.0
aF1.0
aF1.0
aF1.0
aF5.0
aF1.0
aF1.0
aF1.0
aF1.0
aF1.0
aF1.0
aF1.0
aF1.0
aF1.0
aF1.0
aF1.0
aF1.0
aF1.0
aF1.0
aF1.0
aF1.0
aF1.0
aF1.0
aF1.0
aF1.0
aF1.0
aF5.0
aF1.0
aF1.0
aF1.0
aF1.0
aF1.0
aF1.0
aF1.0
aF1.0
aF1.0
aF1.0
aF1.0
aF1.0
aF5.0
aF1.0
aF1.0
aF1.0
aF1.0
aF1.0
aF1.0
aF1.0
aF1.0
aF1.0
aF1.0
aF1.0
aF1.0
aF1.0
aF1.0
aF1.0
aF1.0
aF1.0
aF1.0
aF1.0
aF1.0
aF1.0
aF1.0
aF1.0
aF1.0
aF1.0
aF1.0
aF1.0
aF1.0
aF1.0
aF1.0
aF1.0
aF1.0
aF1.0
aF1.0
aF1.0
aF1.0
aF1.0
aF5.0
aF1.0
aF1.0
aF1.0
aF1.0
aF1.0
aF1.0
aF1.0
aF1.0
aF1.0
aF1.0
aF1.0
aF1.0
aF1.0
aF1.0
aF1.0
aF1.0
aF1.0
aF1.0
aF1.0
aF1.0
aF1.0
aF1.0
aF1.0
aF1.0
aF1.0
aF1.0
aF1.0
aF1.0
aF1.0
aF1.0
aF1.0
aF1.0
aF1.0
aF1.0
aF1.0
aF1.0
aF1.0
aF1.0
aF1.0
aF1.0
aF1.0
aF1.0
aF1.0
aF1.0
aF1.0
aF1.0
aF1.0
aF1.0
aF1.0
aF1.0
aF1.0
aF1.0
aF1.0
aF1.0
aF1.0
aF1.0
aF1.0
aF1.0
aF1.0
aF1.0
aF1.0
aF1.0
aF1.0
aF1.0
aF1.0
aF1.0
aF1.0
aF1.0
aF1.0
aF1.0
aF1.0
aF1.0
aF1.0
aF1.0
aF1.0
aF1.0
aF1.0
aF1.0
aF1.0
aF1.0
aF5.0
aF1.0
aF1.0
aF1.0
aF1.0
aF1.0
aF1.0
aF1.0
aF1.0
aF1.0
aF1.0
aF1.0
aF1.0
aF1.0
aF1.0
aF1.0
aF1.0
aF1.0
aF5.0
aF1.0
aF1.0
aF1.0
aF1.0
aF5.0
aF1.0
aF1.0
aF1.0
aF1.0
aF1.0
aF5.0
aF1.0
aF1.0
aF1.0
aF1.0
aF1.0
aF1.0
aF1.0
aF1.0
aF1.0
aF1.0
aF1.0
aF1.0
aF1.0
aF1.0
aF1.0
aF1.0
aF1.0
aF1.0
aF1.0
aF1.0
aF1.0
aF1.0
aF1.0
aF1.0
aF1.0
aF1.0
aF1.0
aF1.0
aF1.0
aF1.0
aF1.0
aF1.0
aF1.0
aF1.0
aF1.0
aF1.0
aF1.0
aF1.0
aF1.0
aF1.0
aF4.0
aF1.0
aF1.0
aF1.0
aF1.0
aF1.0
aF1.0
aF1.0
aF1.0
aF1.0
aF1.0
aF1.0
aF1.0
aF1.0
aF4.0
aF1.0
aF1.0
aF1.0
aF1.0
aF1.0
aF1.0
aF1.0
aF5.0
aF1.0
aF1.0
aF1.0
aF1.0
aF1.0
aF1.0
aF1.0
aF1.0
aF1.0
aF1.0
aF1.0
aF1.0
aF1.0
aF1.0
aF1.0
aF5.0
aF1.0
aF1.0
aF1.0
aF1.0
aF1.0
aF1.0
aF1.0
aF1.0
aF1.0
aF1.0
aF1.0
aF1.0
aF1.0
aF1.0
aF1.0
aF1.0
aF1.0
aF1.0
aF1.0
aF1.0
aF1.0
aF1.0
aF1.0
aF1.0
aF1.0
aF1.0
aF1.0
aF1.0
aF1.0
aF5.0
aF1.0
aF1.0
aF1.0
aF1.0
aF1.0
aF1.0
aF1.0
aF1.0
aF1.0
aF1.0
aF1.0
aF1.0
aF1.0
aF1.0
aF5.0
aF1.0
aF1.0
aF1.0
aF1.0
aF1.0
aF5.0
aF1.0
aF1.0
aF1.0
aF1.0
aF1.0
aF1.0
aF1.0
aF1.0
aF1.0
aF1.0
aF1.0
aF1.0
aF1.0
aF1.0
aF1.0
aF4.0
aF1.0
aF5.0
aF1.0
aF1.0
aF1.0
aF4.0
aF4.0
aF1.0
aF1.0
aF1.0
aF1.0
aF1.0
aF1.0
aF1.0
aF1.0
aF1.0
aF4.0
aF1.0
aF1.0
aF1.0
aF1.0
aF1.0
aF1.0
aF1.0
aF1.0
aF1.0
aF1.0
aF1.0
aF1.0
aF1.0
aF1.0
aF1.0
aF1.0
aF28.0
aF5.0
aF1.0
aF5.0
aF1.0
aF5.0
aF28.0
aF1.0
aF1.0
aF1.0
aF5.0
aF1.0
aF5.0
aF1.0
aF1.0
aF5.0
aF1.0
aF1.0
aF1.0
aF1.0
aF1.0
aF1.0
aF1.0
aF1.0
aF1.0
aF5.0
aF1.0
aF1.0
aF1.0
aF1.0
aF5.0
aF1.0
aF1.0
aF1.0
aF1.0
aF1.0
aF1.0
aF1.0
aF1.0
aF1.0
aF1.0
aF1.0
aF1.0
aF1.0
aF1.0
aF1.0
aF1.0
aF1.0
aF1.0
aF1.0
aF1.0
aF5.0
aF1.0
aF5.0
aF1.0
aF1.0
aF1.0
aF1.0
aF1.0
aF1.0
aF1.0
aF1.0
aF1.0
aF1.0
aF1.0
aF1.0
aF1.0
aF1.0
aF1.0
aF1.0
aF1.0
aF1.0
aF1.0
aF1.0
aF1.0
aF1.0
aF1.0
aF1.0
aF5.0
aF1.0
aF1.0
aF1.0
aF1.0
aF1.0
aF1.0
aF1.0
aF1.0
aF1.0
aF1.0
aF1.0
aF1.0
aF1.0
aF1.0
aF1.0
aF1.0
aF1.0
aF1.0
aF1.0
aF1.0
aF1.0
aF1.0
aF1.0
aF1.0
aF1.0
aF1.0
aF1.0
aF1.0
aF1.0
aF1.0
aF1.0
aF1.0
aF1.0
aF1.0
aF5.0
aF1.0
aF1.0
aF1.0
aF1.0
aF1.0
aF1.0
aF1.0
aF1.0
aF1.0
aF1.0
aF1.0
aF1.0
aF1.0
aF1.0
aF1.0
aF1.0
aF1.0
aF5.0
aF1.0
aF1.0
aF1.0
aF1.0
aF1.0
aF1.0
aF1.0
aF1.0
aF1.0
aF5.0
aF1.0
aF1.0
aF1.0
aF1.0
aF5.0
aF1.0
aF5.0
aF1.0
aF4.0
aF5.0
aF10.0
aF5.0
aF6.0
aF1.0
aF1.0
aF1.0
aF5.0
aF1.0
aF1.0
aF1.0
aF1.0
aF1.0
aF5.0
aF1.0
aF5.0
aF1.0
aF1.0
aF1.0
aF1.0
aF1.0
aF5.0
aF1.0
aF1.0
aF1.0
aF1.0
aF1.0
aF1.0
aF1.0
aF1.0
aF1.0
aF1.0
aF1.0
aF5.0
aF1.0
aF1.0
aF1.0
aF5.0
aF1.0
aF5.0
aF1.0
aF1.0
aF1.0
aF4.0
aF5.0
aF1.0
aF5.0
aF1.0
aF1.0
aF1.0
aF1.0
aF1.0
aF1.0
aF1.0
aF1.0
aF1.0
aF1.0
aF5.0
aF1.0
aF1.0
aF5.0
aF1.0
aF1.0
aF1.0
aF5.0
aF1.0
aF1.0
atp3
Rp4
.