carray
array
p0
(S'd'
p1
(lp2
F0.08333333333333333
aF0.20833333333333334
aF0.9694444444444444
aF1.711111111111111
aF2.4444444444444446
aF3.161111111111111
aF3.888888888888889
aF4.291666666666667
aF4.627777777777778
aF5.35
aF6.108333333333333
aF6.852777777777778
aF7.572222222222222
aF8.291666666666666
aF9.008333333333333
aF9.727777777777778
aF10.452777777777778
aF11.183333333333334
aF11.944444444444445
aF12.694444444444445
aF13.447222222222223
aF14.208333333333334
aF14.963888888888889
aF15.46111111111111
aF15.727777777777778
aF16.461111111111112
aF17.20277777777778
aF17.93888888888889
aF18.7
aF19.458333333333332
aF20.17222222222222
aF20.9
aF21.6
aF22.288888888888888
aF22.980555555555554
aF23.675
aF24.394444444444446
aF25.144444444444446
aF25.913888888888888
aF26.36111111111111
aF26.66111111111111
aF27.42222222222222
aF28.211111111111112
aF28.991666666666667
aF29.769444444444446
aF30.52777777777778
aF30.966666666666665
aF31.275
aF32.03333333333333
aF32.791666666666664
aF33.55277777777778
aF34.327777777777776
aF35.11944444444445
aF35.897222222222226
aF36.43611111111111
aF36.68888888888889
aF37.49444444444445
aF38.28055555555556
aF39.044444444444444
aF39.81111111111111
aF40.583333333333336
aF41.32222222222222
aF42.09166666666667
aF42.6
aF42.87222222222222
aF43.63333333333333
aF44.397222222222226
aF45.19166666666667
aF46.02777777777778
aF46.852777777777774
aF47.675
aF48.475
aF49.24444444444445
aF50.019444444444446
aF50.772222222222226
aF51.55555555555556
aF52.361111111111114
aF53.15
aF53.925
aF54.69444444444444
aF55.49722222222222
aF56.30555555555556
aF57.111111111111114
aF57.87222222222222
aF58.641666666666666
aF59.43055555555556
aF60.24722222222222
aF61.102777777777774
aF61.94722222222222
aF62.763888888888886
aF63.59722222222222
aF64.44444444444444
aF65.25833333333334
aF66.05
aF66.82777777777778
aF67.63333333333334
aF68.46944444444445
aF69.29444444444445
aF70.12222222222222
aF70.95277777777778
aF71.7388888888889
aF72.46666666666667
aF73.20277777777778
aF73.95
aF74.67777777777778
aF75.44166666666666
aF76.24166666666666
aF77.05555555555556
aF77.86944444444444
aF78.69444444444444
aF79.53333333333333
aF80.33888888888889
aF81.14166666666667
aF81.93055555555556
aF82.73333333333333
aF83.56111111111112
aF84.39444444444445
aF85.19444444444444
aF85.975
aF86.725
aF87.4888888888889
aF88.30277777777778
aF89.11111111111111
aF89.93333333333334
aF90.75277777777778
aF91.61111111111111
aF92.46944444444445
aF93.28611111111111
aF94.08055555555555
aF94.875
aF95.66388888888889
aF96.44166666666666
aF97.24722222222222
aF98.08055555555555
aF98.94444444444444
aF99.85277777777777
aF100.72222222222223
aF101.59722222222223
aF102.47222222222223
aF103.28888888888889
aF104.1
aF104.89722222222223
aF105.71111111111111
aF106.54166666666667
aF107.40555555555555
aF108.26944444444445
aF109.075
aF109.86666666666666
aF110.65555555555555
aF111.45555555555555
aF112.225
aF113.00555555555556
aF113.79444444444445
aF114.56111111111112
aF115.1
aF115.36666666666666
aF116.19166666666666
aF117.05
aF117.51944444444445
aF117.88333333333334
aF118.73611111111111
aF119.61944444444444
aF120.48055555555555
aF121.3
aF122.06666666666666
aF122.82777777777778
aF123.56944444444444
aF124.31944444444444
aF125.08333333333333
aF125.82222222222222
aF126.56944444444444
aF127.325
aF128.0888888888889
aF128.86111111111111
aF129.61666666666667
aF130.4111111111111
aF131.3138888888889
aF131.875
aF132.21944444444443
aF133.1472222222222
aF134.0222222222222
aF134.8527777777778
aF135.66944444444445
aF136.49166666666667
aF137.29722222222222
aF138.0861111111111
aF138.87222222222223
aF139.64166666666668
aF140.42222222222222
aF141.21666666666667
aF142.0222222222222
aF142.8388888888889
aF143.65833333333333
aF144.45833333333334
aF145.26388888888889
aF146.09722222222223
aF146.91944444444445
aF147.7138888888889
aF148.19444444444446
aF148.49166666666667
aF148.96944444444443
aF149.25555555555556
aF149.77777777777777
aF150.01944444444445
aF150.76388888888889
aF151.51666666666668
aF152.27777777777777
aF153.0361111111111
aF153.54166666666666
aF153.825
aF154.64166666666668
aF155.45
aF156.2111111111111
aF156.96666666666667
aF157.7
aF158.43333333333334
aF159.1611111111111
aF159.90833333333333
aF160.36388888888888
aF160.6638888888889
aF161.20833333333334
aF161.43055555555554
aF162.19722222222222
aF162.94722222222222
aF163.73055555555555
aF164.54722222222222
aF165.0861111111111
aF165.33333333333334
aF166.0861111111111
aF166.79166666666666
aF167.48333333333332
aF168.15555555555557
aF168.81944444444446
aF169.48611111111111
aF170.17222222222222
aF170.84444444444443
aF171.53333333333333
aF172.21666666666667
aF172.93055555555554
aF173.65
aF174.08055555555555
aF174.35
aF175.05277777777778
aF175.73611111111111
aF176.4138888888889
aF177.10833333333332
aF177.78055555555557
aF178.46666666666667
aF179.15277777777777
aF179.54444444444445
aF179.8111111111111
aF180.26666666666668
aF180.47222222222223
aF181.12222222222223
aF181.51111111111112
aF181.76388888888889
aF182.41944444444445
aF183.05555555555554
aF183.6861111111111
aF184.29166666666666
aF184.9
aF185.50277777777777
aF186.15
aF186.81944444444446
aF187.54166666666666
aF188.07222222222222
aF188.32222222222222
aF188.83055555555555
aF189.09722222222223
aF189.85833333333332
aF190.57222222222222
aF191.27777777777777
aF191.95833333333334
aF192.6
aF193.24166666666667
aF193.86388888888888
aF194.49444444444444
aF195.14166666666668
aF195.80277777777778
aF196.48333333333332
aF197.2138888888889
aF197.9388888888889
aF198.66666666666666
aF199.38888888888889
aF200.15
aF200.8972222222222
aF201.60833333333332
aF202.33333333333334
aF203.03055555555557
aF203.7277777777778
aF204.425
aF205.125
aF205.8527777777778
aF206.60833333333332
aF207.3388888888889
aF208.0611111111111
aF208.7861111111111
aF209.5222222222222
aF210.25555555555556
aF210.9777777777778
aF211.70833333333334
aF212.44444444444446
aF212.93055555555554
aF213.1638888888889
aF213.85833333333332
aF214.55833333333334
aF215.24444444444444
aF215.9138888888889
aF216.56944444444446
aF217.2138888888889
aF217.85555555555555
aF218.50833333333333
aF219.18055555555554
aF219.8527777777778
aF220.55555555555554
aF221.24166666666667
aF221.94444444444446
aF222.6611111111111
aF223.38888888888889
aF224.09444444444443
aF224.8111111111111
aF225.49722222222223
aF226.19166666666666
aF226.875
aF227.54722222222222
aF228.225
aF228.64444444444445
aF228.875
aF229.51666666666668
aF230.1472222222222
aF230.8
aF231.49444444444444
aF232.1861111111111
aF232.71944444444443
aF232.9111111111111
aF233.63333333333333
aF234.34722222222223
aF235.03333333333333
aF235.69722222222222
aF236.38888888888889
aF236.79722222222222
aF237.07222222222222
aF237.51944444444445
aF237.74166666666667
aF238.41944444444445
aF239.09166666666667
aF239.81944444444446
aF240.56666666666666
aF241.26111111111112
aF241.73611111111111
aF241.95
aF242.64166666666668
aF243.33333333333334
aF244.01944444444445
aF244.49166666666667
aF244.69722222222222
aF245.38333333333333
aF246.08055555555555
aF246.76111111111112
aF247.44722222222222
aF248.13055555555556
aF248.85555555555555
aF249.61666666666667
aF250.3388888888889
aF251.075
aF251.84722222222223
aF252.55555555555554
aF253.25833333333333
aF253.95555555555555
aF254.67777777777778
aF255.14444444444445
aF255.43333333333334
aF256.18611111111113
aF256.90555555555557
aF257.6111111111111
aF258.3277777777778
aF259.0416666666667
aF259.7861111111111
aF260.5361111111111
aF261.2638888888889
aF261.96666666666664
aF262.6611111111111
aF263.4
aF264.22777777777776
aF265.0777777777778
aF265.94444444444446
aF266.7972222222222
aF267.325
aF267.6166666666667
aF268.3638888888889
aF268.98333333333335
aF269.1
aF269.81666666666666
aF270.5027777777778
aF271.01666666666665
aF271.19166666666666
aF271.86944444444447
aF272.5388888888889
aF273.21666666666664
aF273.875
aF274.5472222222222
aF275.2027777777778
aF275.89444444444445
aF276.59166666666664
aF277.26666666666665
aF277.9611111111111
aF278.6388888888889
aF279.3305555555556
aF280.06111111111113
aF280.7888888888889
aF281.55555555555554
aF282.2916666666667
aF282.98333333333335
aF283.7055555555556
aF284.4583333333333
aF285.24444444444447
aF286.0777777777778
aF287.01944444444445
aF287.90833333333336
aF288.825
aF289.7583333333333
aF290.73333333333335
aF291.7361111111111
aF292.63055555555553
aF293.47222222222223
aF294.3388888888889
aF295.25555555555553
aF296.2388888888889
aF297.2416666666667
aF298.21944444444443
aF299.18888888888887
aF300.1388888888889
aF301.0861111111111
aF302.0111111111111
aF302.9194444444444
aF303.8861111111111
aF304.86944444444447
aF305.7944444444444
aF306.7027777777778
aF307.64444444444445
aF308.55
aF309.4888888888889
aF310.4638888888889
aF311.3666666666667
aF312.23055555555555
aF313.18333333333334
aF314.1666666666667
aF315.10555555555555
aF316.05833333333334
aF316.89722222222224
aF317.7416666666667
aF318.64444444444445
aF319.5361111111111
aF320.43055555555554
aF321.3722222222222
aF322.3277777777778
aF323.3027777777778
aF324.2472222222222
aF325.19166666666666
aF326.1638888888889
aF326.77222222222224
aF327.10555555555555
aF327.69166666666666
aF328.0111111111111
aF328.93888888888887
aF329.89444444444445
aF330.90277777777777
aF331.9222222222222
aF332.3638888888889
aF332.8777777777778
aF333.4888888888889
aF333.80833333333334
aF334.78333333333336
aF335.73333333333335
aF336.69166666666666
aF337.65833333333336
aF338.60555555555555
aF339.59166666666664
aF340.575
aF341.4277777777778
aF342.2861111111111
aF343.1694444444444
aF344.13055555555553
aF345.06944444444446
aF345.9472222222222
aF346.7972222222222
aF347.64444444444445
aF348.52222222222224
aF349.4611111111111
aF350.4138888888889
aF351.2972222222222
aF352.1277777777778
aF352.975
aF353.8611111111111
aF354.825
aF355.81111111111113
aF356.31388888888887
aF356.78055555555557
aF357.7416666666667
aF358.6166666666667
aF359.4472222222222
aF359.89166666666665
aF360.23333333333335
aF361.02777777777777
aF361.84166666666664
aF362.7055555555556
aF363.1611111111111
aF363.6638888888889
aF364.6277777777778
aF365.59722222222223
aF366.47777777777776
aF367.35833333333335
aF368.1694444444444
aF368.6972222222222
aF368.97777777777776
aF369.825
aF370.7388888888889
aF371.6611111111111
aF372.6722222222222
aF373.7111111111111
aF374.7027777777778
aF375.6722222222222
aF376.64722222222224
aF377.5777777777778
aF378.50555555555553
aF379.3861111111111
aF380.3027777777778
aF381.27222222222224
aF382.1972222222222
aF383.13055555555553
aF384.06944444444446
aF385.05
aF386.03333333333336
aF386.5861111111111
aF386.9972222222222
aF387.94444444444446
aF388.8305555555556
aF389.675
aF390.52222222222224
aF391.1138888888889
aF391.39166666666665
aF392.2888888888889
aF393.22222222222223
aF394.15833333333336
aF395.1361111111111
aF396.125
aF397.06666666666666
aF397.9972222222222
aF398.9638888888889
aF399.9916666666667
aF401.0138888888889
aF401.95
aF402.90277777777777
aF403.89722222222224
aF404.84722222222223
aF405.81388888888887
aF406.7888888888889
aF407.78055555555557
aF408.2111111111111
aF408.7944444444444
aF409.71944444444443
aF410.28055555555557
aF410.6166666666667
aF411.5138888888889
aF412.43333333333334
aF412.99444444444447
aF413.4111111111111
aF414.31388888888887
aF414.8361111111111
aF415.2
aF416.10555555555555
aF417.0138888888889
aF417.65277777777777
aF417.93888888888887
aF418.55833333333334
aF418.8277777777778
aF419.71666666666664
aF420.64444444444445
aF421.10555555555555
aF421.60833333333335
aF422.56944444444446
aF423.4611111111111
aF423.9222222222222
aF424.35
aF425.2611111111111
aF426.1166666666667
aF427.05
aF428.0444444444444
aF429.05833333333334
aF430.09722222222223
aF430.99444444444447
aF431.48055555555555
aF431.9
aF432.81111111111113
aF433.7111111111111
aF434.5472222222222
aF435.06944444444446
aF435.35833333333335
aF436.2138888888889
aF437.10555555555555
aF437.59444444444443
aF438.0138888888889
aF438.94444444444446
aF439.9222222222222
aF440.86944444444447
aF441.81944444444446
aF442.6638888888889
aF443.5027777777778
aF444.35
aF445.2472222222222
aF446.14444444444445
aF447.0388888888889
aF447.8611111111111
aF448.65277777777777
aF449.4277777777778
aF450.23333333333335
aF451.10555555555555
aF451.63055555555553
aF451.9583333333333
aF452.8638888888889
aF453.7861111111111
aF454.2972222222222
aF454.7138888888889
aF455.2
aF455.5361111111111
aF456.3361111111111
aF457.1277777777778
aF457.90555555555557
aF458.7
aF459.5388888888889
aF460.43888888888887
aF460.97222222222223
aF461.35555555555555
aF461.8833333333333
aF462.21666666666664
aF463.10555555555555
aF463.60555555555555
aF463.99444444444447
aF464.5027777777778
aF464.84722222222223
aF465.69444444444446
aF466.5472222222222
aF467.4111111111111
aF468.3
aF468.69166666666666
aF469.2055555555556
aF470.0388888888889
aF470.60277777777776
aF470.8888888888889
aF471.7611111111111
aF472.6777777777778
aF473.15833333333336
aF473.575
aF474.4222222222222
aF474.9611111111111
aF475.2611111111111
aF476.1333333333333
aF477.0444444444444
aF477.5722222222222
aF477.96666666666664
aF478.56388888888887
aF478.85555555555555
aF479.7583333333333
aF480.68055555555554
aF481.64722222222224
aF482.6
aF483.075
aF483.5138888888889
aF484.4111111111111
aF485.28055555555557
aF485.7583333333333
aF486.1138888888889
aF486.96666666666664
aF487.8638888888889
aF488.7861111111111
aF489.7361111111111
aF490.73333333333335
aF491.7361111111111
aF492.275
aF492.64722222222224
aF493.1611111111111
aF493.4916666666667
aF494.35833333333335
aF495.2583333333333
aF495.7138888888889
aF496.23055555555555
aF497.18055555555554
aF498.125
aF498.9972222222222
aF499.59722222222223
aF499.90277777777777
aF500.7638888888889
aF501.6638888888889
aF502.5527777777778
aF503.4916666666667
aF503.90277777777777
aF504.4555555555556
aF505.3388888888889
aF505.9472222222222
aF506.22777777777776
aF507.1277777777778
aF508.0444444444444
aF509.0027777777778
aF509.56111111111113
aF509.94166666666666
aF510.89166666666665
aF511.8027777777778
aF512.7083333333334
aF513.6305555555556
aF514.4916666666667
aF515.325
aF516.1138888888889
aF516.8805555555556
aF517.7111111111111
aF518.5833333333334
aF519.4972222222223
aF520.4166666666666
aF521.375
aF522.2416666666667
aF523.1333333333333
aF524.05
aF524.9194444444445
aF525.7833333333333
aF526.6611111111112
aF527.3
aF527.5777777777778
aF528.4916666666667
aF529.4138888888889
aF530.3666666666667
aF531.2444444444444
aF532.1555555555556
aF533.0944444444444
aF534.0472222222222
aF534.4138888888889
aF535.0111111111111
aF535.925
aF536.5638888888889
aF536.8416666666667
aF537.7777777777778
aF538.6916666666667
aF539.6472222222222
aF540.1777777777778
aF540.5666666666667
aF541.2027777777778
aF541.475
aF542.4027777777778
aF543.3444444444444
aF543.9805555555556
aF544.3138888888889
aF545.2972222222222
aF546.2055555555555
aF547.1083333333333
aF548.0333333333333
aF548.9611111111111
aF549.8555555555556
aF550.7583333333333
aF551.6666666666666
aF552.525
aF553.0277777777778
aF553.3777777777777
aF554.25
aF555.0861111111111
aF555.9583333333334
aF556.8527777777778
aF557.7861111111112
aF558.65
aF559.5416666666666
aF560.4361111111111
aF561.3
aF562.1611111111112
aF563.0583333333333
aF563.4833333333333
aF563.9722222222222
aF564.8888888888889
aF565.7583333333333
aF566.3611111111111
aF566.6194444444444
aF567.4666666666667
aF567.9416666666667
aF568.2722222222222
aF569.05
aF569.7694444444444
aF570.4638888888888
aF571.15
aF571.8472222222222
aF572.5361111111112
aF573.2083333333334
aF573.9361111111111
aF574.8444444444444
aF575.8083333333333
aF576.7527777777777
aF577.4055555555556
aF577.7416666666667
aF578.7138888888888
aF579.6361111111111
aF580.5583333333333
aF581.4694444444444
aF582.3416666666667
aF583.2138888888888
aF584.1083333333333
aF584.7027777777778
aF585.0416666666666
aF585.9777777777778
aF586.925
aF587.8361111111111
aF588.5
aF588.7472222222223
aF589.6611111111112
aF590.2888888888889
aF590.6
aF591.4972222222223
aF592.3944444444444
aF593.2555555555556
aF594.075
aF594.8527777777778
aF595.6277777777777
aF596.4638888888888
aF597.3944444444444
aF598.3416666666667
aF599.3111111111111
aF599.9583333333334
aF600.2166666666667
aF601.1083333333333
aF601.9888888888889
aF602.9194444444445
aF603.8694444444444
aF604.8055555555555
aF605.7277777777778
aF606.6527777777778
aF607.5666666666667
aF608.4833333333333
aF609.3972222222222
aF610.3166666666667
aF611.2305555555556
aF612.1527777777778
aF613.0361111111112
aF613.9388888888889
aF614.4194444444445
aF614.8472222222222
aF615.7027777777778
aF616.2638888888889
aF616.5388888888889
aF617.4083333333333
aF617.9555555555555
aF618.3083333333333
aF619.2166666666667
aF620.0777777777778
aF620.9555555555555
aF621.8194444444445
aF622.7055555555555
aF623.5805555555555
aF624.4333333333333
aF625.3083333333333
aF626.1833333333333
aF627.0611111111111
aF627.6277777777777
aF627.9583333333334
aF628.8611111111111
aF629.7472222222223
aF630.6722222222222
aF631.5722222222222
aF632.5027777777777
aF633.4305555555555
aF633.9027777777778
aF634.3416666666667
aF635.2194444444444
aF636.1361111111111
aF637.05
aF637.9416666666667
aF638.825
aF639.4194444444445
aF639.7277777777778
aF640.6472222222222
aF641.2194444444444
aF641.5444444444445
aF642.0972222222222
aF642.3583333333333
aF643.1638888888889
aF643.6805555555555
aF643.9638888888888
aF644.8555555555556
aF645.7888888888889
aF646.6805555555555
aF647.5555555555555
aF648.4444444444445
aF649.325
aF650.1916666666667
aF651.0416666666666
aF651.9083333333333
aF652.8111111111111
aF653.75
aF654.6833333333333
aF655.2888888888889
aF655.6166666666667
aF656.5555555555555
aF657.1388888888889
aF657.4777777777778
aF658.35
aF658.9361111111111
aF659.2305555555556
aF660.1333333333333
aF660.6444444444444
aF661.0194444444444
aF661.8944444444444
aF662.5666666666667
aF662.8472222222222
aF663.8027777777778
aF664.7
aF665.5833333333334
aF666.5027777777777
aF666.9833333333333
aF667.3666666666667
aF667.9083333333333
aF668.2083333333334
aF669.0666666666667
aF669.9416666666667
aF670.4833333333333
aF670.8444444444444
aF671.7416666666667
aF672.5972222222222
aF673.45
aF674.3166666666667
aF675.1972222222222
aF676.0444444444445
aF676.8694444444444
aF677.7194444444444
aF678.5527777777778
aF679.3611111111111
aF680.175
aF681.0305555555556
aF681.8916666666667
aF682.7694444444444
aF683.6472222222222
aF684.5111111111111
aF685.3222222222222
aF686.1444444444444
aF686.9722222222222
aF687.7833333333333
aF688.6111111111111
aF689.1361111111111
aF689.5111111111111
aF690.4638888888888
aF690.9805555555556
aF691.3805555555556
aF691.95
aF692.275
aF693.2388888888889
aF694.1833333333333
aF695.1055555555556
aF696.0305555555556
aF696.5166666666667
aF696.8972222222222
aF697.4555555555555
aF697.7583333333333
aF698.6722222222222
aF699.6333333333333
aF700.5805555555555
aF701.55
aF702.5305555555556
aF703.05
aF703.4416666666667
aF704.3277777777778
aF705.2027777777778
aF706.0472222222222
aF706.8888888888889
aF707.7472222222223
aF708.3
aF708.6194444444444
aF709.5111111111111
aF710.4055555555556
aF710.9861111111111
aF711.3
aF712.1555555555556
aF713.0305555555556
aF713.9166666666666
aF714.7944444444445
aF715.6222222222223
aF716.4722222222222
aF717.3527777777778
aF718.1861111111111
aF719.0333333333333
aF719.9055555555556
aF720.8027777777778
aF721.7194444444444
aF722.5833333333334
aF723.4055555555556
aF724.2138888888888
aF724.9972222222223
aF725.8583333333333
aF726.7805555555556
aF727.6666666666666
aF728.5083333333333
aF729.3777777777777
aF730.25
aF731.1222222222223
aF732.0055555555556
aF732.8638888888889
aF733.7333333333333
aF734.5583333333333
aF735.3805555555556
aF736.2222222222222
aF737.0833333333334
aF737.9444444444445
aF738.8222222222222
aF739.6083333333333
aF740.4055555555556
aF741.2166666666667
aF742.0138888888889
aF742.8083333333333
aF743.6
aF744.4
aF745.2194444444444
aF746.075
aF746.9305555555555
aF747.8055555555555
aF748.625
aF749.4666666666667
aF750.2972222222222
aF751.1083333333333
aF751.9277777777778
aF752.7805555555556
aF753.6861111111111
aF754.2944444444445
aF754.6166666666667
aF755.5583333333333
aF756.5055555555556
aF757.1166666666667
aF757.4305555555555
aF758.2861111111112
aF759.1138888888889
aF759.95
aF760.7972222222222
aF761.3722222222223
aF761.7055555555555
aF762.6388888888889
aF763.5638888888889
aF764.4777777777778
aF765.0222222222222
aF765.3611111111111
aF766.2416666666667
aF767.1111111111111
aF767.9416666666667
aF768.7722222222222
aF769.625
aF770.5083333333333
aF771.4333333333333
aF772.3333333333334
aF773.2416666666667
aF774.1333333333333
aF775.0333333333333
aF775.8694444444444
aF776.7138888888888
aF777.5916666666667
aF778.475
aF779.3583333333333
aF780.2361111111111
aF781.1333333333333
aF782.0277777777778
aF782.9083333333333
aF783.775
aF784.6611111111112
aF785.575
aF786.4944444444444
aF787.325
aF788.1694444444445
aF789.0333333333333
aF789.9611111111111
aF790.85
aF791.7083333333334
aF792.5888888888888
aF793.475
aF794.0916666666667
aF794.3861111111111
aF795.2944444444445
aF795.8055555555555
aF796.125
aF796.9388888888889
aF797.7333333333333
aF798.5944444444444
aF799.4638888888888
aF800.3722222222223
aF801.3111111111111
aF802.1833333333333
aF803.075
aF804.0
aF804.9111111111112
aF805.7861111111112
aF806.6611111111112
aF807.5611111111111
aF808.4777777777778
aF809.3694444444444
aF810.2416666666667
aF811.0472222222222
aF811.8222222222222
aF812.6222222222223
aF813.4722222222222
aF814.3583333333333
aF815.2777777777778
aF816.1638888888889
aF817.05
aF817.9277777777778
aF818.8138888888889
aF819.7194444444444
aF820.65
aF821.5861111111111
aF822.4666666666667
aF823.3
aF824.1027777777778
aF824.9611111111111
aF825.8583333333333
aF826.7527777777777
aF827.5777777777778
aF828.3666666666667
aF829.1472222222222
aF829.9333333333333
aF830.7583333333333
aF831.5583333333333
aF832.3638888888889
aF833.2138888888888
aF834.0722222222222
aF834.9527777777778
aF835.8
aF836.6638888888889
aF837.5305555555556
aF838.3333333333334
aF839.1333333333333
aF839.9527777777778
aF840.8027777777778
aF841.6722222222222
aF842.5444444444445
aF843.3861111111111
aF844.2416666666667
aF845.0722222222222
aF845.9111111111112
aF846.7694444444444
aF847.6027777777778
aF848.3944444444444
aF849.1777777777778
aF849.9805555555556
aF850.8138888888889
aF851.6277777777777
aF852.4916666666667
aF853.4166666666666
aF854.2694444444444
aF855.1138888888889
aF855.9777777777778
aF856.85
aF857.6944444444445
aF858.4888888888889
aF859.2472222222223
aF860.0083333333333
aF860.7638888888889
aF861.5722222222222
aF862.4416666666667
aF863.3444444444444
aF864.25
aF864.7944444444445
aF865.1972222222222
aF866.1416666666667
aF867.0777777777778
aF867.5472222222222
aF867.9888888888889
aF868.5138888888889
aF868.8277777777778
aF869.6666666666666
aF870.5166666666667
aF871.3555555555556
aF872.2222222222222
aF873.1305555555556
aF874.0527777777778
aF874.5722222222222
aF874.9861111111111
aF875.55
aF875.875
aF876.775
aF877.3666666666667
aF877.6805555555555
aF878.4805555555556
aF878.9777777777778
aF879.2666666666667
aF880.0805555555555
aF880.9055555555556
aF881.7472222222223
aF882.6277777777777
aF883.1666666666666
aF883.5222222222222
aF884.3805555555556
aF884.9638888888888
aF885.275
aF886.1694444444445
aF886.7166666666667
aF887.0388888888889
aF887.55
aF887.8555555555556
aF888.6861111111111
aF889.2111111111111
aF889.5638888888889
aF890.4277777777778
aF891.3027777777778
aF892.1444444444444
aF892.9472222222222
aF893.7305555555556
aF894.525
aF895.3416666666667
aF896.1361111111111
aF896.9444444444445
aF897.4777777777778
aF897.7805555555556
aF898.6694444444445
aF899.6
aF900.5138888888889
aF901.4555555555555
aF902.3777777777777
aF903.3111111111111
aF903.7861111111112
aF904.2305555555556
aF905.1027777777778
aF905.9444444444445
aF906.7861111111112
aF907.6361111111111
aF908.4888888888889
aF909.3666666666667
aF910.2111111111111
aF910.7833333333333
aF911.0777777777778
aF911.9444444444445
aF912.8194444444445
aF913.2944444444445
aF913.6944444444445
aF914.5083333333333
aF915.0083333333333
aF915.3055555555555
aF916.125
aF916.9611111111111
aF917.8277777777778
aF918.3972222222222
aF918.7194444444444
aF919.5833333333334
aF920.1972222222222
aF920.4555555555555
aF921.3555555555556
aF922.2416666666667
aF923.1527777777778
aF924.0777777777778
aF925.0083333333333
aF925.9611111111111
aF926.9
aF927.8305555555555
aF928.3666666666667
aF928.7333333333333
aF929.2611111111111
aF929.6
aF930.075
aF930.4722222222222
aF931.3722222222223
aF932.2944444444445
aF933.2222222222222
aF934.1833333333333
aF935.1138888888889
aF935.9972222222223
aF936.8361111111111
aF937.6638888888889
aF938.4638888888888
aF939.3
aF940.2
aF941.1138888888889
aF942.0166666666667
aF942.6444444444444
aF942.9416666666667
aF943.8833333333333
aF944.8222222222222
aF945.7277777777778
aF946.3194444444445
aF946.6388888888889
aF947.5194444444444
aF948.4027777777778
aF949.2777777777778
aF950.1
aF950.8722222222223
aF951.6444444444444
aF952.45
aF953.2833333333333
aF954.1944444444445
aF955.1083333333333
aF955.9972222222223
aF956.5555555555555
aF956.8861111111111
aF957.8166666666667
aF958.7444444444444
aF959.3277777777778
aF959.6444444444444
aF960.5194444444444
aF961.3555555555556
aF962.1722222222222
aF962.9555555555555
aF963.7222222222222
aF964.5166666666667
aF965.3777777777777
aF966.2944444444445
aF967.1888888888889
aF968.0888888888888
aF968.95
aF969.5138888888889
aF969.8055555555555
aF970.6861111111111
aF971.5361111111112
aF972.3888888888889
aF972.9222222222222
aF973.2277777777778
aF974.05
aF974.8416666666667
aF975.6277777777777
aF976.3972222222222
aF977.1194444444444
aF977.8388888888888
aF978.5527777777778
aF979.2833333333333
aF980.0916666666667
aF980.9611111111111
aF981.775
aF982.6166666666667
aF983.4666666666667
aF984.3
aF985.0916666666667
aF985.8666666666667
aF986.65
aF987.4194444444445
aF988.2166666666667
aF989.0444444444445
aF989.8888888888889
aF990.7611111111111
aF991.6277777777777
aF992.4916666666667
aF993.3472222222222
aF994.2138888888888
aF995.1083333333333
aF996.0055555555556
aF996.85
aF997.6722222222222
aF998.4666666666667
aF999.2388888888889
aF999.975
aF1000.7305555555556
aF1001.5666666666667
aF1002.4611111111111
aF1003.3194444444445
aF1004.1666666666666
aF1004.6833333333333
aF1005.0305555555556
aF1005.8611111111111
aF1006.7194444444444
aF1007.5222222222222
aF1008.3166666666667
aF1009.0972222222222
aF1009.8833333333333
aF1010.3277777777778
aF1010.6861111111111
aF1011.4944444444444
aF1012.2833333333333
aF1013.0222222222222
aF1013.75
aF1014.4611111111111
aF1015.2027777777778
aF1015.9888888888889
aF1016.7833333333333
aF1017.5805555555555
aF1018.3972222222222
aF1019.2305555555556
aF1020.0166666666667
aF1020.8
aF1021.5722222222222
aF1022.3277777777778
aF1023.1111111111111
aF1023.9138888888889
aF1024.7416666666666
aF1025.5388888888888
aF1026.3055555555557
aF1026.825
aF1027.0666666666666
aF1027.8444444444444
aF1028.625
aF1029.4194444444445
aF1030.2055555555555
aF1030.9805555555556
aF1031.7527777777777
aF1032.5194444444444
aF1033.3277777777778
aF1034.175
aF1035.0583333333334
aF1035.9611111111112
aF1036.5194444444444
aF1036.875
aF1037.7194444444444
aF1038.2166666666667
aF1038.5472222222222
aF1039.3666666666666
aF1040.1888888888889
aF1040.6694444444445
aF1041.0027777777777
aF1041.7944444444445
aF1042.6027777777779
aF1043.411111111111
aF1043.9055555555556
aF1044.2472222222223
aF1045.0916666666667
aF1045.9472222222223
aF1046.8222222222223
aF1047.6833333333334
aF1048.5638888888889
aF1049.4388888888889
aF1050.275
aF1051.0722222222223
aF1051.8444444444444
aF1052.6138888888888
aF1053.4222222222222
aF1054.2527777777777
aF1055.1194444444445
aF1056.0
aF1056.9166666666667
aF1057.8361111111112
aF1058.2583333333334
aF1058.6833333333334
aF1059.1472222222221
aF1059.5194444444444
aF1060.361111111111
aF1060.9083333333333
aF1061.2388888888888
aF1062.1055555555556
aF1062.675
aF1062.9722222222222
aF1063.8777777777777
aF1064.8
aF1065.3861111111112
aF1065.7333333333333
aF1066.6194444444445
aF1067.4416666666666
aF1068.2555555555555
aF1068.8138888888889
aF1069.0638888888889
aF1069.911111111111
aF1070.7611111111112
aF1071.6472222222221
aF1072.0777777777778
aF1072.513888888889
aF1073.0944444444444
aF1073.3694444444445
aF1074.2111111111112
aF1075.0777777777778
aF1075.9722222222222
aF1076.8861111111112
aF1077.7944444444445
aF1078.3666666666666
aF1078.7222222222222
aF1079.6138888888888
aF1080.1777777777777
aF1080.513888888889
aF1081.4027777777778
aF1082.0083333333334
aF1082.3111111111111
aF1083.213888888889
aF1084.1194444444445
aF1085.013888888889
aF1085.8944444444444
aF1086.6861111111111
aF1087.4611111111112
aF1088.2388888888888
aF1088.9527777777778
aF1089.6888888888889
aF1090.4555555555555
aF1091.2805555555556
aF1092.15
aF1092.9944444444445
aF1093.5305555555556
aF1093.8083333333334
aF1094.5972222222222
aF1095.3694444444445
aF1096.1194444444445
aF1096.8694444444445
aF1097.6083333333333
aF1098.3166666666666
aF1098.9972222222223
aF1099.6777777777777
aF1100.35
aF1100.7555555555555
aF1101.0111111111112
aF1101.6805555555557
aF1102.3444444444444
aF1103.0194444444444
aF1103.6666666666667
aF1104.3111111111111
aF1104.9444444444443
aF1105.5833333333333
aF1106.2111111111112
aF1106.8277777777778
aF1107.4416666666666
aF1108.036111111111
aF1108.6472222222221
aF1109.2694444444444
aF1109.9166666666667
aF1110.5805555555555
aF1111.2555555555555
aF1111.9666666666667
aF1112.65
aF1113.3555555555556
aF1114.0555555555557
aF1114.7916666666667
aF1115.5555555555557
aF1116.3138888888889
aF1117.0527777777777
aF1117.7694444444444
aF1118.4722222222222
aF1119.1944444444443
aF1119.9361111111111
aF1120.65
aF1121.3444444444444
aF1122.025
aF1122.6722222222222
aF1123.3305555555555
aF1124.013888888889
aF1124.725
aF1125.45
aF1126.1833333333334
aF1126.9361111111111
aF1127.7083333333333
aF1128.4583333333333
aF1129.2083333333333
aF1129.9527777777778
aF1130.6333333333334
aF1131.3083333333334
aF1131.9361111111111
aF1132.575
aF1133.1972222222223
aF1133.825
aF1134.4611111111112
aF1135.1277777777777
aF1135.8194444444443
aF1136.536111111111
aF1137.025
aF1137.2583333333334
aF1138.05
aF1138.8333333333333
aF1139.5777777777778
aF1140.325
aF1141.0444444444445
aF1141.7666666666667
aF1142.4944444444445
aF1143.1972222222223
aF1143.9027777777778
aF1144.6
aF1145.3027777777777
aF1146.0277777777778
aF1146.7694444444444
aF1147.5027777777777
aF1148.2527777777777
aF1149.0
aF1149.7305555555556
aF1150.1916666666666
aF1150.463888888889
aF1150.9666666666667
aF1151.2
aF1151.9055555555556
aF1152.6027777777779
aF1153.2611111111112
aF1153.675
aF1153.9472222222223
aF1154.6305555555555
aF1155.3111111111111
aF1156.0055555555555
aF1156.4333333333334
aF1156.6944444444443
aF1157.3722222222223
aF1158.0555555555557
aF1158.4694444444444
aF1158.736111111111
aF1159.4277777777777
aF1160.161111111111
aF1160.8861111111112
aF1161.6055555555556
aF1162.3111111111111
aF1162.9944444444445
aF1163.6666666666667
aF1164.3444444444444
aF1165.0333333333333
aF1165.713888888889
aF1166.3916666666667
aF1167.088888888889
aF1167.7916666666667
aF1168.5
aF1168.9583333333333
aF1169.225
aF1169.9472222222223
aF1170.6722222222222
aF1171.3583333333333
aF1172.0777777777778
aF1172.7722222222221
aF1173.45
aF1173.8777777777777
aF1174.1416666666667
aF1174.8166666666666
aF1175.475
aF1176.1277777777777
aF1176.7722222222221
aF1177.4277777777777
aF1178.0944444444444
aF1178.7833333333333
aF1179.475
aF1180.1527777777778
aF1180.838888888889
aF1181.5416666666667
aF1182.2444444444445
aF1182.9722222222222
aF1183.7416666666666
aF1184.5111111111112
aF1185.2833333333333
aF1186.0444444444445
aF1186.8
aF1187.5805555555555
aF1188.325
aF1189.0861111111112
aF1189.8722222222223
aF1190.6305555555555
aF1191.3861111111112
aF1192.1694444444445
aF1192.9277777777777
aF1193.6805555555557
aF1194.4361111111111
aF1195.1583333333333
aF1195.6694444444445
aF1195.925
aF1196.6944444444443
aF1197.45
aF1198.2222222222222
aF1198.9555555555555
aF1199.3972222222221
aF1199.6916666666666
aF1200.4472222222223
aF1201.2
aF1201.9805555555556
aF1202.7666666666667
aF1203.55
aF1204.3416666666667
aF1205.1694444444445
aF1205.95
aF1206.7277777777779
aF1207.5305555555556
aF1208.3638888888888
aF1209.2111111111112
aF1210.0861111111112
aF1210.9333333333334
aF1211.75
aF1212.575
aF1213.361111111111
aF1214.1555555555556
aF1214.963888888889
aF1215.786111111111
aF1216.6138888888888
aF1217.45
aF1218.3138888888889
aF1219.1861111111111
aF1220.025
aF1220.8666666666666
aF1221.7194444444444
aF1222.536111111111
aF1223.3694444444445
aF1224.2111111111112
aF1225.0527777777777
aF1225.8694444444445
aF1226.6888888888889
aF1227.5166666666667
aF1228.3305555555555
aF1229.1166666666666
aF1229.8861111111112
aF1230.6305555555555
aF1231.3861111111112
aF1232.1555555555556
aF1232.9472222222223
aF1233.7305555555556
aF1234.5305555555556
aF1235.3555555555556
aF1236.1916666666666
aF1237.036111111111
aF1237.8583333333333
aF1238.6888888888889
aF1239.4722222222222
aF1240.2472222222223
aF1241.013888888889
aF1241.7944444444445
aF1242.5777777777778
aF1243.3861111111112
aF1244.213888888889
aF1245.0611111111111
aF1245.911111111111
aF1246.75
aF1247.588888888889
aF1248.388888888889
aF1249.1805555555557
aF1249.9888888888888
aF1250.8361111111112
aF1251.65
aF1252.475
aF1253.325
aF1254.2027777777778
aF1255.0777777777778
aF1255.9722222222222
aF1256.8722222222223
aF1257.7472222222223
aF1258.5861111111112
aF1259.4527777777778
aF1260.3138888888889
aF1261.1166666666666
aF1261.911111111111
aF1262.7388888888888
aF1263.4972222222223
aF1264.2694444444444
aF1265.0472222222222
aF1265.8027777777777
aF1266.5083333333334
aF1267.1888888888889
aF1267.8833333333334
aF1268.6138888888888
aF1269.3777777777777
aF1270.1722222222222
aF1270.9666666666667
aF1271.7666666666667
aF1272.588888888889
aF1273.3972222222221
aF1274.1638888888888
aF1274.888888888889
aF1275.6166666666666
aF1276.3444444444444
aF1277.0916666666667
aF1277.85
aF1278.5722222222223
aF1279.3333333333333
aF1280.075
aF1280.838888888889
aF1281.638888888889
aF1282.4527777777778
aF1283.2777777777778
aF1284.0722222222223
aF1284.85
aF1285.6305555555555
aF1286.4444444444443
aF1287.2527777777777
aF1288.0555555555557
aF1288.8638888888888
aF1289.7027777777778
aF1290.4916666666666
aF1291.286111111111
aF1292.0638888888889
aF1292.8055555555557
aF1293.5277777777778
aF1294.25
aF1295.013888888889
aF1295.8222222222223
aF1296.6138888888888
aF1297.4472222222223
aF1298.3055555555557
aF1299.1305555555555
aF1299.9416666666666
aF1300.7555555555555
aF1301.5305555555556
aF1302.2805555555556
aF1303.025
aF1303.75
aF1304.5083333333334
aF1305.286111111111
aF1306.0805555555555
aF1306.8333333333333
aF1307.6222222222223
aF1308.4222222222222
aF1309.2
aF1310.0083333333334
aF1310.825
aF1311.65
aF1312.4444444444443
aF1313.2527777777777
aF1314.0638888888889
aF1314.8666666666666
aF1315.6416666666667
aF1316.4305555555557
aF1317.2277777777779
aF1317.9888888888888
aF1318.7333333333333
aF1319.4694444444444
aF1320.175
aF1320.9166666666667
aF1321.6638888888888
aF1322.45
aF1323.2694444444444
aF1324.0861111111112
aF1324.888888888889
aF1325.6666666666667
aF1326.4694444444444
aF1327.2444444444445
aF1328.0222222222221
aF1328.8083333333334
aF1329.5833333333333
aF1330.3583333333333
aF1331.1333333333334
aF1331.911111111111
aF1332.6861111111111
aF1333.4555555555555
aF1334.2333333333333
aF1335.0277777777778
aF1335.8305555555555
aF1336.6361111111112
aF1337.4361111111111
aF1338.2277777777779
aF1338.9972222222223
aF1339.7444444444445
aF1340.5
aF1341.2583333333334
aF1341.9916666666666
aF1342.7194444444444
aF1343.4888888888888
aF1344.3055555555557
aF1345.1194444444445
aF1345.9527777777778
aF1346.7972222222222
aF1347.6194444444445
aF1348.4361111111111
aF1349.2083333333333
aF1349.9722222222222
aF1350.7
aF1351.4416666666666
aF1352.1888888888889
aF1352.9194444444445
aF1353.6638888888888
aF1354.3944444444444
aF1355.1583333333333
aF1355.9555555555555
aF1356.75
aF1357.55
aF1358.361111111111
aF1359.1722222222222
aF1359.9555555555555
aF1360.7305555555556
aF1361.4666666666667
aF1362.2111111111112
aF1362.9611111111112
aF1363.7416666666666
aF1364.5166666666667
aF1365.2916666666667
aF1366.0944444444444
aF1366.8833333333334
aF1367.6833333333334
aF1368.4888888888888
aF1369.2722222222221
aF1370.0472222222222
aF1370.8166666666666
aF1371.5638888888889
aF1372.3111111111111
aF1373.1
aF1373.925
aF1374.7
aF1375.4888888888888
aF1376.2666666666667
aF1377.0694444444443
aF1377.888888888889
aF1378.7416666666666
aF1379.5555555555557
aF1380.375
aF1381.1527777777778
aF1381.9361111111111
aF1382.7
aF1383.4333333333334
aF1384.1916666666666
aF1384.963888888889
aF1385.7583333333334
aF1386.5805555555555
aF1387.4055555555556
aF1388.1944444444443
aF1389.0305555555556
aF1389.8694444444445
aF1390.6972222222223
aF1391.5166666666667
aF1392.3194444444443
aF1393.088888888889
aF1393.8472222222222
aF1394.611111111111
aF1395.3777777777777
aF1396.0944444444444
aF1396.8138888888889
aF1397.5194444444444
aF1398.2222222222222
aF1398.9444444444443
aF1399.6944444444443
aF1400.4611111111112
aF1401.2194444444444
aF1401.9555555555555
aF1402.6777777777777
aF1403.425
aF1404.15
aF1404.861111111111
aF1405.5833333333333
aF1406.2888888888888
aF1406.9777777777779
aF1407.6888888888889
aF1408.4083333333333
aF1409.1166666666666
aF1409.8194444444443
aF1410.5194444444444
aF1411.2194444444444
aF1411.675
aF1411.9
aF1412.575
aF1413.2388888888888
aF1413.8944444444444
aF1414.5444444444445
aF1415.2
aF1415.8666666666666
aF1416.5638888888889
aF1417.2611111111112
aF1417.9833333333333
aF1418.6972222222223
aF1419.3805555555555
aF1420.0638888888889
aF1420.75
aF1421.1777777777777
aF1421.4361111111111
aF1422.1361111111112
aF1422.8361111111112
aF1423.5444444444445
aF1424.2333333333333
aF1424.725
aF1424.9416666666666
aF1425.6805555555557
aF1426.4444444444443
aF1427.2166666666667
aF1427.986111111111
aF1428.786111111111
aF1429.6055555555556
aF1430.4055555555556
aF1431.2444444444445
aF1432.1055555555556
aF1432.6472222222221
aF1432.95
aF1433.4944444444445
aF1433.786111111111
aF1434.65
aF1435.4888888888888
aF1436.3277777777778
aF1437.1666666666667
aF1437.7527777777777
aF1437.9833333333333
aF1438.7472222222223
aF1439.2972222222222
aF1439.536111111111
aF1440.3166666666666
aF1441.05
aF1441.7722222222221
aF1442.4777777777779
aF1443.213888888889
aF1443.9833333333333
aF1444.7833333333333
aF1445.5694444444443
aF1446.375
aF1447.1944444444443
aF1447.9944444444445
aF1448.8527777777779
aF1449.736111111111
aF1450.3555555555556
aF1450.625
aF1451.5
aF1452.3638888888888
aF1453.2277777777779
aF1454.125
aF1454.95
aF1455.7555555555555
aF1456.536111111111
aF1457.3083333333334
aF1457.8694444444445
aF1458.111111111111
aF1458.8833333333334
aF1459.3722222222223
aF1459.625
aF1459.986111111111
aF1460.1333333333334
aF1460.3444444444444
aF1461.0555555555557
aF1461.763888888889
aF1462.4527777777778
aF1462.8722222222223
aF1463.138888888889
aF1463.8472222222222
aF1464.5222222222221
aF1465.225
aF1465.9388888888889
aF1466.6555555555556
aF1467.4083333333333
aF1468.1472222222221
aF1468.9166666666667
aF1469.6944444444443
aF1470.4888888888888
aF1471.2277777777779
aF1471.963888888889
aF1472.7027777777778
aF1473.411111111111
aF1474.138888888889
aF1474.85
aF1475.5777777777778
aF1476.3361111111112
aF1477.0805555555555
aF1477.8194444444443
aF1478.5472222222222
aF1479.2611111111112
aF1479.975
aF1480.7222222222222
aF1481.5027777777777
aF1482.2833333333333
aF1483.0555555555557
aF1483.7972222222222
aF1484.536111111111
aF1485.2888888888888
aF1486.025
aF1486.7527777777777
aF1487.4666666666667
aF1488.213888888889
aF1489.0194444444444
aF1489.85
aF1490.6361111111112
aF1491.4277777777777
aF1492.2472222222223
aF1493.0388888888888
aF1493.8166666666666
aF1494.6
aF1495.3694444444445
aF1496.1527777777778
aF1496.925
aF1497.6944444444443
aF1498.425
aF1499.1833333333334
aF1499.9305555555557
aF1500.2527777777777
aF1500.661111111111
aF1501.388888888889
aF1502.1194444444445
aF1502.8694444444445
aF1503.661111111111
aF1504.45
aF1505.2333333333333
aF1506.013888888889
aF1506.8083333333334
aF1507.5694444444443
aF1508.3305555555555
aF1509.0833333333333
aF1509.8138888888889
aF1510.5638888888889
aF1511.3333333333333
aF1512.1583333333333
aF1513.0055555555555
aF1513.861111111111
aF1514.6861111111111
aF1515.5027777777777
aF1516.263888888889
aF1517.0111111111112
aF1517.7527777777777
aF1518.5083333333334
aF1519.286111111111
aF1520.0777777777778
aF1520.911111111111
aF1521.7777777777778
aF1522.6361111111112
aF1523.4388888888889
aF1524.2388888888888
aF1525.0305555555556
aF1525.786111111111
aF1526.5222222222221
aF1527.2416666666666
aF1527.9361111111111
aF1528.625
aF1529.3333333333333
aF1530.1055555555556
aF1530.8833333333334
aF1531.6472222222221
aF1532.4027777777778
aF1533.1694444444445
aF1533.9305555555557
aF1534.7055555555555
aF1535.5055555555555
aF1536.2944444444445
aF1537.05
aF1537.8055555555557
aF1538.5666666666666
aF1539.325
aF1540.0777777777778
aF1540.825
aF1541.5611111111111
aF1542.3111111111111
aF1543.0472222222222
aF1543.8027777777777
aF1544.5861111111112
aF1545.3666666666666
aF1546.138888888889
aF1546.925
aF1547.7333333333333
aF1548.5416666666667
aF1549.3444444444444
aF1550.1527777777778
aF1550.9583333333333
aF1551.7916666666667
aF1552.6277777777777
aF1553.5
aF1554.3333333333333
aF1555.1472222222221
aF1555.9416666666666
aF1556.7555555555555
aF1557.5972222222222
aF1558.4472222222223
aF1559.3194444444443
aF1560.1666666666667
aF1560.9888888888888
aF1561.7555555555555
aF1562.2527777777777
aF1562.4888888888888
aF1563.1916666666666
aF1563.85
aF1564.5
aF1565.138888888889
aF1565.7944444444445
aF1566.463888888889
aF1567.1472222222221
aF1567.8527777777779
aF1568.5555555555557
aF1569.2805555555556
aF1570.0111111111112
aF1570.7333333333333
aF1571.425
aF1572.1
aF1572.75
aF1573.4055555555556
aF1574.0638888888889
aF1574.75
aF1575.2222222222222
aF1575.4583333333333
aF1576.1638888888888
aF1576.9166666666667
aF1577.6888888888889
aF1578.4944444444445
aF1579.2916666666667
aF1580.1194444444445
aF1580.95
aF1581.7277777777779
aF1582.5111111111112
aF1583.2888888888888
aF1584.0444444444445
aF1584.8055555555557
aF1585.5388888888888
aF1586.2583333333334
aF1586.9555555555555
aF1587.6666666666667
aF1588.375
aF1589.0972222222222
aF1589.8555555555556
aF1590.6
aF1591.3694444444445
aF1592.1333333333334
aF1592.9416666666666
aF1593.7388888888888
aF1594.5222222222221
aF1595.2833333333333
aF1596.0444444444445
aF1596.7972222222222
aF1597.5305555555556
aF1598.275
aF1598.9972222222223
aF1599.7083333333333
aF1600.4305555555557
aF1601.1555555555556
aF1601.888888888889
aF1602.6472222222221
aF1603.3666666666666
aF1604.088888888889
aF1604.8055555555557
aF1605.3305555555555
aF1605.5111111111112
aF1606.2222222222222
aF1606.9222222222222
aF1607.6277777777777
aF1608.338888888889
aF1609.05
aF1609.7444444444445
aF1610.4444444444443
aF1611.1583333333333
aF1611.8777777777777
aF1612.5972222222222
aF1613.3111111111111
aF1614.0416666666667
aF1614.763888888889
aF1615.475
aF1616.2027777777778
aF1616.911111111111
aF1617.6083333333333
aF1618.3055555555557
aF1618.9833333333333
aF1619.6666666666667
aF1620.3638888888888
aF1621.0555555555557
aF1621.7388888888888
aF1622.4055555555556
aF1623.0805555555555
aF1623.75
aF1624.425
aF1625.1138888888888
aF1625.8111111111111
aF1626.525
aF1627.2194444444444
aF1627.925
aF1628.6305555555555
aF1629.3361111111112
aF1630.0194444444444
aF1630.6972222222223
aF1631.361111111111
aF1632.0055555555555
aF1632.6583333333333
aF1633.325
aF1634.0027777777777
aF1634.6888888888889
aF1635.4166666666667
aF1636.1222222222223
aF1636.8083333333334
aF1637.4833333333333
aF1638.1777777777777
aF1638.8638888888888
aF1639.536111111111
aF1640.2111111111112
aF1640.8833333333334
aF1641.3833333333334
aF1641.575
aF1642.2944444444445
aF1642.9972222222223
aF1643.6972222222223
aF1644.4055555555556
aF1645.1
aF1645.8083333333334
aF1646.5027777777777
aF1647.2333333333333
aF1647.9555555555555
aF1648.6777777777777
aF1649.388888888889
aF1650.1166666666666
aF1650.861111111111
aF1651.6333333333334
aF1652.4277777777777
aF1652.9611111111112
aF1653.2444444444445
aF1654.0222222222221
aF1654.775
aF1655.2416666666666
aF1655.5055555555555
aF1656.2277777777779
aF1656.7083333333333
aF1656.9444444444443
aF1657.6527777777778
aF1658.3583333333333
aF1659.0777777777778
aF1659.8083333333334
aF1660.525
aF1661.0277777777778
aF1661.2805555555556
aF1662.05
aF1662.8027777777777
aF1663.5472222222222
aF1664.2333333333333
aF1664.6861111111111
aF1664.9333333333334
aF1665.611111111111
aF1666.2805555555556
aF1666.9527777777778
aF1667.588888888889
aF1668.2444444444445
aF1668.9083333333333
aF1669.5555555555557
aF1670.2305555555556
aF1670.9027777777778
aF1671.5722222222223
aF1672.2194444444444
aF1672.8666666666666
aF1673.5194444444444
aF1674.1833333333334
aF1674.861111111111
aF1675.55
aF1676.2555555555555
aF1677.0111111111112
aF1677.7972222222222
aF1678.611111111111
aF1679.4555555555555
aF1680.3
aF1681.1083333333333
aF1681.9083333333333
aF1682.7
aF1683.5027777777777
aF1684.2833333333333
aF1685.0527777777777
aF1685.8166666666666
aF1686.5833333333333
aF1687.3555555555556
aF1688.1333333333334
aF1688.8666666666666
aF1689.588888888889
aF1690.3333333333333
aF1691.0583333333334
aF1691.8083333333334
aF1692.588888888889
aF1693.3638888888888
aF1694.1555555555556
aF1694.9027777777778
aF1695.6416666666667
aF1696.3583333333333
aF1697.0694444444443
aF1697.7388888888888
aF1698.4166666666667
aF1698.8333333333333
aF1699.0805555555555
aF1699.7555555555555
aF1700.4194444444445
aF1701.1083333333333
aF1701.8138888888889
aF1702.5111111111112
aF1703.2166666666667
aF1703.661111111111
aF1703.9083333333333
aF1704.6055555555556
aF1705.2916666666667
aF1705.9833333333333
aF1706.6666666666667
aF1707.3527777777779
aF1708.0166666666667
aF1708.6805555555557
aF1709.3472222222222
aF1710.0333333333333
aF1710.7083333333333
aF1711.3555555555556
aF1712.0333333333333
aF1712.6944444444443
aF1713.3694444444445
aF1714.0944444444444
aF1714.8277777777778
aF1715.5805555555555
aF1716.3527777777779
aF1717.1222222222223
aF1717.8777777777777
aF1718.6083333333333
aF1719.338888888889
aF1720.05
aF1720.7472222222223
aF1721.4416666666666
aF1722.1527777777778
aF1722.8555555555556
aF1723.5444444444445
aF1724.2555555555555
aF1724.963888888889
aF1725.6722222222222
aF1726.3944444444444
aF1727.1222222222223
aF1727.8805555555555
aF1728.6694444444445
aF1729.4222222222222
aF1730.1861111111111
aF1730.9333333333334
aF1731.6833333333334
aF1732.4222222222222
aF1733.1444444444444
aF1733.8555555555556
aF1734.5694444444443
aF1735.2694444444444
aF1735.9777777777779
aF1736.675
aF1737.3916666666667
aF1738.1277777777777
aF1738.8361111111112
aF1739.5472222222222
aF1740.2805555555556
aF1741.013888888889
aF1741.7444444444445
aF1742.5
aF1743.2527777777777
aF1743.9888888888888
aF1744.7416666666666
aF1745.4888888888888
aF1746.2222222222222
aF1746.9444444444443
aF1747.6361111111112
aF1748.213888888889
aF1748.6805555555557
aF1748.9055555555556
aF1749.5583333333334
aF1750.225
aF1750.875
aF1751.5527777777777
aF1752.2472222222223
aF1752.9305555555557
aF1753.6277777777777
aF1754.3333333333333
aF1755.0583333333334
aF1755.8638888888888
aF1756.6638888888888
aF1757.5027777777777
aF1758.2916666666667
aF1759.0722222222223
aF1759.8472222222222
aF1760.6361111111112
aF1761.4416666666666
aF1762.2
aF1762.9583333333333
aF1763.713888888889
aF1764.4916666666666
aF1765.275
aF1765.75
aF1766.0416666666667
aF1766.575
aF1766.7777777777778
aF1767.5027777777777
aF1768.225
aF1768.9305555555557
aF1769.65
aF1770.4
aF1771.1194444444445
aF1771.8555555555556
aF1772.5666666666666
aF1773.2916666666667
aF1774.05
aF1774.7944444444445
aF1775.5166666666667
aF1776.225
aF1776.9361111111111
aF1777.6444444444444
aF1778.3583333333333
aF1779.0527777777777
aF1779.7388888888888
aF1780.4166666666667
aF1781.111111111111
aF1781.825
aF1782.5833333333333
aF1783.338888888889
aF1784.1138888888888
aF1784.8777777777777
aF1785.6722222222222
aF1786.5055555555555
aF1787.3361111111112
aF1788.15
aF1788.9361111111111
aF1789.7055555555555
aF1790.475
aF1791.2305555555556
aF1791.9944444444445
aF1792.7277777777779
aF1793.4722222222222
aF1794.2166666666667
aF1794.9805555555556
aF1795.7694444444444
aF1796.536111111111
aF1797.325
aF1798.0944444444444
aF1798.861111111111
aF1799.6138888888888
aF1800.3444444444444
aF1801.0694444444443
aF1801.5388888888888
aF1801.7444444444445
aF1802.4194444444445
aF1803.0722222222223
aF1803.7166666666667
aF1804.3666666666666
aF1805.0194444444444
atp3
Rp4
.