carray
array
p0
(S'd'
p1
(lp2
F0.15833333333333333
aF0.5
aF1.4638888888888888
aF2.352777777777778
aF3.238888888888889
aF4.2
aF5.091666666666667
aF5.786111111111111
aF6.833333333333333
aF7.747222222222222
aF8.577777777777778
aF9.5
aF10.427777777777777
aF11.272222222222222
aF12.183333333333334
aF13.11111111111111
aF13.98611111111111
aF14.938888888888888
aF15.944444444444445
aF16.833333333333332
aF17.819444444444443
aF18.886111111111113
aF19.783333333333335
aF20.77777777777778
aF21.741666666666667
aF22.605555555555554
aF23.55
aF24.494444444444444
aF25.380555555555556
aF26.380555555555556
aF27.369444444444444
aF28.283333333333335
aF29.272222222222222
aF30.258333333333333
aF31.177777777777777
aF32.172222222222224
aF33.102777777777774
aF33.98888888888889
aF34.96944444444444
aF35.94722222222222
aF36.83611111111111
aF37.827777777777776
aF38.74722222222222
aF39.675
aF40.62777777777778
aF41.577777777777776
aF42.46666666666667
aF43.43888888888889
aF44.38055555555555
aF45.291666666666664
aF46.25277777777778
aF47.272222222222226
aF48.202777777777776
aF49.18611111111111
aF50.13611111111111
aF51.03055555555556
aF51.986111111111114
aF52.93055555555556
aF53.794444444444444
aF54.78055555555556
aF55.705555555555556
aF56.59444444444444
aF57.583333333333336
aF58.522222222222226
aF59.397222222222226
aF60.36388888888889
aF61.27777777777778
aF62.16111111111111
aF63.12777777777778
aF64.09444444444445
aF64.9888888888889
aF65.96388888888889
aF66.9
aF67.79166666666667
aF68.80277777777778
aF69.77777777777777
aF70.68333333333334
aF71.69444444444444
aF72.65833333333333
aF73.58888888888889
aF74.55833333333334
aF75.54166666666667
aF76.51666666666667
aF77.42777777777778
aF78.34722222222223
aF79.325
aF80.24444444444444
aF81.20555555555555
aF82.20277777777778
aF83.12777777777778
aF84.11111111111111
aF85.10277777777777
aF86.04166666666667
aF87.01388888888889
aF88.03333333333333
aF88.94166666666666
aF89.88888888888889
aF90.84444444444445
aF91.74166666666666
aF92.65833333333333
aF93.64444444444445
aF94.51666666666667
aF95.20833333333333
aF96.25555555555556
aF97.15555555555555
aF97.61666666666666
aF97.83333333333333
aF98.85277777777777
aF99.59166666666667
aF100.57777777777778
aF101.31666666666666
aF102.33333333333333
aF103.02777777777777
aF104.0111111111111
aF104.75833333333334
aF105.71111111111111
aF106.38333333333334
aF107.37222222222222
aF108.10833333333333
aF109.06666666666666
aF109.74722222222222
aF110.73055555555555
aF111.37777777777778
aF112.38333333333334
aF113.075
aF114.05277777777778
aF114.69722222222222
aF115.68888888888888
aF116.36666666666666
aF117.28055555555555
aF117.9
aF118.85555555555555
aF119.5111111111111
aF120.43611111111112
aF121.10277777777777
aF122.04722222222222
aF122.71388888888889
aF123.68333333333334
aF124.35277777777777
aF125.31388888888888
aF125.95
aF126.92222222222222
aF127.57222222222222
aF128.48888888888888
aF129.13888888888889
aF130.04722222222222
aF130.69444444444446
aF131.6611111111111
aF132.38333333333333
aF133.35833333333332
aF134.025
aF134.99444444444444
aF135.65
aF136.62222222222223
aF137.30833333333334
aF138.28333333333333
aF138.975
aF139.92222222222222
aF140.6
aF141.58333333333334
aF142.24166666666667
aF143.21944444444443
aF143.89444444444445
aF144.84166666666667
aF145.31944444444446
aF146.10555555555555
aF147.20833333333334
aF147.7111111111111
aF147.88611111111112
aF148.3111111111111
aF148.95833333333334
aF149.38888888888889
aF150.30277777777778
aF151.225
aF152.14166666666668
aF153.02777777777777
aF153.9611111111111
aF154.96944444444443
aF155.88333333333333
aF156.88611111111112
aF157.9
aF158.86666666666667
aF159.9111111111111
aF160.92222222222222
aF161.8388888888889
aF162.7888888888889
aF163.7111111111111
aF164.625
aF165.57222222222222
aF166.55277777777778
aF167.48333333333332
aF168.49166666666667
aF169.525
aF170.47222222222223
aF171.5222222222222
aF172.55555555555554
aF173.55
aF174.59444444444443
aF175.63888888888889
aF176.59166666666667
aF177.60833333333332
aF178.55833333333334
aF179.50277777777777
aF180.56666666666666
aF181.53055555555557
aF182.50277777777777
aF183.48888888888888
aF184.42777777777778
aF185.36388888888888
aF186.38055555555556
aF187.36944444444444
aF188.40277777777777
aF189.44166666666666
aF190.4111111111111
aF191.36944444444444
aF192.34444444444443
aF193.29166666666666
aF194.26111111111112
aF195.23055555555555
aF196.20555555555555
aF197.17777777777778
aF198.15
aF199.15277777777777
aF200.1
aF201.075
aF202.06666666666666
aF203.00833333333333
aF203.98055555555555
aF204.98055555555555
aF205.8972222222222
aF206.90833333333333
aF207.88055555555556
aF208.825
aF209.8111111111111
aF210.82777777777778
aF211.75833333333333
aF212.75555555555556
aF213.76388888888889
aF214.70555555555555
aF215.70277777777778
aF216.69722222222222
aF217.6027777777778
aF218.55555555555554
aF219.5222222222222
aF220.40277777777777
aF221.34722222222223
aF222.3111111111111
aF223.17222222222222
aF224.0861111111111
aF225.07222222222222
aF225.95555555555555
aF226.87777777777777
aF227.88055555555556
aF228.80833333333334
aF229.69444444444446
aF230.68055555555554
aF231.6
aF232.4777777777778
aF233.45
aF234.37777777777777
aF235.23611111111111
aF236.2111111111111
aF237.13055555555556
aF237.99444444444444
aF238.9138888888889
aF239.82222222222222
aF240.67777777777778
aF241.60555555555555
aF242.56666666666666
aF243.46944444444443
aF244.41944444444445
aF245.45277777777778
aF246.42777777777778
aF247.37222222222223
aF248.36388888888888
aF249.3111111111111
aF250.23055555555555
aF251.18333333333334
aF252.10555555555555
aF253.00555555555556
aF253.95277777777778
aF254.9611111111111
aF255.86944444444444
aF256.825
aF257.8222222222222
aF258.8
aF259.74444444444447
aF260.74444444444447
aF261.64444444444445
aF262.56111111111113
aF263.51944444444445
aF264.46666666666664
aF265.35277777777776
aF266.35
aF267.2416666666667
aF268.1666666666667
aF269.1277777777778
aF270.09166666666664
aF270.9916666666667
aF271.9916666666667
aF272.9472222222222
aF273.8277777777778
aF274.7861111111111
aF275.7472222222222
aF276.65833333333336
aF277.5861111111111
aF278.56944444444446
aF279.4555555555556
aF280.40277777777777
aF281.34166666666664
aF282.2111111111111
aF283.2111111111111
aF284.18888888888887
aF285.0861111111111
aF286.06944444444446
aF287.02222222222224
aF287.9138888888889
aF288.88055555555553
aF289.80555555555554
aF290.6972222222222
aF291.7
aF292.65
aF293.56388888888887
aF294.56388888888887
aF295.525
aF296.44444444444446
aF297.4583333333333
aF298.4111111111111
aF299.34444444444443
aF300.3333333333333
aF301.28333333333336
aF302.19444444444446
aF303.1666666666667
aF304.09722222222223
aF305.02222222222224
aF305.97777777777776
aF306.9166666666667
aF307.8388888888889
aF308.81111111111113
aF309.80833333333334
aF310.81944444444446
aF311.72222222222223
aF312.68888888888887
aF313.6638888888889
aF314.5777777777778
aF315.5416666666667
aF316.51944444444445
aF317.40555555555557
aF318.38055555555553
aF319.34444444444443
aF320.2388888888889
aF321.1638888888889
aF322.1166666666667
aF322.96666666666664
aF323.9
aF324.81944444444446
aF325.7027777777778
aF326.65833333333336
aF327.68611111111113
aF328.5472222222222
aF329.5138888888889
aF330.43333333333334
aF331.1611111111111
aF332.18333333333334
aF333.1111111111111
aF333.56111111111113
aF333.8
aF334.8
aF335.52222222222224
aF336.55
aF337.27777777777777
aF338.31111111111113
aF339.0027777777778
aF339.9972222222222
aF340.72222222222223
aF341.74444444444447
aF342.44444444444446
aF343.38055555555553
aF344.10833333333335
aF345.03333333333336
aF345.71666666666664
aF346.65555555555557
aF347.3277777777778
aF348.30555555555554
aF348.99444444444447
aF349.9527777777778
aF350.61944444444447
aF351.5861111111111
aF352.2527777777778
aF353.2472222222222
aF353.9166666666667
aF354.8888888888889
aF355.575
aF356.5472222222222
aF357.2138888888889
aF358.15833333333336
aF358.8666666666667
aF359.81666666666666
aF360.5388888888889
aF361.50555555555553
aF362.2027777777778
aF363.1694444444444
aF363.8611111111111
aF364.81388888888887
aF365.44166666666666
aF366.43611111111113
aF367.1277777777778
aF368.06666666666666
aF368.7138888888889
aF369.71666666666664
aF370.4111111111111
aF371.4166666666667
aF372.125
aF373.1333333333333
aF373.85555555555555
aF374.8888888888889
aF375.63055555555553
aF376.6333333333333
aF377.34444444444443
aF378.3222222222222
aF379.0138888888889
aF379.96944444444443
aF380.65555555555557
aF381.6111111111111
aF382.24444444444447
aF383.21666666666664
aF383.9138888888889
aF384.85
aF385.52222222222224
aF386.4861111111111
aF387.1777777777778
aF388.1277777777778
aF388.8361111111111
aF389.7888888888889
aF390.4555555555556
aF391.4194444444444
aF392.1222222222222
aF393.0472222222222
aF393.73055555555555
aF394.65555555555557
aF395.31111111111113
aF396.25
aF396.8861111111111
aF397.81111111111113
aF398.45
aF399.40277777777777
aF400.09166666666664
aF401.0472222222222
aF401.73333333333335
aF402.6722222222222
aF403.3777777777778
aF404.31388888888887
aF404.99444444444447
aF405.98333333333335
aF406.6388888888889
aF407.60833333333335
aF408.2527777777778
aF409.24444444444447
aF409.93611111111113
aF410.9638888888889
aF411.64444444444445
aF412.6138888888889
aF413.3305555555556
aF414.3222222222222
aF414.99444444444447
aF415.97222222222223
aF416.65
aF417.5777777777778
aF418.27222222222224
aF419.22777777777776
aF419.90555555555557
aF420.85555555555555
aF421.5777777777778
aF422.5777777777778
aF423.26666666666665
aF424.22777777777776
aF424.93333333333334
aF425.93055555555554
aF426.6222222222222
aF427.63055555555553
aF428.28333333333336
aF429.2638888888889
aF429.9583333333333
aF430.94166666666666
aF431.59722222222223
aF432.5416666666667
aF433.2138888888889
aF434.1388888888889
aF434.7972222222222
aF435.7472222222222
aF436.44444444444446
aF437.375
aF438.06666666666666
aF439.0416666666667
aF439.68888888888887
aF440.6388888888889
aF441.3
aF442.25555555555553
aF442.8777777777778
aF443.8305555555556
aF444.50555555555553
aF445.4583333333333
aF446.14444444444445
aF447.10833333333335
aF447.77222222222224
aF448.7055555555556
aF449.4111111111111
aF450.3666666666667
aF451.0
aF451.9555555555556
aF452.64722222222224
aF453.6138888888889
aF454.26944444444445
aF455.2527777777778
aF455.9472222222222
aF456.9166666666667
aF457.60277777777776
aF458.64166666666665
aF459.31944444444446
aF460.34166666666664
aF461.0472222222222
aF462.0027777777778
aF462.72777777777776
aF463.725
aF464.4527777777778
aF465.425
aF466.10277777777776
aF467.1361111111111
aF467.8361111111111
aF468.8388888888889
aF469.59722222222223
aF470.6222222222222
aF471.3222222222222
aF472.3722222222222
aF473.09166666666664
aF474.10555555555555
aF474.8638888888889
aF475.89722222222224
aF476.575
aF477.6
aF478.2861111111111
aF479.25
aF479.89166666666665
aF480.9138888888889
aF481.5888888888889
aF482.56111111111113
aF483.28055555555557
aF484.2472222222222
aF484.93611111111113
aF485.93611111111113
aF486.6638888888889
aF487.61944444444447
aF488.31666666666666
aF489.30555555555554
aF489.98333333333335
aF490.93611111111113
aF491.5861111111111
aF492.55833333333334
aF493.2083333333333
aF494.21666666666664
aF494.89166666666665
aF495.85
aF496.525
aF497.5388888888889
aF498.225
aF499.18888888888887
aF499.8611111111111
aF500.80833333333334
aF501.52222222222224
aF502.4638888888889
aF503.14722222222224
aF504.1138888888889
aF504.85555555555555
aF505.8666666666667
aF506.5444444444444
aF507.55555555555554
aF508.28055555555557
aF509.2888888888889
aF509.9527777777778
aF510.9611111111111
aF511.6694444444444
aF512.6583333333333
aF513.35
aF514.35
aF515.0444444444445
aF516.0888888888888
aF516.7583333333333
aF517.7361111111111
aF518.4527777777778
aF519.4722222222222
aF520.1805555555555
aF521.1944444444445
aF521.9138888888889
aF522.9055555555556
aF523.5888888888888
aF524.5972222222222
aF525.2833333333333
aF526.2138888888888
aF526.8861111111111
aF527.8833333333333
aF528.55
aF529.5472222222222
aF530.225
aF531.2305555555556
aF531.9277777777778
aF532.9444444444445
aF533.6027777777778
aF534.5555555555555
aF535.2444444444444
aF536.2305555555556
aF536.8972222222222
aF537.8333333333334
aF538.5388888888889
aF539.5194444444444
aF540.1527777777778
aF541.1111111111111
aF541.7666666666667
aF542.7361111111111
aF543.3555555555556
aF544.3305555555555
aF545.0111111111111
aF545.95
aF546.6027777777778
aF547.6138888888889
aF548.2944444444445
aF549.3
aF550.0027777777777
aF550.9666666666667
aF551.6277777777777
aF552.6055555555556
aF553.3083333333333
aF554.2472222222223
aF554.9277777777778
aF555.8805555555556
aF556.5166666666667
aF557.4666666666667
aF558.1083333333333
aF559.0638888888889
aF559.75
aF560.7694444444444
aF561.4472222222222
aF562.0472222222222
aF562.4055555555556
aF563.2722222222222
aF564.1166666666667
aF565.0027777777777
aF565.9972222222223
aF566.9361111111111
aF567.9194444444445
aF568.9555555555555
aF569.9416666666667
aF570.875
aF571.9055555555556
aF572.8444444444444
aF573.7388888888889
aF574.6527777777778
aF575.5611111111111
aF576.4166666666666
aF577.3583333333333
aF578.2555555555556
aF579.0916666666667
aF580.0083333333333
aF580.9694444444444
aF581.8388888888888
aF582.7833333333333
aF583.7361111111111
aF584.6083333333333
aF585.5527777777778
aF586.5111111111111
aF587.3944444444444
aF588.3194444444445
aF589.2944444444445
aF590.2472222222223
aF591.1666666666666
aF592.2388888888889
aF593.2472222222223
aF594.2277777777778
aF595.25
aF596.2583333333333
aF597.2777777777778
aF598.325
aF599.3388888888888
aF600.2944444444445
aF601.2388888888889
aF602.2027777777778
aF603.1388888888889
aF604.1361111111111
aF605.1638888888889
aF606.1194444444444
aF607.1472222222222
aF608.1833333333333
aF609.1861111111111
aF610.1944444444445
aF611.1972222222222
aF612.125
aF613.1083333333333
aF614.0916666666667
aF615.0027777777777
aF615.9861111111111
aF616.9555555555555
aF617.85
aF618.8333333333334
aF619.8305555555555
aF620.7277777777778
aF621.7222222222222
aF622.6611111111112
aF623.5472222222222
aF624.5055555555556
aF625.4361111111111
aF626.3083333333333
aF627.2916666666666
aF628.2611111111111
aF629.175
aF630.1
aF631.0666666666667
aF632.0
aF632.9055555555556
aF633.8333333333334
aF634.7138888888888
aF635.5638888888889
aF636.4722222222222
aF637.3916666666667
aF638.3138888888889
aF639.2083333333334
aF640.2277777777778
aF641.2027777777778
aF642.1222222222223
aF643.175
aF644.2444444444444
aF645.1694444444445
aF646.15
aF647.1444444444444
aF648.05
aF649.0277777777778
aF650.0305555555556
aF650.9166666666666
aF651.8777777777777
aF652.8583333333333
aF653.7361111111111
aF654.6944444444445
aF655.6555555555556
aF656.5083333333333
aF657.4388888888889
aF658.4083333333333
aF659.3027777777778
aF660.1916666666667
aF661.1027777777778
aF661.9888888888889
aF662.8583333333333
aF663.7888888888889
aF664.7166666666667
aF665.6416666666667
aF666.5416666666666
aF667.5611111111111
aF668.5444444444445
aF669.4583333333334
aF670.4388888888889
aF671.4361111111111
aF672.3527777777778
aF673.3277777777778
aF674.3138888888889
aF675.2388888888889
aF676.2388888888889
aF677.2333333333333
aF678.1333333333333
aF679.0972222222222
aF680.0444444444445
aF680.9361111111111
aF681.8361111111111
aF682.8027777777778
aF683.7194444444444
aF684.6111111111111
aF685.5722222222222
aF686.5333333333333
aF687.4111111111112
aF688.3833333333333
aF689.3194444444445
aF690.2194444444444
aF691.15
aF692.1
aF692.9694444444444
aF693.9166666666666
aF694.8555555555556
aF695.75
aF696.6861111111111
aF697.6638888888889
aF698.5416666666666
aF699.45
aF700.3861111111111
aF701.3416666666667
aF702.2361111111111
aF703.2444444444444
aF704.2166666666667
aF705.15
aF706.0888888888888
aF707.0611111111111
aF707.9805555555556
aF708.9333333333333
aF709.8805555555556
aF710.7972222222222
aF711.7444444444444
aF712.6611111111112
aF713.3944444444444
aF714.45
aF715.3305555555555
aF716.2166666666667
aF717.1333333333333
aF718.0722222222222
aF718.9805555555556
aF719.9805555555556
aF720.9722222222222
aF721.9194444444445
aF722.8805555555556
aF723.8638888888889
aF724.8194444444445
aF725.7611111111111
aF726.7361111111111
aF727.6722222222222
aF728.5666666666667
aF729.5194444444444
aF730.4388888888889
aF731.3083333333333
aF732.2888888888889
aF733.2361111111111
aF734.0916666666667
aF735.0527777777778
aF736.0333333333333
aF736.9611111111111
aF737.9138888888889
aF738.8888888888889
aF739.8361111111111
aF740.7833333333333
aF741.7972222222222
aF742.7833333333333
aF743.7472222222223
aF744.7416666666667
aF745.6944444444445
aF746.6333333333333
aF747.5833333333334
aF748.5138888888889
aF749.3972222222222
aF750.3111111111111
aF751.2194444444444
aF752.0972222222222
aF753.0083333333333
aF753.9027777777778
aF754.7833333333333
aF755.6972222222222
aF756.6361111111111
aF757.5305555555556
aF758.5611111111111
aF759.5444444444445
aF760.5083333333333
aF761.4777777777778
aF762.4527777777778
aF763.3722222222223
aF764.3388888888888
aF765.2361111111111
aF766.1194444444444
aF767.025
aF767.9583333333334
aF768.8444444444444
aF769.8555555555556
aF770.8638888888889
aF771.8444444444444
aF772.8388888888888
aF773.8638888888889
aF774.8638888888889
aF775.7805555555556
aF776.7472222222223
aF777.7444444444444
aF778.6666666666666
aF779.6194444444444
aF780.5861111111111
aF781.5055555555556
aF782.4416666666667
aF783.3722222222223
aF784.2944444444445
aF785.2027777777778
aF786.2083333333334
aF787.1861111111111
aF788.1361111111111
aF789.1055555555556
aF790.075
aF791.0027777777777
aF791.975
aF792.925
aF793.8444444444444
aF794.7444444444444
aF795.6861111111111
aF796.5861111111111
aF797.5138888888889
aF798.45
aF799.35
aF799.8361111111111
aF800.0444444444445
aF801.0583333333333
aF801.8
aF802.7722222222222
aF803.4916666666667
aF804.5388888888889
aF805.2555555555556
aF806.2444444444444
aF806.9833333333333
aF808.0055555555556
aF808.6944444444445
aF809.6833333333333
aF810.3833333333333
aF811.3277777777778
aF811.975
aF812.9277777777778
aF813.5916666666667
aF814.5222222222222
aF815.225
aF816.1527777777778
aF816.7805555555556
aF817.7333333333333
aF818.4444444444445
aF819.4083333333333
aF820.0638888888889
aF821.0416666666666
aF821.7194444444444
aF822.6583333333333
aF823.3194444444445
aF824.2777777777778
aF824.9388888888889
aF825.8888888888889
aF826.5972222222222
aF827.5416666666666
aF828.2222222222222
aF829.2138888888888
aF829.925
aF830.8472222222222
aF831.5111111111111
aF832.4861111111111
aF833.1222222222223
aF834.0777777777778
aF834.7194444444444
aF835.6638888888889
aF836.3305555555555
aF837.2694444444444
aF837.9333333333333
aF838.8555555555556
aF839.5472222222222
aF840.5305555555556
aF841.2138888888888
aF842.1638888888889
aF842.9083333333333
aF843.9333333333333
aF844.6277777777777
aF845.6277777777777
aF846.3444444444444
aF847.3222222222222
aF848.0027777777777
aF848.9888888888889
aF849.6444444444444
aF850.5972222222222
aF851.2833333333333
aF852.2638888888889
aF852.9305555555555
aF853.875
aF854.5722222222222
aF855.5111111111111
aF856.1861111111111
aF857.1361111111111
aF857.8472222222222
aF858.8166666666667
aF859.55
aF860.5444444444445
aF861.2027777777778
aF862.1777777777778
aF862.8833333333333
aF863.8944444444444
aF864.5777777777778
aF865.5888888888888
aF866.2805555555556
aF867.3027777777778
aF867.975
aF869.0027777777777
aF869.7055555555555
aF870.7222222222222
aF871.4472222222222
aF872.4083333333333
aF873.0666666666667
aF874.0722222222222
aF874.7222222222222
aF875.6611111111112
aF876.3861111111111
aF877.3194444444445
aF877.9777777777778
aF878.9694444444444
aF879.6805555555555
aF880.6472222222222
aF881.3222222222222
aF882.3333333333334
aF883.0333333333333
aF884.0333333333333
aF884.7388888888889
aF885.7333333333333
aF886.3694444444444
aF887.3916666666667
aF888.0861111111111
aF889.0388888888889
aF889.7277777777778
aF890.7416666666667
aF891.45
aF892.4583333333334
aF893.1638888888889
aF894.1222222222223
aF894.8083333333333
aF895.8055555555555
aF896.5138888888889
aF897.4638888888888
aF898.1833333333333
aF899.2027777777778
aF899.8833333333333
aF900.9083333333333
aF901.625
aF902.6027777777778
aF903.3277777777778
aF904.3222222222222
aF904.9916666666667
aF905.9527777777778
aF906.6444444444444
aF907.6277777777777
aF908.3194444444445
aF909.2805555555556
aF909.9805555555556
aF910.9388888888889
aF911.6361111111111
aF912.6138888888889
aF913.275
aF914.2555555555556
aF914.9916666666667
aF915.9555555555555
aF916.6277777777777
aF917.6138888888889
aF918.3027777777778
aF919.2833333333333
aF919.9916666666667
aF920.9861111111111
aF921.6861111111111
aF922.65
aF923.3388888888888
aF924.3027777777778
aF924.9861111111111
aF925.975
aF926.6361111111111
aF927.5888888888888
aF928.275
aF929.2555555555556
aF929.9277777777778
aF930.8777777777777
aF931.5972222222222
aF932.6027777777778
aF933.2611111111111
aF934.2666666666667
aF934.9805555555556
aF935.9527777777778
aF936.6694444444445
aF937.6972222222222
aF938.3777777777777
aF939.3666666666667
aF940.0833333333334
aF941.1027777777778
aF941.7583333333333
aF942.7888888888889
aF943.5055555555556
aF944.4861111111111
aF945.1722222222222
aF946.15
aF946.8361111111111
aF947.7666666666667
aF948.4694444444444
aF949.4083333333333
aF950.1111111111111
aF951.0777777777778
aF951.7888888888889
aF952.7527777777777
aF953.4833333333333
aF954.4972222222223
aF955.1777777777778
aF956.1527777777778
aF956.875
aF957.8611111111111
aF958.5222222222222
aF959.5305555555556
aF960.2083333333334
aF961.1666666666666
aF961.8111111111111
aF962.7944444444445
aF963.4916666666667
aF964.4722222222222
aF965.1888888888889
aF966.1583333333333
aF966.8277777777778
aF967.8333333333334
aF968.5388888888889
aF969.5138888888889
aF970.2361111111111
aF971.1972222222222
aF971.8861111111111
aF972.9
aF973.5722222222222
aF974.5333333333333
aF975.1944444444445
aF976.1944444444445
aF976.8694444444444
aF977.7916666666666
aF978.4277777777778
aF979.4027777777778
aF980.0805555555555
aF981.0388888888889
aF981.7222222222222
aF982.6611111111112
aF983.3472222222222
aF984.3333333333334
aF984.9916666666667
aF985.9444444444445
aF986.6638888888889
aF987.6361111111111
aF988.2805555555556
aF989.2388888888889
aF989.9111111111112
aF990.8555555555556
aF991.5083333333333
aF992.4972222222223
aF993.1777777777778
aF994.1111111111111
aF994.8055555555555
aF995.8027777777778
aF996.4888888888889
aF997.4694444444444
aF998.2166666666667
aF999.2222222222222
aF999.9194444444445
aF1000.9444444444445
aF1001.6972222222222
aF1002.6805555555555
aF1003.4055555555556
aF1004.3972222222222
aF1005.0611111111111
aF1006.0333333333333
aF1006.725
aF1007.6722222222222
aF1008.3305555555555
aF1009.3222222222222
aF1010.0111111111111
aF1011.0
aF1011.6444444444444
aF1012.6472222222222
aF1013.3305555555555
aF1014.3305555555555
aF1015.0305555555556
aF1015.975
aF1016.6694444444445
aF1017.6444444444444
aF1018.3305555555555
aF1019.3
aF1019.9916666666667
aF1020.95
aF1021.6527777777778
aF1022.625
aF1023.3444444444444
aF1024.3111111111111
aF1024.9805555555556
aF1026.0027777777777
aF1026.7111111111112
aF1027.6888888888889
aF1028.4
aF1029.4083333333333
aF1030.1333333333334
aF1031.1888888888889
aF1031.9
aF1032.8833333333334
aF1033.5777777777778
aF1034.5638888888889
aF1035.2194444444444
aF1036.175
aF1036.8666666666666
aF1037.8027777777777
aF1038.4833333333333
aF1039.4694444444444
aF1040.1666666666667
aF1041.1777777777777
aF1041.9305555555557
aF1042.9416666666666
aF1043.6194444444445
aF1044.236111111111
aF1044.6222222222223
aF1045.4972222222223
aF1046.325
aF1047.3
aF1048.25
aF1049.1361111111112
aF1050.1944444444443
aF1051.263888888889
aF1052.2694444444444
aF1053.3777777777777
aF1054.3833333333334
aF1055.3666666666666
aF1056.388888888889
aF1057.3472222222222
aF1058.3055555555557
aF1059.3055555555557
aF1060.2611111111112
aF1061.1861111111111
aF1062.1305555555555
aF1063.0694444444443
aF1064.0
aF1064.9416666666666
aF1065.8972222222221
aF1066.7833333333333
aF1067.7777777777778
aF1068.7611111111112
aF1069.7194444444444
aF1070.6888888888889
aF1071.6638888888888
aF1072.5833333333333
aF1073.588888888889
aF1074.5833333333333
aF1075.5416666666667
aF1076.525
aF1077.4944444444445
aF1078.4027777777778
aF1079.338888888889
aF1080.2472222222223
aF1081.1305555555555
aF1082.0222222222221
aF1082.9388888888889
aF1083.8333333333333
aF1084.8083333333334
aF1085.8361111111112
aF1086.7972222222222
aF1087.7805555555556
aF1088.8
aF1089.7555555555555
aF1090.7222222222222
aF1091.7472222222223
aF1092.6694444444445
aF1093.6361111111112
aF1094.6416666666667
aF1095.588888888889
aF1096.5833333333333
aF1097.638888888889
aF1098.575
aF1099.5333333333333
aF1100.4722222222222
aF1101.3472222222222
aF1102.2777777777778
aF1103.2333333333333
aF1104.0944444444444
aF1105.0611111111111
aF1106.0666666666666
aF1106.975
aF1107.9527777777778
aF1109.0111111111112
aF1109.975
aF1110.911111111111
aF1111.8861111111112
aF1112.8416666666667
aF1113.7805555555556
aF1114.7527777777777
aF1115.7472222222223
aF1116.6805555555557
aF1117.7111111111112
aF1118.7027777777778
aF1119.6555555555556
aF1120.5916666666667
aF1121.5111111111112
aF1122.4083333333333
aF1123.35
aF1124.2944444444445
aF1125.175
aF1126.0777777777778
aF1127.013888888889
aF1127.9166666666667
aF1128.8472222222222
aF1129.875
aF1130.85
aF1131.75
aF1132.713888888889
aF1133.6777777777777
aF1134.5416666666667
aF1135.513888888889
aF1136.4666666666667
aF1137.3361111111112
aF1138.2
aF1139.1166666666666
aF1140.0
aF1140.9083333333333
aF1141.8722222222223
aF1142.861111111111
aF1143.7944444444445
aF1144.8416666666667
aF1145.8166666666666
aF1146.7888888888888
aF1147.763888888889
aF1148.7333333333333
aF1149.65
aF1150.6222222222223
aF1151.5916666666667
aF1152.5388888888888
aF1153.513888888889
aF1154.4805555555556
aF1155.4
aF1156.3638888888888
aF1157.3138888888889
aF1158.2416666666666
aF1159.1861111111111
aF1160.161111111111
aF1161.1305555555555
aF1162.036111111111
aF1162.9777777777779
aF1163.9722222222222
aF1164.85
aF1165.8416666666667
aF1166.911111111111
aF1167.8472222222222
aF1168.9361111111111
aF1169.9694444444444
aF1170.9194444444445
aF1171.861111111111
aF1172.8027777777777
aF1173.6833333333334
aF1174.6944444444443
aF1175.7055555555555
aF1176.65
aF1177.6916666666666
aF1178.7027777777778
aF1179.6555555555556
aF1180.6805555555557
aF1181.638888888889
aF1182.5555555555557
aF1183.5027777777777
aF1184.4166666666667
aF1185.3555555555556
aF1186.2972222222222
aF1187.2277777777779
aF1188.2277777777779
aF1189.2111111111112
aF1190.1583333333333
aF1191.1888888888889
aF1192.161111111111
aF1193.0722222222223
aF1194.0833333333333
aF1195.0944444444444
aF1196.0583333333334
aF1197.1444444444444
aF1198.1861111111111
aF1199.1805555555557
aF1200.1861111111111
aF1201.1416666666667
aF1202.0833333333333
aF1202.9583333333333
aF1203.8527777777779
aF1204.7
aF1205.1527777777778
aF1205.4055555555556
aF1206.3527777777779
aF1207.0388888888888
aF1208.0388888888888
aF1208.6861111111111
aF1209.6527777777778
aF1210.325
aF1211.3027777777777
aF1211.975
aF1212.9611111111112
aF1213.6583333333333
aF1214.6166666666666
aF1215.3166666666666
aF1216.325
aF1217.0166666666667
aF1218.0111111111112
aF1218.6777777777777
aF1219.675
aF1220.3833333333334
aF1221.3583333333333
aF1222.0555555555557
aF1222.986111111111
aF1223.7305555555556
aF1224.7222222222222
aF1225.361111111111
aF1226.3361111111112
aF1227.025
aF1228.0416666666667
aF1228.713888888889
aF1229.6916666666666
aF1230.3638888888888
aF1231.3333333333333
aF1232.013888888889
aF1232.9722222222222
aF1233.6305555555555
aF1234.55
aF1235.2305555555556
aF1236.1666666666667
aF1236.8333333333333
aF1237.786111111111
aF1238.4722222222222
aF1239.4083333333333
aF1240.0611111111111
aF1241.0277777777778
aF1241.6972222222223
aF1242.6361111111112
aF1243.3305555555555
aF1244.3277777777778
aF1245.0444444444445
aF1245.625
aF1246.0638888888889
aF1246.9194444444445
aF1247.7777777777778
aF1248.7972222222222
aF1249.838888888889
aF1250.8333333333333
aF1252.0222222222221
aF1253.1138888888888
aF1254.138888888889
aF1255.1638888888888
aF1256.1055555555556
aF1257.0916666666667
aF1258.0666666666666
aF1259.0277777777778
aF1259.9416666666666
aF1260.8472222222222
aF1261.7333333333333
aF1262.7083333333333
aF1263.6555555555556
aF1264.5861111111112
aF1265.6
aF1266.5944444444444
aF1267.536111111111
aF1268.5333333333333
aF1269.4666666666667
aF1270.3638888888888
aF1271.338888888889
aF1272.2222222222222
aF1273.125
aF1274.013888888889
aF1274.4666666666667
aF1274.661111111111
aF1275.6555555555556
aF1276.3222222222223
aF1277.3055555555557
aF1277.9694444444444
aF1278.9361111111111
aF1279.6305555555555
aF1280.5611111111111
aF1281.236111111111
aF1282.2083333333333
aF1282.8666666666666
aF1283.8222222222223
aF1284.5111111111112
aF1285.45
aF1286.1166666666666
aF1287.0944444444444
aF1287.7888888888888
aF1288.7666666666667
aF1289.463888888889
aF1290.4527777777778
aF1291.1555555555556
aF1292.1222222222223
aF1292.8277777777778
aF1293.8166666666666
aF1294.475
aF1295.4777777777779
aF1296.1472222222221
aF1297.0583333333334
aF1297.7111111111112
aF1298.6666666666667
aF1299.3305555555555
aF1300.2944444444445
aF1301.0
aF1301.9694444444444
aF1302.6666666666667
aF1303.675
aF1304.4194444444445
aF1305.3972222222221
aF1306.1666666666667
aF1307.2
aF1307.9
aF1308.9083333333333
aF1309.6472222222221
aF1310.661111111111
aF1311.3333333333333
aF1312.35
aF1313.0333333333333
aF1314.0083333333334
aF1314.661111111111
aF1315.6527777777778
aF1316.3194444444443
aF1317.2833333333333
aF1317.9583333333333
aF1318.911111111111
aF1319.5944444444444
aF1320.5944444444444
aF1321.2694444444444
aF1322.2388888888888
aF1322.9361111111111
aF1323.9194444444445
aF1324.5722222222223
aF1325.5777777777778
aF1326.275
aF1327.225
aF1327.888888888889
aF1328.9194444444445
aF1329.5722222222223
aF1330.588888888889
aF1331.3111111111111
aF1332.3055555555557
aF1332.9555555555555
aF1333.9916666666666
aF1334.6888888888889
aF1335.6916666666666
aF1336.45
aF1337.4611111111112
aF1338.1527777777778
aF1339.1277777777777
aF1339.8583333333333
aF1340.861111111111
aF1341.525
aF1342.525
aF1343.2916666666667
aF1344.2444444444445
aF1344.9388888888889
aF1345.9277777777777
aF1346.6055555555556
aF1347.6083333333333
aF1348.3138888888889
aF1349.275
aF1349.9611111111112
aF1350.9472222222223
aF1351.6
aF1352.5555555555557
aF1353.2388888888888
aF1354.1888888888889
aF1354.8166666666666
aF1355.8027777777777
aF1356.4722222222222
aF1357.425
aF1358.1277777777777
aF1359.1277777777777
aF1359.85
aF1360.8472222222222
aF1361.5722222222223
aF1362.5611111111111
aF1363.2472222222223
aF1364.2777777777778
aF1365.0194444444444
aF1365.9944444444445
aF1366.6861111111111
aF1367.713888888889
aF1368.4083333333333
aF1369.4083333333333
aF1370.1333333333334
aF1371.0944444444444
aF1371.7777777777778
aF1372.8138888888889
aF1373.5027777777777
aF1374.5
aF1375.175
aF1376.15
aF1376.8277777777778
aF1377.8111111111111
aF1378.4694444444444
aF1379.425
aF1380.111111111111
aF1381.1194444444445
aF1381.8277777777778
aF1382.7888888888888
aF1383.5472222222222
aF1384.5472222222222
aF1385.2777777777778
aF1386.2888888888888
aF1387.0166666666667
aF1388.013888888889
aF1388.7472222222223
aF1389.7527777777777
aF1390.375
aF1391.3722222222223
aF1392.0972222222222
aF1393.0694444444443
aF1393.7166666666667
aF1394.7194444444444
aF1395.4166666666667
aF1396.3583333333333
aF1397.0305555555556
aF1398.0
aF1398.675
aF1399.6444444444444
aF1400.3111111111111
aF1401.3027777777777
aF1402.0166666666667
aF1403.0166666666667
aF1403.736111111111
aF1404.7277777777779
aF1405.45
aF1406.4472222222223
aF1407.1694444444445
aF1408.2055555555555
aF1408.9138888888888
aF1409.5694444444443
aF1409.9361111111111
aF1410.8361111111112
aF1411.6944444444443
aF1412.5861111111112
aF1413.55
aF1414.463888888889
aF1415.3777777777777
aF1416.35
aF1417.2611111111112
aF1418.2277777777779
aF1419.2611111111112
aF1420.2111111111112
aF1421.2027777777778
aF1422.2277777777779
aF1423.1777777777777
aF1424.1805555555557
aF1425.2027777777778
aF1426.138888888889
aF1427.1055555555556
aF1428.0805555555555
aF1428.9777777777779
aF1429.9583333333333
aF1430.9527777777778
aF1431.8833333333334
aF1432.8805555555555
aF1433.8833333333334
aF1434.8472222222222
aF1435.8444444444444
aF1436.8722222222223
aF1437.8361111111112
aF1438.8694444444445
aF1439.861111111111
aF1440.8694444444445
aF1441.838888888889
aF1442.8027777777777
aF1443.8305555555555
aF1444.7694444444444
aF1445.7722222222221
aF1446.7583333333334
aF1447.7527777777777
aF1448.7611111111112
aF1449.7472222222223
aF1450.75
aF1451.763888888889
aF1452.7611111111112
aF1453.7666666666667
aF1454.8027777777777
aF1455.7722222222221
aF1456.7555555555555
aF1457.7555555555555
aF1458.7111111111112
aF1459.7472222222223
aF1460.8055555555557
aF1461.7583333333334
aF1462.7722222222221
aF1463.8166666666666
aF1464.7944444444445
aF1465.8083333333334
aF1466.7833333333333
aF1467.713888888889
aF1468.7222222222222
aF1469.7333333333333
aF1470.6527777777778
aF1471.6666666666667
aF1472.6361111111112
aF1473.5527777777777
aF1474.5166666666667
aF1475.4694444444444
aF1476.3444444444444
aF1477.3166666666666
aF1478.2611111111112
aF1479.138888888889
aF1480.1333333333334
aF1481.0972222222222
aF1481.9916666666666
aF1482.9694444444444
aF1483.9222222222222
aF1484.8305555555555
aF1485.8194444444443
aF1486.7666666666667
aF1487.6805555555557
aF1488.7055555555555
aF1489.6805555555557
aF1490.5916666666667
aF1491.6
aF1492.5444444444445
aF1493.486111111111
aF1494.4416666666666
aF1495.486111111111
aF1496.4611111111112
aF1497.4444444444443
aF1498.4555555555555
aF1499.4472222222223
aF1500.4055555555556
aF1501.45
aF1502.4333333333334
aF1503.4833333333333
aF1504.5722222222223
aF1505.5611111111111
aF1506.5694444444443
aF1507.611111111111
aF1508.5777777777778
aF1509.5944444444444
aF1510.5722222222223
aF1511.4888888888888
aF1512.486111111111
aF1513.5
aF1514.4527777777778
aF1515.525
aF1516.5527777777777
aF1517.5
aF1518.5444444444445
aF1519.4833333333333
aF1520.425
aF1521.4333333333334
aF1522.3722222222223
aF1523.3
aF1524.2833333333333
aF1525.2305555555556
aF1526.2111111111112
aF1527.2472222222223
aF1528.2916666666667
aF1529.263888888889
aF1530.3194444444443
aF1531.388888888889
aF1532.3666666666666
aF1533.4027777777778
aF1534.4305555555557
aF1535.3805555555555
aF1536.3722222222223
aF1537.361111111111
aF1538.2694444444444
aF1539.2305555555556
aF1540.2055555555555
aF1541.1583333333333
aF1542.1138888888888
aF1543.1444444444444
aF1544.0666666666666
aF1544.9777777777779
aF1545.9138888888888
aF1546.7888888888888
aF1547.736111111111
aF1548.7666666666667
aF1549.6583333333333
aF1550.6777777777777
aF1551.7333333333333
aF1552.6666666666667
aF1553.7027777777778
aF1554.6361111111112
aF1555.5472222222222
aF1556.4361111111111
aF1557.4194444444445
aF1558.2972222222222
aF1559.2916666666667
aF1560.2611111111112
aF1561.1638888888888
aF1562.1916666666666
aF1563.2472222222223
aF1564.1666666666667
aF1565.2527777777777
aF1566.2444444444445
aF1567.1861111111111
aF1568.2305555555556
aF1569.1861111111111
aF1570.1361111111112
aF1571.0805555555555
aF1571.975
aF1572.8694444444445
aF1573.8361111111112
aF1574.7694444444444
aF1575.7194444444444
aF1576.725
aF1577.7027777777778
aF1578.6277777777777
aF1579.6833333333334
aF1580.661111111111
aF1581.6305555555555
aF1582.625
aF1583.5861111111112
aF1584.5333333333333
aF1585.5
aF1586.4888888888888
aF1587.4083333333333
aF1588.3444444444444
aF1589.2888888888888
aF1590.1833333333334
aF1591.1444444444444
aF1592.1333333333334
aF1593.025
aF1594.0083333333334
aF1594.9777777777779
aF1595.9138888888888
aF1596.8833333333334
aF1597.8833333333334
aF1598.8111111111111
aF1599.8055555555557
aF1600.8555555555556
aF1601.8027777777777
aF1602.8
aF1603.8
aF1604.7
aF1605.6333333333334
aF1606.536111111111
aF1607.2388888888888
aF1608.2972222222222
aF1609.1972222222223
aF1610.0305555555556
aF1610.975
aF1611.9416666666666
aF1612.825
aF1613.8305555555555
aF1614.8694444444445
aF1615.8166666666666
aF1616.8083333333334
aF1617.825
aF1618.7472222222223
aF1619.7583333333334
aF1620.713888888889
aF1621.6416666666667
aF1622.6666666666667
aF1623.6527777777778
aF1624.55
aF1625.513888888889
aF1626.4277777777777
aF1627.3055555555557
aF1628.2527777777777
aF1629.2
aF1630.0944444444444
aF1631.0972222222222
aF1632.0583333333334
aF1632.986111111111
aF1634.0277777777778
aF1634.9944444444445
aF1635.9583333333333
aF1636.9416666666666
aF1637.9138888888888
aF1638.8333333333333
aF1639.8472222222222
aF1640.8027777777777
aF1641.7472222222223
aF1642.7
aF1643.638888888889
aF1644.5555555555557
aF1645.4805555555556
aF1646.425
aF1647.3444444444444
aF1648.3111111111111
aF1649.3
aF1650.2277777777779
aF1651.1861111111111
aF1652.1944444444443
aF1653.138888888889
aF1654.05
aF1655.075
aF1656.1
aF1657.0388888888888
aF1658.088888888889
aF1659.088888888889
aF1660.0194444444444
aF1661.0805555555555
aF1662.0555555555557
aF1662.9805555555556
aF1663.9527777777778
aF1664.8555555555556
aF1665.7555555555555
aF1666.725
aF1667.6777777777777
aF1668.65
aF1669.6083333333333
aF1670.5944444444444
aF1671.536111111111
aF1672.5027777777777
aF1673.4944444444445
aF1674.4611111111112
aF1675.4361111111111
aF1676.3916666666667
aF1677.3555555555556
aF1678.3222222222223
aF1679.2555555555555
aF1680.2083333333333
aF1681.1333333333334
aF1682.0611111111111
aF1682.9833333333333
aF1683.911111111111
aF1684.8944444444444
aF1685.8416666666667
aF1686.8027777777777
aF1687.7972222222222
aF1688.7388888888888
aF1689.725
aF1690.7444444444445
aF1691.6805555555557
aF1692.6222222222223
aF1693.575
aF1694.536111111111
aF1695.4611111111112
aF1696.4583333333333
aF1697.425
aF1698.3444444444444
aF1699.3361111111112
aF1700.3333333333333
aF1701.2583333333334
aF1702.2611111111112
aF1703.2055555555555
aF1704.1333333333334
aF1705.1361111111112
aF1706.1222222222223
aF1707.1166666666666
aF1708.1222222222223
aF1709.1722222222222
aF1710.175
aF1711.1944444444443
aF1712.2027777777778
aF1713.1694444444445
aF1714.1361111111112
aF1715.1
aF1716.0583333333334
aF1717.0083333333334
aF1718.0
aF1718.9361111111111
aF1719.861111111111
aF1720.8333333333333
aF1721.7722222222221
aF1722.725
aF1723.7611111111112
aF1724.6861111111111
aF1725.6638888888888
aF1726.675
aF1727.6305555555555
aF1728.6138888888888
aF1729.6333333333334
aF1730.575
aF1731.5222222222221
aF1732.5111111111112
aF1733.4694444444444
aF1734.4194444444445
aF1735.4055555555556
aF1736.3805555555555
aF1737.3111111111111
aF1738.2972222222222
aF1739.2444444444445
aF1740.1833333333334
aF1741.1138888888888
aF1742.0444444444445
aF1742.9583333333333
aF1743.9027777777778
aF1744.8777777777777
aF1745.8055555555557
aF1746.7277777777779
aF1747.7083333333333
aF1748.7472222222223
aF1749.6833333333334
aF1750.6972222222223
aF1751.6777777777777
aF1752.5777777777778
aF1753.5583333333334
aF1754.5333333333333
aF1755.4166666666667
aF1756.3805555555555
aF1757.2833333333333
aF1757.9944444444445
aF1759.0305555555556
aF1759.9472222222223
aF1760.8055555555557
aF1761.7833333333333
aF1762.7388888888888
aF1763.6305555555555
aF1764.6138888888888
aF1765.6194444444445
aF1766.5611111111111
aF1767.6277777777777
aF1768.6333333333334
aF1769.6055555555556
aF1770.6444444444444
aF1771.6305555555555
aF1772.5944444444444
aF1773.5916666666667
aF1774.513888888889
aF1775.4472222222223
aF1776.425
aF1777.3694444444445
aF1778.3444444444444
aF1779.3333333333333
aF1780.338888888889
aF1781.2916666666667
aF1782.3027777777777
aF1783.3055555555557
aF1784.2888888888888
aF1785.2972222222222
aF1786.3166666666666
aF1787.2888888888888
aF1788.263888888889
aF1789.2805555555556
aF1790.2222222222222
aF1791.2027777777778
aF1792.15
aF1793.0944444444444
aF1793.9944444444445
aF1794.9083333333333
aF1795.6416666666667
aF1796.6694444444445
aF1797.5777777777778
aF1798.4416666666666
aF1799.3805555555555
aF1800.3444444444444
aF1801.2666666666667
aF1802.2527777777777
aF1803.1722222222222
aF1804.1694444444445
aF1805.1722222222222
atp3
Rp4
.