carray
array
p0
(S'd'
p1
(lp2
F28.0
aF3.0
aF3.0
aF3.0
aF3.0
aF3.0
aF3.0
aF22.0
aF3.0
aF3.0
aF3.0
aF3.0
aF3.0
aF3.0
aF3.0
aF3.0
aF3.0
aF3.0
aF3.0
aF3.0
aF3.0
aF3.0
aF3.0
aF3.0
aF3.0
aF3.0
aF3.0
aF3.0
aF3.0
aF3.0
aF3.0
aF3.0
aF3.0
aF3.0
aF3.0
aF3.0
aF3.0
aF3.0
aF3.0
aF3.0
aF3.0
aF3.0
aF3.0
aF3.0
aF3.0
aF3.0
aF3.0
aF3.0
aF3.0
aF3.0
aF3.0
aF3.0
aF3.0
aF3.0
aF3.0
aF3.0
aF3.0
aF3.0
aF3.0
aF3.0
aF3.0
aF3.0
aF3.0
aF3.0
aF3.0
aF3.0
aF3.0
aF3.0
aF3.0
aF3.0
aF3.0
aF3.0
aF3.0
aF3.0
aF3.0
aF3.0
aF3.0
aF3.0
aF3.0
aF3.0
aF3.0
aF3.0
aF3.0
aF3.0
aF3.0
aF3.0
aF3.0
aF3.0
aF3.0
aF3.0
aF3.0
aF3.0
aF3.0
aF3.0
aF3.0
aF3.0
aF3.0
aF3.0
aF3.0
aF3.0
aF3.0
aF3.0
aF22.0
aF1.0
aF3.0
aF28.0
aF22.0
aF1.0
aF22.0
aF1.0
aF22.0
aF1.0
aF22.0
aF1.0
aF22.0
aF1.0
aF22.0
aF1.0
aF22.0
aF1.0
aF22.0
aF1.0
aF22.0
aF1.0
aF22.0
aF1.0
aF22.0
aF1.0
aF22.0
aF3.0
aF22.0
aF3.0
aF22.0
aF3.0
aF22.0
aF3.0
aF22.0
aF3.0
aF22.0
aF3.0
aF22.0
aF3.0
aF22.0
aF3.0
aF22.0
aF3.0
aF22.0
aF3.0
aF22.0
aF3.0
aF22.0
aF3.0
aF22.0
aF3.0
aF22.0
aF3.0
aF22.0
aF3.0
aF22.0
aF3.0
aF22.0
aF3.0
aF22.0
aF3.0
aF37.0
aF8.0
aF3.0
aF37.0
aF5.0
aF5.0
aF28.0
aF3.0
aF3.0
aF3.0
aF3.0
aF3.0
aF3.0
aF3.0
aF3.0
aF3.0
aF3.0
aF3.0
aF3.0
aF3.0
aF3.0
aF3.0
aF3.0
aF3.0
aF3.0
aF3.0
aF3.0
aF3.0
aF3.0
aF3.0
aF3.0
aF3.0
aF3.0
aF3.0
aF3.0
aF3.0
aF3.0
aF3.0
aF3.0
aF3.0
aF3.0
aF3.0
aF3.0
aF3.0
aF3.0
aF3.0
aF3.0
aF3.0
aF3.0
aF3.0
aF3.0
aF3.0
aF3.0
aF3.0
aF3.0
aF3.0
aF3.0
aF3.0
aF3.0
aF3.0
aF3.0
aF3.0
aF3.0
aF3.0
aF3.0
aF3.0
aF3.0
aF3.0
aF3.0
aF3.0
aF3.0
aF3.0
aF3.0
aF3.0
aF3.0
aF3.0
aF3.0
aF3.0
aF3.0
aF3.0
aF3.0
aF3.0
aF3.0
aF3.0
aF3.0
aF3.0
aF3.0
aF3.0
aF3.0
aF3.0
aF3.0
aF3.0
aF3.0
aF3.0
aF3.0
aF3.0
aF3.0
aF3.0
aF3.0
aF3.0
aF3.0
aF3.0
aF3.0
aF3.0
aF3.0
aF3.0
aF3.0
aF3.0
aF3.0
aF3.0
aF3.0
aF3.0
aF3.0
aF3.0
aF3.0
aF3.0
aF3.0
aF3.0
aF3.0
aF3.0
aF3.0
aF3.0
aF3.0
aF3.0
aF3.0
aF3.0
aF3.0
aF3.0
aF3.0
aF3.0
aF3.0
aF3.0
aF3.0
aF3.0
aF3.0
aF3.0
aF3.0
aF3.0
aF3.0
aF3.0
aF3.0
aF3.0
aF3.0
aF3.0
aF3.0
aF3.0
aF3.0
aF3.0
aF3.0
aF3.0
aF3.0
aF3.0
aF3.0
aF3.0
aF3.0
aF3.0
aF3.0
aF3.0
aF3.0
aF3.0
aF3.0
aF3.0
aF3.0
aF3.0
aF3.0
aF3.0
aF3.0
aF3.0
aF3.0
aF3.0
aF3.0
aF3.0
aF3.0
aF3.0
aF3.0
aF3.0
aF3.0
aF3.0
aF3.0
aF3.0
aF3.0
aF3.0
aF3.0
aF3.0
aF3.0
aF3.0
aF3.0
aF3.0
aF3.0
aF3.0
aF3.0
aF3.0
aF3.0
aF3.0
aF3.0
aF3.0
aF3.0
aF3.0
aF22.0
aF1.0
aF3.0
aF28.0
aF22.0
aF1.0
aF22.0
aF1.0
aF22.0
aF1.0
aF22.0
aF1.0
aF22.0
aF1.0
aF22.0
aF3.0
aF22.0
aF3.0
aF22.0
aF3.0
aF22.0
aF3.0
aF22.0
aF3.0
aF22.0
aF3.0
aF22.0
aF3.0
aF22.0
aF3.0
aF22.0
aF3.0
aF22.0
aF3.0
aF22.0
aF3.0
aF22.0
aF3.0
aF22.0
aF3.0
aF22.0
aF3.0
aF22.0
aF3.0
aF22.0
aF3.0
aF22.0
aF3.0
aF22.0
aF1.0
aF22.0
aF1.0
aF22.0
aF1.0
aF22.0
aF1.0
aF22.0
aF1.0
aF22.0
aF1.0
aF22.0
aF3.0
aF22.0
aF3.0
aF22.0
aF3.0
aF22.0
aF3.0
aF22.0
aF3.0
aF22.0
aF3.0
aF22.0
aF3.0
aF22.0
aF3.0
aF22.0
aF3.0
aF22.0
aF3.0
aF22.0
aF3.0
aF22.0
aF3.0
aF22.0
aF3.0
aF22.0
aF3.0
aF22.0
aF3.0
aF22.0
aF1.0
aF22.0
aF1.0
aF22.0
aF1.0
aF22.0
aF1.0
aF22.0
aF1.0
aF22.0
aF1.0
aF22.0
aF1.0
aF22.0
aF1.0
aF22.0
aF1.0
aF22.0
aF1.0
aF22.0
aF1.0
aF22.0
aF1.0
aF22.0
aF1.0
aF22.0
aF1.0
aF22.0
aF1.0
aF22.0
aF1.0
aF22.0
aF1.0
aF22.0
aF1.0
aF22.0
aF1.0
aF22.0
aF1.0
aF22.0
aF1.0
aF22.0
aF1.0
aF22.0
aF1.0
aF22.0
aF1.0
aF22.0
aF1.0
aF22.0
aF1.0
aF22.0
aF1.0
aF22.0
aF1.0
aF22.0
aF1.0
aF22.0
aF1.0
aF22.0
aF1.0
aF22.0
aF1.0
aF22.0
aF1.0
aF22.0
aF1.0
aF22.0
aF1.0
aF22.0
aF1.0
aF22.0
aF1.0
aF22.0
aF1.0
aF22.0
aF1.0
aF22.0
aF1.0
aF22.0
aF1.0
aF22.0
aF1.0
aF22.0
aF1.0
aF22.0
aF1.0
aF22.0
aF1.0
aF22.0
aF1.0
aF22.0
aF1.0
aF22.0
aF1.0
aF22.0
aF1.0
aF22.0
aF1.0
aF22.0
aF1.0
aF22.0
aF1.0
aF22.0
aF1.0
aF22.0
aF1.0
aF22.0
aF1.0
aF22.0
aF1.0
aF22.0
aF1.0
aF22.0
aF1.0
aF22.0
aF1.0
aF22.0
aF1.0
aF22.0
aF1.0
aF22.0
aF1.0
aF22.0
aF1.0
aF22.0
aF1.0
aF22.0
aF1.0
aF22.0
aF1.0
aF22.0
aF1.0
aF22.0
aF1.0
aF22.0
aF1.0
aF22.0
aF1.0
aF22.0
aF1.0
aF22.0
aF1.0
aF22.0
aF1.0
aF22.0
aF1.0
aF22.0
aF1.0
aF22.0
aF1.0
aF22.0
aF1.0
aF22.0
aF1.0
aF22.0
aF1.0
aF22.0
aF1.0
aF22.0
aF1.0
aF22.0
aF1.0
aF22.0
aF1.0
aF22.0
aF1.0
aF22.0
aF1.0
aF22.0
aF1.0
aF22.0
aF1.0
aF22.0
aF1.0
aF22.0
aF1.0
aF22.0
aF1.0
aF22.0
aF1.0
aF22.0
aF1.0
aF22.0
aF1.0
aF22.0
aF1.0
aF22.0
aF28.0
aF1.0
aF3.0
aF3.0
aF3.0
aF3.0
aF3.0
aF3.0
aF3.0
aF3.0
aF3.0
aF3.0
aF3.0
aF3.0
aF3.0
aF3.0
aF3.0
aF3.0
aF3.0
aF3.0
aF3.0
aF3.0
aF3.0
aF3.0
aF3.0
aF3.0
aF3.0
aF3.0
aF3.0
aF3.0
aF3.0
aF3.0
aF3.0
aF3.0
aF3.0
aF3.0
aF3.0
aF3.0
aF3.0
aF3.0
aF3.0
aF3.0
aF3.0
aF3.0
aF3.0
aF3.0
aF3.0
aF3.0
aF3.0
aF3.0
aF3.0
aF3.0
aF3.0
aF3.0
aF3.0
aF3.0
aF3.0
aF3.0
aF3.0
aF3.0
aF3.0
aF3.0
aF3.0
aF3.0
aF3.0
aF3.0
aF3.0
aF3.0
aF3.0
aF3.0
aF3.0
aF3.0
aF3.0
aF3.0
aF3.0
aF3.0
aF3.0
aF3.0
aF3.0
aF3.0
aF3.0
aF3.0
aF3.0
aF3.0
aF3.0
aF3.0
aF3.0
aF3.0
aF3.0
aF3.0
aF3.0
aF3.0
aF3.0
aF3.0
aF3.0
aF3.0
aF3.0
aF3.0
aF3.0
aF3.0
aF3.0
aF3.0
aF3.0
aF3.0
aF3.0
aF3.0
aF3.0
aF3.0
aF3.0
aF3.0
aF3.0
aF3.0
aF3.0
aF3.0
aF3.0
aF3.0
aF3.0
aF3.0
aF3.0
aF3.0
aF3.0
aF3.0
aF3.0
aF3.0
aF3.0
aF3.0
aF3.0
aF3.0
aF3.0
aF3.0
aF3.0
aF3.0
aF3.0
aF3.0
aF3.0
aF3.0
aF3.0
aF3.0
aF3.0
aF3.0
aF3.0
aF3.0
aF3.0
aF3.0
aF3.0
aF3.0
aF3.0
aF3.0
aF3.0
aF3.0
aF3.0
aF3.0
aF3.0
aF3.0
aF3.0
aF3.0
aF3.0
aF3.0
aF3.0
aF3.0
aF3.0
aF22.0
aF1.0
aF3.0
aF3.0
aF3.0
aF3.0
aF3.0
aF3.0
aF3.0
aF3.0
aF3.0
aF3.0
aF3.0
aF3.0
aF3.0
aF3.0
aF3.0
aF3.0
aF3.0
aF3.0
aF3.0
aF3.0
aF3.0
aF3.0
aF3.0
aF3.0
aF3.0
aF3.0
aF3.0
aF3.0
aF3.0
aF3.0
aF3.0
aF3.0
aF3.0
aF3.0
aF3.0
aF3.0
aF3.0
aF3.0
aF3.0
aF3.0
aF3.0
aF3.0
aF3.0
aF3.0
aF3.0
aF3.0
aF3.0
aF3.0
aF3.0
aF3.0
aF3.0
aF3.0
aF3.0
aF3.0
aF3.0
aF3.0
aF3.0
aF3.0
aF3.0
aF3.0
aF3.0
aF3.0
aF3.0
aF3.0
aF3.0
aF3.0
aF3.0
aF3.0
aF3.0
aF3.0
aF3.0
aF3.0
aF3.0
aF3.0
aF3.0
aF3.0
aF3.0
aF3.0
aF3.0
aF3.0
aF3.0
aF3.0
aF3.0
aF3.0
aF3.0
aF3.0
aF3.0
aF3.0
aF3.0
aF3.0
aF28.0
aF22.0
aF1.0
aF22.0
aF1.0
aF22.0
aF1.0
aF22.0
aF1.0
aF22.0
aF1.0
aF22.0
aF1.0
aF22.0
aF3.0
aF22.0
aF3.0
aF22.0
aF3.0
aF22.0
aF3.0
aF22.0
aF3.0
aF22.0
aF3.0
aF22.0
aF3.0
aF22.0
aF3.0
aF22.0
aF3.0
aF22.0
aF3.0
aF22.0
aF3.0
aF22.0
aF3.0
aF22.0
aF3.0
aF22.0
aF3.0
aF22.0
aF3.0
aF22.0
aF3.0
aF22.0
aF3.0
aF22.0
aF3.0
aF22.0
aF3.0
aF22.0
aF3.0
aF22.0
aF1.0
aF22.0
aF1.0
aF22.0
aF1.0
aF22.0
aF1.0
aF22.0
aF1.0
aF22.0
aF1.0
aF22.0
aF1.0
aF22.0
aF1.0
aF22.0
aF1.0
aF22.0
aF1.0
aF22.0
aF1.0
aF22.0
aF1.0
aF22.0
aF1.0
aF22.0
aF1.0
aF22.0
aF1.0
aF22.0
aF1.0
aF22.0
aF1.0
aF22.0
aF1.0
aF22.0
aF1.0
aF22.0
aF1.0
aF22.0
aF1.0
aF22.0
aF1.0
aF22.0
aF1.0
aF22.0
aF1.0
aF22.0
aF1.0
aF22.0
aF1.0
aF22.0
aF1.0
aF22.0
aF1.0
aF22.0
aF1.0
aF22.0
aF1.0
aF22.0
aF1.0
aF22.0
aF1.0
aF22.0
aF1.0
aF22.0
aF1.0
aF22.0
aF1.0
aF22.0
aF1.0
aF22.0
aF1.0
aF22.0
aF1.0
aF22.0
aF1.0
aF22.0
aF1.0
aF22.0
aF1.0
aF22.0
aF1.0
aF22.0
aF1.0
aF22.0
aF1.0
aF22.0
aF1.0
aF22.0
aF1.0
aF22.0
aF1.0
aF22.0
aF1.0
aF22.0
aF1.0
aF22.0
aF1.0
aF22.0
aF1.0
aF22.0
aF1.0
aF22.0
aF1.0
aF22.0
aF1.0
aF22.0
aF1.0
aF22.0
aF1.0
aF22.0
aF1.0
aF22.0
aF1.0
aF22.0
aF1.0
aF22.0
aF1.0
aF22.0
aF1.0
aF22.0
aF1.0
aF22.0
aF1.0
aF22.0
aF1.0
aF22.0
aF1.0
aF22.0
aF1.0
aF22.0
aF1.0
aF22.0
aF1.0
aF22.0
aF1.0
aF22.0
aF1.0
aF22.0
aF1.0
aF22.0
aF1.0
aF22.0
aF1.0
aF22.0
aF1.0
aF22.0
aF1.0
aF22.0
aF1.0
aF22.0
aF1.0
aF22.0
aF1.0
aF22.0
aF1.0
aF22.0
aF1.0
aF22.0
aF1.0
aF22.0
aF1.0
aF22.0
aF1.0
aF22.0
aF1.0
aF22.0
aF1.0
aF22.0
aF1.0
aF22.0
aF1.0
aF22.0
aF1.0
aF22.0
aF1.0
aF22.0
aF1.0
aF22.0
aF1.0
aF22.0
aF1.0
aF22.0
aF1.0
aF22.0
aF1.0
aF22.0
aF1.0
aF22.0
aF1.0
aF22.0
aF1.0
aF22.0
aF1.0
aF22.0
aF1.0
aF22.0
aF1.0
aF22.0
aF1.0
aF22.0
aF1.0
aF22.0
aF1.0
aF22.0
aF1.0
aF22.0
aF1.0
aF22.0
aF1.0
aF22.0
aF1.0
aF22.0
aF1.0
aF22.0
aF1.0
aF22.0
aF1.0
aF22.0
aF1.0
aF22.0
aF1.0
aF22.0
aF1.0
aF22.0
aF1.0
aF22.0
aF1.0
aF22.0
aF1.0
aF22.0
aF1.0
aF22.0
aF1.0
aF22.0
aF1.0
aF22.0
aF1.0
aF22.0
aF28.0
aF1.0
aF3.0
aF3.0
aF3.0
aF3.0
aF3.0
aF3.0
aF3.0
aF3.0
aF3.0
aF3.0
aF3.0
aF3.0
aF3.0
aF3.0
aF3.0
aF3.0
aF3.0
aF3.0
aF3.0
aF3.0
aF3.0
aF3.0
aF3.0
aF3.0
aF3.0
aF3.0
aF3.0
aF3.0
aF3.0
aF3.0
aF3.0
aF3.0
aF3.0
aF3.0
aF3.0
aF3.0
aF3.0
aF3.0
aF3.0
aF3.0
aF3.0
aF3.0
aF3.0
aF3.0
aF3.0
aF3.0
aF3.0
aF3.0
aF3.0
aF3.0
aF3.0
aF3.0
aF3.0
aF3.0
aF3.0
aF3.0
aF3.0
aF3.0
aF3.0
aF3.0
aF3.0
aF3.0
aF3.0
aF3.0
aF3.0
aF3.0
aF3.0
aF3.0
aF3.0
aF3.0
aF3.0
aF3.0
aF3.0
aF3.0
aF3.0
aF3.0
aF3.0
aF3.0
aF3.0
aF3.0
aF3.0
aF3.0
aF3.0
aF3.0
aF3.0
aF3.0
aF3.0
aF3.0
aF3.0
aF3.0
aF3.0
aF3.0
aF3.0
aF3.0
aF3.0
aF3.0
aF3.0
aF3.0
aF3.0
aF3.0
aF3.0
aF3.0
aF3.0
aF3.0
aF3.0
aF3.0
aF3.0
aF3.0
aF3.0
aF3.0
aF3.0
aF3.0
aF3.0
aF3.0
aF3.0
aF3.0
aF3.0
aF3.0
aF3.0
aF3.0
aF3.0
aF3.0
aF3.0
aF3.0
aF3.0
aF3.0
aF3.0
aF3.0
aF3.0
aF3.0
aF3.0
aF3.0
aF3.0
aF3.0
aF3.0
aF3.0
aF3.0
aF3.0
aF3.0
aF3.0
aF3.0
aF3.0
aF3.0
aF3.0
aF3.0
aF3.0
aF3.0
aF3.0
aF3.0
aF3.0
aF3.0
aF3.0
aF3.0
aF3.0
aF3.0
aF3.0
aF3.0
aF3.0
aF3.0
aF3.0
aF3.0
aF3.0
aF3.0
aF3.0
aF3.0
aF3.0
aF3.0
aF28.0
aF22.0
aF3.0
aF22.0
aF3.0
aF22.0
aF3.0
aF22.0
aF3.0
aF22.0
aF3.0
aF22.0
aF3.0
aF22.0
aF3.0
aF22.0
aF3.0
aF22.0
aF3.0
aF22.0
aF3.0
aF22.0
aF3.0
aF22.0
aF3.0
aF22.0
aF3.0
aF22.0
aF3.0
aF22.0
aF3.0
aF22.0
aF3.0
aF22.0
aF3.0
aF22.0
aF3.0
aF22.0
aF3.0
aF22.0
aF3.0
aF22.0
aF3.0
aF22.0
aF3.0
aF22.0
aF3.0
aF22.0
aF3.0
aF22.0
aF28.0
aF3.0
aF3.0
aF3.0
aF3.0
aF3.0
aF3.0
aF3.0
aF3.0
aF3.0
aF3.0
aF3.0
aF3.0
aF3.0
aF3.0
aF3.0
aF3.0
aF3.0
aF3.0
aF3.0
aF3.0
aF3.0
aF3.0
aF3.0
aF3.0
aF3.0
aF3.0
aF3.0
aF3.0
aF3.0
aF3.0
aF28.0
aF22.0
aF3.0
aF22.0
aF3.0
aF22.0
aF3.0
aF22.0
aF3.0
aF22.0
aF3.0
aF22.0
aF3.0
aF22.0
aF3.0
aF22.0
aF3.0
aF22.0
aF3.0
aF22.0
aF3.0
aF22.0
aF3.0
aF22.0
aF3.0
aF22.0
aF3.0
aF22.0
aF3.0
aF22.0
aF3.0
aF22.0
aF3.0
aF22.0
aF3.0
aF22.0
aF1.0
aF22.0
aF1.0
aF22.0
aF1.0
aF22.0
aF1.0
aF22.0
aF1.0
aF22.0
aF1.0
aF22.0
aF1.0
aF22.0
aF1.0
aF22.0
aF1.0
aF22.0
aF1.0
aF22.0
aF1.0
aF22.0
aF1.0
aF22.0
aF1.0
aF22.0
aF1.0
aF22.0
aF1.0
aF22.0
aF1.0
aF22.0
aF1.0
aF22.0
aF1.0
aF22.0
aF1.0
aF22.0
aF1.0
aF22.0
aF1.0
aF22.0
aF1.0
aF22.0
aF1.0
aF22.0
aF1.0
aF22.0
aF1.0
aF22.0
aF1.0
aF22.0
aF1.0
aF22.0
aF1.0
aF22.0
aF1.0
aF22.0
aF1.0
aF22.0
aF1.0
aF22.0
aF1.0
aF22.0
aF1.0
aF22.0
aF1.0
aF22.0
aF1.0
aF22.0
aF1.0
aF22.0
aF1.0
aF22.0
aF1.0
aF22.0
aF1.0
aF22.0
aF1.0
aF22.0
aF1.0
aF22.0
aF1.0
aF22.0
aF1.0
aF22.0
aF1.0
aF22.0
aF1.0
aF22.0
aF1.0
aF22.0
aF1.0
aF22.0
aF1.0
aF22.0
aF1.0
aF22.0
aF1.0
aF22.0
aF1.0
aF22.0
aF1.0
aF22.0
aF1.0
aF22.0
aF1.0
aF22.0
aF1.0
aF22.0
aF1.0
aF22.0
aF1.0
aF22.0
aF1.0
aF22.0
aF1.0
aF22.0
aF1.0
aF22.0
aF1.0
aF22.0
aF1.0
aF22.0
aF1.0
aF22.0
aF28.0
aF1.0
aF3.0
aF3.0
aF3.0
aF3.0
aF3.0
aF3.0
aF3.0
aF3.0
aF3.0
aF3.0
aF3.0
aF3.0
aF3.0
aF3.0
aF3.0
aF3.0
aF3.0
aF3.0
aF3.0
aF3.0
aF3.0
aF3.0
aF3.0
aF3.0
aF3.0
aF3.0
aF3.0
aF3.0
aF3.0
aF3.0
aF3.0
aF3.0
aF3.0
aF3.0
aF3.0
aF3.0
aF3.0
aF3.0
aF3.0
aF3.0
aF3.0
aF3.0
aF3.0
aF3.0
aF3.0
aF3.0
aF3.0
aF3.0
aF3.0
aF3.0
aF3.0
aF3.0
aF3.0
aF3.0
aF3.0
aF3.0
aF3.0
aF3.0
aF3.0
aF3.0
aF3.0
aF3.0
aF3.0
aF3.0
aF3.0
aF3.0
aF3.0
aF3.0
aF3.0
aF3.0
aF3.0
aF3.0
aF3.0
aF3.0
aF3.0
aF3.0
aF3.0
aF3.0
aF3.0
aF3.0
aF3.0
aF3.0
aF3.0
aF3.0
aF3.0
aF3.0
aF3.0
aF3.0
aF3.0
aF3.0
aF3.0
aF3.0
aF3.0
aF3.0
aF3.0
aF3.0
aF3.0
aF3.0
aF3.0
aF3.0
aF3.0
aF3.0
aF3.0
aF3.0
aF3.0
aF3.0
aF3.0
aF3.0
aF3.0
aF3.0
aF3.0
aF3.0
aF3.0
aF3.0
aF3.0
aF3.0
aF3.0
aF3.0
aF3.0
aF3.0
aF3.0
aF3.0
aF3.0
aF3.0
aF3.0
aF3.0
aF3.0
aF3.0
aF3.0
aF3.0
aF3.0
aF3.0
aF3.0
aF3.0
aF3.0
aF3.0
aF3.0
aF3.0
aF3.0
aF3.0
aF3.0
aF3.0
aF3.0
aF3.0
aF3.0
aF3.0
aF3.0
aF3.0
aF3.0
aF3.0
aF3.0
aF3.0
aF3.0
aF3.0
aF3.0
aF3.0
aF3.0
aF3.0
aF3.0
aF3.0
aF3.0
aF3.0
aF3.0
aF3.0
aF3.0
aF3.0
aF3.0
aF3.0
aF3.0
aF3.0
aF3.0
aF3.0
aF3.0
aF3.0
aF3.0
aF3.0
aF3.0
aF3.0
aF3.0
aF3.0
aF3.0
aF3.0
aF3.0
aF3.0
aF3.0
aF3.0
aF3.0
aF3.0
aF3.0
aF3.0
aF3.0
aF3.0
aF3.0
aF3.0
aF3.0
aF3.0
aF3.0
aF3.0
aF3.0
aF3.0
aF3.0
aF3.0
aF22.0
aF1.0
aF3.0
aF3.0
aF3.0
aF3.0
aF3.0
aF3.0
aF3.0
aF3.0
aF3.0
aF3.0
aF3.0
aF3.0
aF3.0
aF3.0
aF3.0
aF3.0
aF3.0
aF3.0
aF3.0
aF3.0
aF3.0
aF3.0
aF3.0
aF3.0
aF3.0
aF3.0
aF3.0
aF3.0
aF3.0
aF3.0
aF3.0
aF3.0
aF3.0
aF3.0
aF3.0
aF3.0
aF3.0
aF3.0
aF3.0
aF3.0
aF3.0
aF3.0
aF3.0
aF3.0
aF3.0
aF3.0
aF3.0
aF3.0
aF3.0
aF3.0
aF3.0
aF3.0
aF3.0
aF3.0
aF3.0
aF3.0
aF3.0
aF3.0
aF3.0
aF3.0
aF3.0
aF3.0
aF3.0
aF3.0
aF3.0
aF3.0
aF3.0
aF3.0
aF3.0
aF3.0
aF3.0
aF3.0
aF3.0
aF3.0
aF3.0
aF3.0
aF3.0
aF3.0
aF3.0
aF3.0
aF3.0
aF3.0
aF3.0
aF3.0
aF3.0
aF3.0
aF3.0
aF3.0
aF3.0
aF3.0
aF3.0
aF3.0
aF3.0
aF3.0
aF3.0
aF3.0
aF3.0
aF3.0
aF3.0
aF3.0
aF3.0
aF3.0
aF3.0
aF3.0
aF3.0
aF3.0
aF3.0
aF3.0
aF3.0
aF3.0
aF3.0
aF3.0
aF3.0
aF3.0
aF3.0
aF3.0
aF3.0
aF3.0
aF3.0
aF3.0
aF3.0
aF3.0
aF3.0
aF3.0
aF3.0
aF3.0
aF3.0
aF3.0
aF3.0
aF3.0
aF3.0
aF3.0
aF3.0
aF3.0
aF3.0
aF3.0
aF3.0
aF3.0
aF3.0
aF3.0
aF3.0
aF3.0
aF3.0
aF3.0
aF3.0
aF3.0
aF3.0
aF3.0
aF3.0
aF3.0
aF3.0
aF3.0
aF3.0
aF3.0
aF3.0
aF22.0
aF1.0
aF3.0
aF3.0
aF3.0
aF3.0
aF3.0
aF3.0
aF3.0
aF3.0
aF3.0
aF3.0
aF3.0
aF3.0
aF3.0
aF3.0
aF3.0
aF3.0
aF3.0
aF3.0
aF3.0
aF3.0
aF3.0
aF3.0
aF3.0
aF3.0
aF3.0
aF3.0
aF3.0
aF3.0
aF3.0
aF3.0
aF3.0
aF3.0
aF3.0
aF3.0
aF3.0
aF3.0
aF3.0
aF22.0
aF1.0
aF3.0
aF3.0
aF3.0
aF3.0
aF3.0
aF3.0
aF3.0
aF3.0
aF3.0
atp3
Rp4
.