(dp0
S'FP'
p1
(dp2
S'recname'
p3
(lp4
S'101'
p5
ag5
ag5
ag5
ag5
ag5
ag5
ag5
ag5
ag5
ag5
ag5
ag5
ag5
ag5
ag5
ag5
ag5
ag5
ag5
ag5
ag5
ag5
ag5
ag5
ag5
ag5
ag5
ag5
ag5
ag5
ag5
ag5
ag5
asS'pos'
p6
(lp7
I11271
aI11347
aI11580
aI14704
aI14776
aI14848
aI40820
aI41033
aI41103
aI41164
aI47736
aI47802
aI48290
aI48616
aI48679
aI48784
aI48912
aI49265
aI49362
aI49537
aI49608
aI49814
aI49886
aI50368
aI50436
aI51326
aI115295
aI116960
aI117033
aI117176
aI129750
aI129803
aI189160
aI314100
asS'label'
p8
(lp9
S'R'
p10
ag10
ag10
ag10
ag10
ag10
ag10
ag10
ag10
ag10
ag10
ag10
ag10
ag10
ag10
ag10
ag10
ag10
ag10
ag10
ag10
ag10
ag10
ag10
ag10
ag10
ag10
ag10
ag10
ag10
ag10
ag10
ag10
ag10
assS'FN'
p11
(dp12
g3
(lp13
g5
ag5
ag5
ag5
ag5
ag5
ag5
asg6
(lp14
F7.0
aF40603.0
aF41930.0
aF63315.0
aF63414.0
aF114705.0
aF115478.0
asg8
(lp15
g10
ag10
ag10
ag10
ag10
ag10
ag10
ass.