(dp0
S'FP'
p1
(dp2
S'recname'
p3
(lp4
S'103'
p5
ag5
asS'pos'
p6
(lp7
I435702
aI436266
asS'label'
p8
(lp9
S'R'
p10
ag10
assS'FN'
p11
(dp12
g3
(lp13
g5
ag5
ag5
ag5
ag5
ag5
ag5
asg6
(lp14
F21.0
aF392322.0
aF395437.0
aF413367.0
aF468219.0
aF478385.0
aF594882.0
asg8
(lp15
g10
ag10
ag10
ag10
ag10
ag10
ag10
ass.