(dp0
S'FP'
p1
(dp2
S'recname'
p3
(lp4
S'104'
p5
ag5
ag5
ag5
ag5
ag5
ag5
ag5
ag5
ag5
ag5
ag5
ag5
ag5
ag5
ag5
ag5
ag5
ag5
ag5
ag5
ag5
ag5
ag5
ag5
ag5
ag5
ag5
ag5
ag5
ag5
ag5
ag5
ag5
ag5
ag5
ag5
ag5
ag5
ag5
ag5
ag5
ag5
ag5
ag5
ag5
ag5
ag5
ag5
ag5
ag5
ag5
ag5
ag5
ag5
ag5
ag5
ag5
ag5
ag5
ag5
ag5
ag5
ag5
ag5
ag5
ag5
ag5
ag5
ag5
ag5
ag5
ag5
ag5
ag5
ag5
ag5
ag5
ag5
ag5
ag5
ag5
ag5
ag5
ag5
ag5
ag5
ag5
ag5
ag5
ag5
ag5
ag5
ag5
ag5
ag5
ag5
ag5
ag5
ag5
ag5
ag5
ag5
ag5
ag5
ag5
ag5
ag5
ag5
ag5
ag5
ag5
ag5
ag5
ag5
ag5
ag5
ag5
ag5
ag5
ag5
ag5
ag5
ag5
ag5
ag5
ag5
ag5
ag5
ag5
ag5
ag5
ag5
ag5
ag5
ag5
ag5
ag5
ag5
ag5
ag5
ag5
ag5
ag5
ag5
ag5
ag5
ag5
ag5
ag5
ag5
ag5
ag5
ag5
ag5
ag5
ag5
ag5
ag5
ag5
ag5
ag5
ag5
ag5
ag5
ag5
ag5
ag5
ag5
ag5
ag5
ag5
ag5
ag5
ag5
ag5
ag5
ag5
ag5
ag5
ag5
ag5
ag5
ag5
ag5
ag5
ag5
ag5
ag5
ag5
ag5
ag5
ag5
ag5
ag5
ag5
ag5
ag5
ag5
ag5
ag5
ag5
ag5
ag5
ag5
ag5
ag5
ag5
ag5
ag5
ag5
ag5
ag5
ag5
ag5
ag5
ag5
ag5
ag5
ag5
ag5
ag5
ag5
ag5
ag5
ag5
ag5
ag5
ag5
ag5
ag5
ag5
asS'pos'
p6
(lp7
I8270
aI8342
aI8411
aI22169
aI22310
aI22451
aI22596
aI22674
aI22733
aI22785
aI22924
aI23344
aI23492
aI23544
aI23603
aI23796
aI41449
aI41656
aI41707
aI41920
aI41979
aI42036
aI42186
aI42296
aI44093
aI44196
aI44255
aI44317
aI44476
aI44628
aI45180
aI45444
aI45540
aI45697
aI47130
aI47415
aI47477
aI47556
aI47794
aI47845
aI48009
aI48109
aI48283
aI48344
aI48407
aI48476
aI48610
aI48672
aI48912
aI48990
aI49176
aI49262
aI49343
aI49645
aI49984
aI50037
aI50122
aI50296
aI50437
aI50498
aI50613
aI50682
aI50736
aI50881
aI50952
aI51160
aI51211
aI51457
aI51512
aI51608
aI52930
aI52995
aI53088
aI53208
aI53279
aI53482
aI53547
aI53681
aI53834
aI54076
aI54465
aI54530
aI54705
aI54785
aI54966
aI55023
aI55116
aI55237
aI55326
aI55653
aI55853
aI55996
aI56390
aI56707
aI56851
aI56998
aI57315
aI57374
aI57570
aI57737
aI58231
aI59380
aI60778
aI61068
aI61129
aI61187
aI61248
aI65593
aI65736
aI65843
aI66304
aI66434
aI66939
aI71695
aI74992
aI75066
aI75132
aI75192
aI75312
aI75407
aI91305
aI91575
aI91832
aI92036
aI92156
aI92909
aI93954
aI94094
aI94152
aI94526
aI95522
aI95599
aI96480
aI98853
aI99000
aI99098
aI99157
aI99311
aI103967
aI104072
aI104221
aI104275
aI104484
aI104832
aI107536
aI107688
aI107858
aI108595
aI108700
aI108895
aI109862
aI109915
aI110036
aI110213
aI110277
aI110341
aI110648
aI110770
aI110844
aI110916
aI111148
aI111207
aI111361
aI111440
aI111495
aI111699
aI111770
aI111917
aI111972
aI112066
aI112218
aI112298
aI112375
aI112503
aI112594
aI112686
aI112854
aI112915
aI113121
aI113172
aI113255
aI113380
aI113438
aI113503
aI113556
aI113663
aI113762
aI113846
aI113986
aI114395
aI114458
aI114612
aI114684
aI114736
aI114862
aI114925
aI114990
aI115053
aI115217
aI115269
aI115347
aI115476
aI115533
aI115599
aI115806
aI116083
aI116190
aI116961
aI117042
aI117482
aI117583
aI117670
aI117782
aI117887
aI117949
aI118087
aI118200
aI118333
aI118480
aI118545
aI118676
aI118735
aI119854
aI136829
aI136975
aI137047
aI137229
aI137323
aI137377
aI137506
aI137575
aI146249
asS'label'
p8
(lp9
S'R'
p10
ag10
ag10
ag10
ag10
ag10
ag10
ag10
ag10
ag10
ag10
ag10
ag10
ag10
ag10
ag10
ag10
ag10
ag10
ag10
ag10
ag10
ag10
ag10
ag10
ag10
ag10
ag10
ag10
ag10
ag10
ag10
ag10
ag10
ag10
ag10
ag10
ag10
ag10
ag10
ag10
ag10
ag10
ag10
ag10
ag10
ag10
ag10
ag10
ag10
ag10
ag10
ag10
ag10
ag10
ag10
ag10
ag10
ag10
ag10
ag10
ag10
ag10
ag10
ag10
ag10
ag10
ag10
ag10
ag10
ag10
ag10
ag10
ag10
ag10
ag10
ag10
ag10
ag10
ag10
ag10
ag10
ag10
ag10
ag10
ag10
ag10
ag10
ag10
ag10
ag10
ag10
ag10
ag10
ag10
ag10
ag10
ag10
ag10
ag10
ag10
ag10
ag10
ag10
ag10
ag10
ag10
ag10
ag10
ag10
ag10
ag10
ag10
ag10
ag10
ag10
ag10
ag10
ag10
ag10
ag10
ag10
ag10
ag10
ag10
ag10
ag10
ag10
ag10
ag10
ag10
ag10
ag10
ag10
ag10
ag10
ag10
ag10
ag10
ag10
ag10
ag10
ag10
ag10
ag10
ag10
ag10
ag10
ag10
ag10
ag10
ag10
ag10
ag10
ag10
ag10
ag10
ag10
ag10
ag10
ag10
ag10
ag10
ag10
ag10
ag10
ag10
ag10
ag10
ag10
ag10
ag10
ag10
ag10
ag10
ag10
ag10
ag10
ag10
ag10
ag10
ag10
ag10
ag10
ag10
ag10
ag10
ag10
ag10
ag10
ag10
ag10
ag10
ag10
ag10
ag10
ag10
ag10
ag10
ag10
ag10
ag10
ag10
ag10
ag10
ag10
ag10
ag10
ag10
ag10
ag10
ag10
ag10
ag10
ag10
ag10
ag10
ag10
ag10
ag10
ag10
ag10
ag10
ag10
ag10
ag10
ag10
ag10
ag10
ag10
ag10
ag10
assS'FN'
p11
(dp12
g3
(lp13
g5
ag5
ag5
ag5
ag5
ag5
ag5
ag5
ag5
ag5
ag5
ag5
ag5
ag5
ag5
ag5
ag5
ag5
ag5
ag5
ag5
ag5
ag5
ag5
ag5
ag5
ag5
ag5
ag5
ag5
ag5
ag5
ag5
ag5
ag5
ag5
ag5
ag5
ag5
ag5
ag5
ag5
ag5
ag5
ag5
ag5
ag5
ag5
ag5
ag5
ag5
ag5
ag5
ag5
ag5
ag5
ag5
ag5
ag5
ag5
ag5
ag5
ag5
ag5
ag5
ag5
ag5
ag5
ag5
ag5
ag5
ag5
ag5
ag5
ag5
ag5
ag5
ag5
ag5
ag5
ag5
asg6
(lp14
F73.0
aF7556.0
aF8496.0
aF8765.0
aF22109.0
aF23249.0
aF23890.0
aF32306.0
aF33475.0
aF35938.0
aF36949.0
aF41089.0
aF50557.0
aF51008.0
aF51394.0
aF52496.0
aF58530.0
aF59668.0
aF59676.0
aF60607.0
aF60865.0
aF61755.0
aF64921.0
aF65189.0
aF67045.0
aF69316.0
aF69577.0
aF74857.0
aF75774.0
aF76074.0
aF77656.0
aF79387.0
aF82480.0
aF90015.0
aF90116.0
aF90731.0
aF93598.0
aF97647.0
aF98612.0
aF99502.0
aF99984.0
aF103632.0
aF120776.0
aF121709.0
aF129242.0
aF131279.0
aF134937.0
aF137877.0
aF138494.0
aF146935.0
aF151607.0
aF155963.0
aF158569.0
aF160619.0
aF170494.0
aF174544.0
aF178055.0
aF180945.0
aF181625.0
aF183873.0
aF185650.0
aF186487.0
aF194916.0
aF196660.0
aF203946.0
aF205974.0
aF208864.0
aF210903.0
aF213519.0
aF215264.0
aF217306.0
aF218776.0
aF228681.0
aF230427.0
aF233054.0
aF234513.0
aF540416.0
aF541560.0
aF559879.0
aF589793.0
aF590947.0
asg8
(lp15
g10
ag10
ag10
ag10
ag10
ag10
ag10
ag10
ag10
ag10
ag10
ag10
ag10
ag10
ag10
ag10
ag10
ag10
ag10
ag10
ag10
ag10
ag10
ag10
ag10
ag10
ag10
ag10
ag10
ag10
ag10
ag10
ag10
ag10
ag10
ag10
ag10
ag10
ag10
ag10
ag10
ag10
ag10
ag10
ag10
ag10
ag10
ag10
ag10
ag10
ag10
ag10
ag10
ag10
ag10
ag10
ag10
ag10
ag10
ag10
ag10
ag10
ag10
ag10
ag10
ag10
ag10
ag10
ag10
ag10
ag10
ag10
ag10
ag10
ag10
ag10
ag10
ag10
ag10
ag10
ag10
ass.