(dp0
S'FP'
p1
(dp2
S'recname'
p3
(lp4
S'105'
p5
ag5
ag5
ag5
ag5
ag5
ag5
ag5
ag5
ag5
ag5
ag5
ag5
ag5
ag5
ag5
ag5
ag5
ag5
ag5
ag5
ag5
ag5
ag5
ag5
ag5
ag5
ag5
ag5
ag5
ag5
ag5
ag5
ag5
ag5
ag5
ag5
ag5
ag5
ag5
ag5
ag5
ag5
ag5
ag5
ag5
ag5
ag5
ag5
ag5
ag5
ag5
ag5
ag5
ag5
ag5
ag5
ag5
ag5
ag5
asS'pos'
p6
(lp7
I88982
aI89068
aI199385
aI210692
aI226502
aI226696
aI275037
aI275259
aI314522
aI314581
aI409557
aI409611
aI409673
aI409815
aI424346
aI431437
aI432521
aI432905
aI434881
aI436091
aI436941
aI437937
aI438412
aI439646
aI439871
aI441013
aI441454
aI441704
aI444076
aI448059
aI448763
aI450168
aI457094
aI457484
aI463380
aI467742
aI469956
aI472595
aI473867
aI474189
aI475561
aI475976
aI476204
aI476645
aI476790
aI477369
aI478767
aI479256
aI479307
aI481983
aI482181
aI536270
aI594412
aI594465
aI595146
aI609585
aI609775
aI610027
aI610793
aI618677
asS'label'
p8
(lp9
S'R'
p10
ag10
ag10
ag10
ag10
ag10
ag10
ag10
ag10
ag10
ag10
ag10
ag10
ag10
ag10
ag10
ag10
ag10
ag10
ag10
ag10
ag10
ag10
ag10
ag10
ag10
ag10
ag10
ag10
ag10
ag10
ag10
ag10
ag10
ag10
ag10
ag10
ag10
ag10
ag10
ag10
ag10
ag10
ag10
ag10
ag10
ag10
ag10
ag10
ag10
ag10
ag10
ag10
ag10
ag10
ag10
ag10
ag10
ag10
ag10
assS'FN'
p11
(dp12
g3
(lp13
g5
ag5
ag5
ag5
ag5
ag5
ag5
ag5
ag5
ag5
ag5
ag5
ag5
ag5
ag5
ag5
ag5
ag5
ag5
ag5
ag5
ag5
ag5
ag5
ag5
ag5
ag5
ag5
ag5
ag5
ag5
ag5
ag5
ag5
ag5
ag5
ag5
ag5
ag5
ag5
ag5
ag5
ag5
ag5
ag5
ag5
ag5
ag5
ag5
ag5
ag5
ag5
ag5
ag5
ag5
ag5
ag5
ag5
ag5
ag5
ag5
ag5
ag5
ag5
ag5
ag5
ag5
ag5
ag5
ag5
ag5
ag5
ag5
ag5
ag5
ag5
ag5
ag5
ag5
ag5
ag5
ag5
ag5
ag5
ag5
ag5
ag5
ag5
ag5
ag5
ag5
ag5
ag5
ag5
ag5
ag5
ag5
ag5
ag5
ag5
ag5
ag5
ag5
ag5
ag5
ag5
ag5
ag5
ag5
ag5
ag5
ag5
ag5
ag5
ag5
ag5
ag5
ag5
ag5
ag5
ag5
ag5
ag5
ag5
ag5
ag5
ag5
ag5
ag5
ag5
ag5
asg6
(lp14
F67.0
aF30739.0
aF31306.0
aF88748.0
aF98621.0
aF102556.0
aF106430.0
aF106663.0
aF111358.0
aF112560.0
aF123248.0
aF124200.0
aF158586.0
aF198753.0
aF201161.0
aF210242.0
aF212080.0
aF225231.0
aF225457.0
aF228316.0
aF237772.0
aF240638.0
aF246059.0
aF248880.0
aF274936.0
aF277816.0
aF305213.0
aF306104.0
aF306367.0
aF307748.0
aF313878.0
aF315337.0
aF315505.0
aF324820.0
aF351991.0
aF359156.0
aF359537.0
aF363163.0
aF364047.0
aF365699.0
aF366321.0
aF370429.0
aF371709.0
aF372064.0
aF372992.0
aF374877.0
aF376046.0
aF383055.0
aF383254.0
aF384625.0
aF384795.0
aF385535.0
aF386438.0
aF387781.0
aF388103.0
aF397774.0
aF398476.0
aF398606.0
aF398994.0
aF399391.0
aF405021.0
aF405873.0
aF407036.0
aF408359.0
aF413370.0
aF413921.0
aF417701.0
aF420191.0
aF426333.0
aF429547.0
aF433555.0
aF434000.0
aF434961.0
aF435895.0
aF437093.0
aF438047.0
aF443016.0
aF444412.0
aF450945.0
aF453472.0
aF454933.0
aF456815.0
aF457830.0
aF462854.0
aF464520.0
aF465991.0
aF466388.0
aF470248.0
aF470481.0
aF470721.0
aF471893.0
aF472412.0
aF472866.0
aF475447.0
aF475683.0
aF477075.0
aF478477.0
aF478528.0
aF478948.0
aF479189.0
aF486665.0
aF489074.0
aF495561.0
aF514636.0
aF515841.0
aF535710.0
aF539862.0
aF540110.0
aF541978.0
aF542718.0
aF562050.0
aF563953.0
aF582750.0
aF583823.0
aF592487.0
aF595042.0
aF595428.0
aF595482.0
aF598115.0
aF605151.0
aF606099.0
aF611946.0
aF612652.0
aF615322.0
aF617196.0
aF618976.0
aF619834.0
aF628467.0
aF629226.0
aF633956.0
aF634381.0
asg8
(lp15
g10
ag10
ag10
ag10
ag10
ag10
ag10
ag10
ag10
ag10
ag10
ag10
ag10
ag10
ag10
ag10
ag10
ag10
ag10
ag10
ag10
ag10
ag10
ag10
ag10
ag10
ag10
ag10
ag10
ag10
ag10
ag10
ag10
ag10
ag10
ag10
ag10
ag10
ag10
ag10
ag10
ag10
ag10
ag10
ag10
ag10
ag10
ag10
ag10
ag10
ag10
ag10
ag10
ag10
ag10
ag10
ag10
ag10
ag10
ag10
ag10
ag10
ag10
ag10
ag10
ag10
ag10
ag10
ag10
ag10
ag10
ag10
ag10
ag10
ag10
ag10
ag10
ag10
ag10
ag10
ag10
ag10
ag10
ag10
ag10
ag10
ag10
ag10
ag10
ag10
ag10
ag10
ag10
ag10
ag10
ag10
ag10
ag10
ag10
ag10
ag10
ag10
ag10
ag10
ag10
ag10
ag10
ag10
ag10
ag10
ag10
ag10
ag10
ag10
ag10
ag10
ag10
ag10
ag10
ag10
ag10
ag10
ag10
ag10
ag10
ag10
ag10
ag10
ag10
ag10
ag10
ass.