(dp0
S'FP'
p1
(dp2
S'recname'
p3
(lp4
S'106'
p5
ag5
ag5
ag5
ag5
ag5
ag5
ag5
ag5
ag5
ag5
ag5
ag5
ag5
asS'pos'
p6
(lp7
I29557
aI31792
aI69152
aI161246
aI214965
aI263216
aI282448
aI291237
aI328239
aI358969
aI371889
aI513522
aI514223
aI632945
asS'label'
p8
(lp9
S'R'
p10
ag10
ag10
ag10
ag10
ag10
ag10
ag10
ag10
ag10
ag10
ag10
ag10
ag10
assS'FN'
p11
(dp12
g3
(lp13
g5
ag5
ag5
ag5
ag5
ag5
ag5
ag5
ag5
ag5
ag5
ag5
ag5
ag5
ag5
ag5
ag5
ag5
ag5
ag5
ag5
ag5
ag5
ag5
ag5
ag5
ag5
ag5
ag5
ag5
ag5
ag5
ag5
ag5
ag5
ag5
ag5
ag5
ag5
ag5
ag5
ag5
ag5
ag5
ag5
ag5
ag5
ag5
ag5
ag5
ag5
ag5
ag5
ag5
ag5
ag5
ag5
ag5
ag5
ag5
ag5
ag5
ag5
ag5
ag5
ag5
ag5
ag5
ag5
ag5
ag5
asg6
(lp14
F83.0
aF229.0
aF13754.0
aF22494.0
aF32450.0
aF56376.0
aF59595.0
aF59861.0
aF61503.0
aF63389.0
aF63624.0
aF64349.0
aF69758.0
aF153566.0
aF154535.0
aF163279.0
aF164589.0
aF173105.0
aF183259.0
aF213630.0
aF229183.0
aF235337.0
aF257493.0
aF257770.0
aF258921.0
aF261287.0
aF268592.0
aF320516.0
aF321851.0
aF323869.0
aF326553.0
aF327977.0
aF331036.0
aF346145.0
aF348604.0
aF350489.0
aF374986.0
aF382155.0
aF389022.0
aF393747.0
aF395813.0
aF397410.0
aF404338.0
aF405963.0
aF409223.0
aF412042.0
aF427458.0
aF437521.0
aF444588.0
aF445286.0
aF448080.0
aF448724.0
aF450997.0
aF452681.0
aF459001.0
aF511563.0
aF518806.0
aF539480.0
aF542748.0
aF561138.0
aF563501.0
aF579685.0
aF610990.0
aF613610.0
aF618317.0
aF632449.0
aF634565.0
aF641092.0
aF642486.0
aF643950.0
aF646407.0
asg8
(lp15
g10
ag10
ag10
ag10
ag10
ag10
ag10
ag10
ag10
ag10
ag10
ag10
ag10
ag10
ag10
ag10
ag10
ag10
ag10
ag10
ag10
ag10
ag10
ag10
ag10
ag10
ag10
ag10
ag10
ag10
ag10
ag10
ag10
ag10
ag10
ag10
ag10
ag10
ag10
ag10
ag10
ag10
ag10
ag10
ag10
ag10
ag10
ag10
ag10
ag10
ag10
ag10
ag10
ag10
ag10
ag10
ag10
ag10
ag10
ag10
ag10
ag10
ag10
ag10
ag10
ag10
ag10
ag10
ag10
ag10
ag10
ass.