(dp0
S'FP'
p1
(dp2
S'recname'
p3
(lp4
S'107'
p5
ag5
ag5
ag5
ag5
ag5
ag5
ag5
ag5
ag5
ag5
ag5
ag5
ag5
ag5
ag5
ag5
ag5
ag5
ag5
ag5
ag5
ag5
ag5
ag5
ag5
ag5
ag5
ag5
ag5
ag5
ag5
ag5
ag5
ag5
ag5
ag5
ag5
ag5
ag5
ag5
ag5
ag5
ag5
ag5
ag5
ag5
ag5
ag5
ag5
ag5
ag5
ag5
ag5
ag5
ag5
ag5
ag5
ag5
ag5
ag5
ag5
ag5
ag5
ag5
ag5
ag5
ag5
ag5
ag5
ag5
ag5
ag5
ag5
ag5
ag5
ag5
ag5
ag5
ag5
ag5
ag5
ag5
ag5
ag5
ag5
ag5
ag5
ag5
ag5
ag5
ag5
ag5
ag5
ag5
ag5
ag5
ag5
ag5
ag5
ag5
ag5
ag5
ag5
ag5
ag5
ag5
ag5
ag5
ag5
ag5
ag5
ag5
ag5
ag5
ag5
ag5
ag5
ag5
ag5
ag5
ag5
ag5
ag5
ag5
ag5
ag5
ag5
ag5
ag5
ag5
ag5
ag5
ag5
ag5
ag5
ag5
ag5
ag5
ag5
ag5
ag5
ag5
ag5
ag5
ag5
ag5
ag5
ag5
ag5
ag5
ag5
ag5
ag5
ag5
ag5
ag5
ag5
ag5
ag5
ag5
ag5
ag5
ag5
ag5
ag5
ag5
ag5
ag5
ag5
ag5
ag5
ag5
ag5
ag5
ag5
ag5
ag5
ag5
ag5
ag5
ag5
ag5
ag5
ag5
ag5
asS'pos'
p6
(lp7
I940
aI2469
aI3090
aI9197
aI9835
aI10148
aI10456
aI16262
aI17784
aI19338
aI20871
aI22383
aI24840
aI31587
aI36148
aI37350
aI37670
aI38601
aI40124
aI41332
aI41639
aI41957
aI42271
aI51477
aI64018
aI64329
aI89109
aI97644
aI100089
aI104381
aI104705
aI105017
aI106534
aI109309
aI109619
aI110213
aI112962
aI117567
aI119399
aI126462
aI127084
aI129820
aI137183
aI142089
aI142384
aI145433
aI147571
aI156800
aI159240
aI160444
aI161091
aI161395
aI161693
aI162903
aI171799
aI175451
aI175762
aI176400
aI176705
aI182805
aI188925
aI197503
aI203610
aI204245
aI206382
aI208535
aI210669
aI210990
aI212184
aI221018
aI223734
aI224944
aI231990
aI234135
aI234452
aI240896
aI244862
aI245173
aI247638
aI249150
aI253748
aI262323
aI263848
aI266934
aI270583
aI276932
aI282476
aI290936
aI303078
aI349272
aI350402
aI353501
aI357389
aI363105
aI363980
aI376443
aI377067
aI377385
aI385479
aI393975
aI397954
aI398589
aI399427
aI400020
aI400327
aI402477
aI402794
aI405488
aI413220
aI414776
aI417421
aI421632
aI421940
aI424003
aI424320
aI424637
aI424951
aI426064
aI427006
aI428518
aI430353
aI430985
aI431297
aI432738
aI436981
aI444047
aI445257
aI447107
aI447408
aI452625
aI460833
aI461475
aI462676
aI463926
aI465129
aI473098
aI485372
aI487526
aI490864
aI491492
aI493325
aI493950
aI496401
aI499049
aI499648
aI501798
aI503873
aI504186
aI508121
aI509060
aI511351
aI512478
aI512794
aI525699
aI526026
aI526340
aI527531
aI528471
aI530627
aI533668
aI534283
aI545165
aI545486
aI546998
aI549458
aI550987
aI554574
aI557915
aI560311
aI564866
aI566693
aI567007
aI570483
aI571304
aI584084
aI587166
aI590838
aI596956
aI601570
aI614426
aI616251
aI621380
aI635990
aI647444
aI649188
aI649494
asS'label'
p8
(lp9
S'R'
p10
ag10
ag10
ag10
ag10
ag10
ag10
ag10
ag10
ag10
ag10
ag10
ag10
ag10
ag10
ag10
ag10
ag10
ag10
ag10
ag10
ag10
ag10
ag10
ag10
ag10
ag10
ag10
ag10
ag10
ag10
ag10
ag10
ag10
ag10
ag10
ag10
ag10
ag10
ag10
ag10
ag10
ag10
ag10
ag10
ag10
ag10
ag10
ag10
ag10
ag10
ag10
ag10
ag10
ag10
ag10
ag10
ag10
ag10
ag10
ag10
ag10
ag10
ag10
ag10
ag10
ag10
ag10
ag10
ag10
ag10
ag10
ag10
ag10
ag10
ag10
ag10
ag10
ag10
ag10
ag10
ag10
ag10
ag10
ag10
ag10
ag10
ag10
ag10
ag10
ag10
ag10
ag10
ag10
ag10
ag10
ag10
ag10
ag10
ag10
ag10
ag10
ag10
ag10
ag10
ag10
ag10
ag10
ag10
ag10
ag10
ag10
ag10
ag10
ag10
ag10
ag10
ag10
ag10
ag10
ag10
ag10
ag10
ag10
ag10
ag10
ag10
ag10
ag10
ag10
ag10
ag10
ag10
ag10
ag10
ag10
ag10
ag10
ag10
ag10
ag10
ag10
ag10
ag10
ag10
ag10
ag10
ag10
ag10
ag10
ag10
ag10
ag10
ag10
ag10
ag10
ag10
ag10
ag10
ag10
ag10
ag10
ag10
ag10
ag10
ag10
ag10
ag10
ag10
ag10
ag10
ag10
ag10
ag10
ag10
ag10
ag10
ag10
ag10
ag10
ag10
ag10
ag10
ag10
ag10
ag10
assS'FN'
p11
(dp12
g3
(lp13
g5
ag5
ag5
ag5
ag5
ag5
ag5
ag5
ag5
ag5
asg6
(lp14
F47.0
aF95.0
aF272009.0
aF447051.0
aF447756.0
aF514634.0
aF540882.0
aF572410.0
aF625425.0
aF646161.0
asg8
(lp15
g10
ag10
ag10
ag10
ag10
ag10
ag10
ag10
ag10
ag10
ass.