(dp0
S'FP'
p1
(dp2
S'recname'
p3
(lp4
S'108'
p5
ag5
ag5
ag5
ag5
ag5
ag5
ag5
ag5
ag5
ag5
ag5
ag5
ag5
ag5
ag5
ag5
ag5
ag5
ag5
ag5
ag5
ag5
ag5
ag5
ag5
ag5
ag5
ag5
ag5
ag5
ag5
ag5
ag5
ag5
ag5
ag5
ag5
ag5
ag5
ag5
ag5
ag5
ag5
ag5
ag5
ag5
ag5
ag5
ag5
ag5
ag5
ag5
ag5
ag5
ag5
ag5
ag5
ag5
ag5
ag5
ag5
ag5
ag5
ag5
ag5
ag5
ag5
ag5
ag5
ag5
ag5
ag5
ag5
ag5
ag5
ag5
ag5
ag5
ag5
ag5
ag5
ag5
ag5
ag5
ag5
ag5
ag5
ag5
ag5
ag5
ag5
ag5
ag5
ag5
ag5
ag5
ag5
ag5
ag5
ag5
ag5
ag5
ag5
ag5
ag5
ag5
ag5
ag5
ag5
ag5
ag5
ag5
ag5
ag5
ag5
ag5
ag5
ag5
ag5
ag5
ag5
ag5
ag5
ag5
ag5
ag5
ag5
ag5
ag5
ag5
ag5
ag5
ag5
ag5
ag5
ag5
ag5
ag5
ag5
ag5
ag5
ag5
ag5
ag5
ag5
ag5
ag5
ag5
ag5
ag5
ag5
ag5
ag5
ag5
ag5
ag5
ag5
ag5
ag5
ag5
ag5
ag5
ag5
ag5
ag5
ag5
ag5
ag5
ag5
ag5
ag5
ag5
ag5
ag5
ag5
ag5
ag5
ag5
ag5
ag5
ag5
ag5
ag5
ag5
ag5
ag5
ag5
ag5
ag5
ag5
ag5
ag5
ag5
ag5
ag5
ag5
ag5
ag5
ag5
ag5
ag5
ag5
ag5
ag5
ag5
ag5
ag5
ag5
ag5
ag5
ag5
ag5
ag5
ag5
ag5
ag5
ag5
ag5
ag5
ag5
ag5
ag5
ag5
ag5
ag5
ag5
ag5
ag5
ag5
ag5
ag5
ag5
ag5
ag5
ag5
ag5
ag5
ag5
ag5
ag5
ag5
ag5
ag5
ag5
ag5
ag5
ag5
ag5
ag5
ag5
ag5
ag5
ag5
ag5
ag5
ag5
ag5
ag5
ag5
ag5
ag5
ag5
ag5
ag5
ag5
ag5
ag5
ag5
ag5
ag5
ag5
ag5
ag5
ag5
ag5
ag5
ag5
ag5
ag5
ag5
ag5
ag5
ag5
ag5
ag5
ag5
ag5
ag5
ag5
ag5
ag5
ag5
ag5
ag5
ag5
ag5
ag5
ag5
ag5
ag5
ag5
ag5
ag5
ag5
ag5
ag5
ag5
ag5
ag5
ag5
ag5
ag5
ag5
ag5
ag5
ag5
ag5
ag5
ag5
ag5
ag5
ag5
ag5
ag5
ag5
ag5
ag5
ag5
ag5
ag5
ag5
ag5
ag5
ag5
ag5
ag5
ag5
ag5
ag5
ag5
ag5
ag5
ag5
ag5
ag5
ag5
ag5
ag5
ag5
ag5
ag5
ag5
ag5
ag5
ag5
ag5
ag5
ag5
ag5
ag5
ag5
ag5
ag5
ag5
ag5
ag5
ag5
ag5
ag5
ag5
ag5
ag5
ag5
ag5
ag5
ag5
ag5
ag5
ag5
ag5
ag5
ag5
ag5
ag5
ag5
ag5
ag5
ag5
ag5
ag5
ag5
ag5
ag5
ag5
ag5
ag5
ag5
ag5
ag5
ag5
ag5
ag5
ag5
ag5
ag5
ag5
ag5
ag5
ag5
ag5
ag5
ag5
ag5
ag5
ag5
ag5
ag5
ag5
ag5
ag5
ag5
ag5
ag5
ag5
ag5
ag5
ag5
ag5
ag5
ag5
ag5
ag5
ag5
ag5
ag5
ag5
ag5
ag5
ag5
ag5
ag5
ag5
ag5
ag5
ag5
ag5
ag5
ag5
ag5
ag5
ag5
ag5
ag5
ag5
ag5
ag5
ag5
ag5
ag5
ag5
ag5
ag5
ag5
ag5
ag5
ag5
ag5
ag5
ag5
ag5
ag5
ag5
ag5
ag5
ag5
ag5
ag5
ag5
ag5
ag5
ag5
ag5
ag5
ag5
ag5
ag5
ag5
ag5
ag5
ag5
ag5
ag5
ag5
ag5
ag5
ag5
ag5
ag5
ag5
ag5
ag5
ag5
ag5
ag5
ag5
ag5
ag5
ag5
ag5
ag5
ag5
ag5
ag5
ag5
ag5
ag5
ag5
ag5
ag5
ag5
ag5
ag5
ag5
ag5
ag5
ag5
ag5
ag5
ag5
ag5
ag5
ag5
ag5
ag5
ag5
ag5
ag5
ag5
ag5
ag5
ag5
ag5
ag5
ag5
ag5
ag5
ag5
ag5
ag5
ag5
ag5
ag5
ag5
ag5
ag5
ag5
ag5
ag5
ag5
ag5
ag5
ag5
ag5
ag5
ag5
ag5
ag5
ag5
ag5
ag5
ag5
ag5
ag5
ag5
ag5
ag5
ag5
ag5
ag5
ag5
ag5
ag5
ag5
ag5
ag5
ag5
ag5
ag5
ag5
ag5
ag5
ag5
ag5
ag5
ag5
ag5
ag5
ag5
ag5
ag5
ag5
ag5
ag5
ag5
ag5
ag5
ag5
ag5
ag5
ag5
ag5
ag5
ag5
ag5
ag5
ag5
ag5
ag5
ag5
ag5
ag5
ag5
ag5
ag5
ag5
ag5
ag5
ag5
ag5
ag5
ag5
ag5
ag5
ag5
ag5
ag5
ag5
ag5
ag5
ag5
ag5
ag5
ag5
ag5
ag5
ag5
ag5
ag5
ag5
ag5
ag5
ag5
ag5
ag5
ag5
ag5
ag5
ag5
ag5
ag5
ag5
ag5
ag5
ag5
ag5
ag5
ag5
ag5
ag5
ag5
ag5
ag5
ag5
ag5
ag5
ag5
ag5
ag5
ag5
ag5
ag5
ag5
ag5
ag5
ag5
ag5
ag5
ag5
ag5
ag5
ag5
ag5
ag5
ag5
ag5
ag5
ag5
ag5
ag5
ag5
ag5
ag5
ag5
ag5
ag5
ag5
ag5
ag5
ag5
ag5
ag5
ag5
ag5
ag5
ag5
ag5
ag5
ag5
ag5
ag5
ag5
ag5
ag5
ag5
ag5
ag5
ag5
ag5
ag5
ag5
ag5
ag5
ag5
ag5
ag5
ag5
ag5
ag5
ag5
ag5
ag5
ag5
ag5
ag5
ag5
ag5
ag5
ag5
ag5
ag5
ag5
ag5
ag5
ag5
ag5
ag5
ag5
ag5
ag5
ag5
ag5
ag5
ag5
ag5
ag5
ag5
ag5
ag5
ag5
ag5
ag5
ag5
ag5
ag5
ag5
ag5
ag5
ag5
ag5
ag5
ag5
ag5
ag5
ag5
ag5
ag5
ag5
ag5
ag5
ag5
ag5
ag5
ag5
ag5
ag5
ag5
ag5
ag5
ag5
ag5
ag5
ag5
ag5
ag5
ag5
ag5
ag5
ag5
ag5
ag5
ag5
ag5
ag5
ag5
ag5
ag5
ag5
ag5
ag5
ag5
ag5
ag5
ag5
ag5
ag5
ag5
ag5
ag5
ag5
ag5
ag5
ag5
ag5
ag5
ag5
ag5
ag5
ag5
ag5
ag5
ag5
ag5
ag5
ag5
ag5
ag5
asS'pos'
p6
(lp7
I1657
aI1745
aI2078
aI2438
aI3168
aI3521
aI5279
aI5882
aI6012
aI6208
aI6330
aI6804
aI7219
aI9124
aI9504
aI9840
aI10048
aI10133
aI10185
aI10267
aI11376
aI12093
aI12786
aI14783
aI15149
aI15951
aI17984
aI18204
aI18370
aI18517
aI18573
aI18726
aI18795
aI18858
aI18922
aI19241
aI19309
aI19463
aI20115
aI20789
aI20889
aI21103
aI21194
aI21358
aI21966
aI26313
aI27474
aI27860
aI28243
aI29726
aI30469
aI31791
aI32193
aI32615
aI34129
aI34553
aI37215
aI38523
aI38916
aI39699
aI40100
aI40847
aI42018
aI42345
aI42401
aI42520
aI43049
aI43158
aI43275
aI43367
aI43420
aI43528
aI43675
aI43795
aI43865
aI43934
aI44162
aI44322
aI44448
aI44594
aI44693
aI45075
aI45245
aI45445
aI45588
aI45655
aI45735
aI45816
aI45958
aI46044
aI46225
aI46391
aI46587
aI46739
aI46812
aI46866
aI46918
aI47085
aI47140
aI47219
aI47271
aI47424
aI47493
aI47568
aI47652
aI47798
aI47873
aI47941
aI48008
aI48112
aI48241
aI48351
aI48427
aI48496
aI48557
aI48721
aI48803
aI48874
aI48954
aI49091
aI49235
aI49563
aI49642
aI49938
aI50093
aI50237
aI50426
aI50655
aI50828
aI51039
aI51135
aI51186
aI51327
aI51414
aI51540
aI51660
aI51732
aI51784
aI51879
aI51939
aI52073
aI52162
aI52272
aI52700
aI52835
aI52893
aI53034
aI53218
aI53276
aI53338
aI53424
aI53584
aI53644
aI53761
aI53957
aI54108
aI54193
aI54366
aI54423
aI54531
aI54603
aI54845
aI54910
aI54965
aI55188
aI55568
aI55692
aI55971
aI56040
aI56091
aI56294
aI56454
aI56510
aI56640
aI56703
aI56773
aI56860
aI57653
aI58035
aI58408
aI59047
aI59109
aI63428
aI78677
aI79648
aI79773
aI80028
aI80297
aI80775
aI81361
aI83880
aI84181
aI84233
aI84331
aI84488
aI84591
aI84673
aI84731
aI84930
aI85035
aI85137
aI85188
aI85323
aI85495
aI86037
aI86265
aI86862
aI86927
aI86989
aI87126
aI87412
aI88029
aI88423
aI89147
aI89274
aI89355
aI90304
aI91006
aI91144
aI91539
aI91633
aI91934
aI92064
aI92418
aI92925
aI94975
aI95630
aI132680
aI157061
aI159150
aI162507
aI162567
aI162681
aI163503
aI163869
aI164652
aI166124
aI166386
aI166559
aI166913
aI167600
aI173009
aI175114
aI190080
aI190188
aI242977
aI243812
aI253096
aI254020
aI255267
aI255603
aI276502
aI276746
aI277095
aI289355
aI293855
aI294601
aI295276
aI298286
aI309442
aI312192
aI312278
aI312344
aI312470
aI312597
aI312726
aI312781
aI313059
aI313183
aI313501
aI316287
aI316575
aI317012
aI317768
aI318390
aI319395
aI324383
aI327083
aI327486
aI329892
aI347033
aI357100
aI369608
aI369700
aI369791
aI369847
aI370390
aI370459
aI370557
aI370615
aI370804
aI370897
aI370961
aI371117
aI371264
aI371488
aI371562
aI371644
aI371711
aI371864
aI371936
aI372014
aI372079
aI372155
aI372276
aI372341
aI372538
aI372645
aI372712
aI372770
aI372826
aI373592
aI373768
aI373848
aI373909
aI374022
aI374215
aI374266
aI374322
aI374390
aI374528
aI374616
aI374682
aI374803
aI375098
aI375345
aI375426
aI375485
aI375637
aI375732
aI375817
aI375987
aI376066
aI376406
aI376664
aI376805
aI376861
aI376923
aI377041
aI377165
aI377394
aI377523
aI377624
aI377837
aI377964
aI378072
aI378270
aI378395
aI378645
aI378759
aI378906
aI378963
aI379017
aI379096
aI379260
aI379463
aI379654
aI379727
aI379912
aI380033
aI380105
aI380264
aI380376
aI380439
aI380703
aI380762
aI380824
aI380943
aI381031
aI381501
aI381636
aI381735
aI381796
aI381948
aI382026
aI382116
aI382287
aI382366
aI382431
aI382771
aI382836
aI383187
aI383433
aI384219
aI384868
aI385037
aI385093
aI385176
aI385265
aI385387
aI385577
aI385760
aI385815
aI385883
aI386019
aI386090
aI386204
aI386356
aI387785
aI388095
aI388220
aI388341
aI388407
aI388483
aI388654
aI388724
aI388842
aI388958
aI389127
aI389305
aI389390
aI389441
aI389498
aI389634
aI389812
aI391480
aI393768
aI394380
aI394580
aI395621
aI398860
aI407583
aI417591
aI417974
aI418732
aI418824
aI419105
aI419188
aI419240
aI419400
aI419547
aI419602
aI419679
aI419803
aI420087
aI420458
aI420787
aI421180
aI421325
aI436968
aI437027
aI437138
aI437345
aI439610
aI439672
aI439746
aI439919
aI440045
aI440784
aI441192
aI441300
aI441706
aI441785
aI441844
aI441959
aI442115
aI442181
aI442236
aI442981
aI443304
aI443406
aI443723
aI443786
aI443989
aI444044
aI445010
aI445137
aI445190
aI445261
aI445517
aI445644
aI445848
aI446053
aI446315
aI446442
aI446626
aI446730
aI446960
aI447048
aI447376
aI447482
aI447542
aI447650
aI447726
aI447795
aI447882
aI447941
aI448106
aI448164
aI448235
aI448294
aI448701
aI449045
aI449418
aI450023
aI450112
aI450357
aI450441
aI450504
aI450792
aI450854
aI451162
aI451320
aI451394
aI452223
aI454980
aI455813
aI455891
aI455944
aI456107
aI456232
aI456551
aI456689
aI456856
aI459076
aI459513
aI460076
aI461629
aI461697
aI461755
aI461827
aI462184
aI463200
aI463513
aI463573
aI464547
aI464786
aI464902
aI467549
aI467608
aI467904
aI468071
aI468128
aI468469
aI468547
aI468720
aI469011
aI469449
aI469506
aI469585
aI469826
aI470498
aI470559
aI470785
aI471830
aI472180
aI472235
aI472388
aI473083
aI474401
aI474975
aI475049
aI475432
aI476332
aI479385
aI480292
aI480718
aI480901
aI481010
aI482802
aI482937
aI485744
aI486048
aI486726
aI487293
aI488071
aI488430
aI488628
aI490977
aI491262
aI491406
aI491707
aI491874
aI492121
aI492477
aI492791
aI492872
aI493142
aI493373
aI493474
aI493970
aI494660
aI494906
aI494983
aI495111
aI495373
aI495724
aI495801
aI498655
aI498938
aI499510
aI499575
aI501323
aI506487
aI507721
aI508549
aI508848
aI509057
aI515130
aI519566
aI521351
aI552970
aI553045
aI553310
aI558611
aI564399
aI565511
aI565900
aI568469
aI569647
aI569985
aI572797
aI573281
aI573913
aI574885
aI575487
aI575689
aI575856
aI576206
aI576802
aI579489
aI580958
aI581183
aI582417
aI583380
aI585494
aI585665
aI587056
aI587366
aI590400
aI590744
aI591591
aI591745
aI593800
aI594616
aI594824
aI596269
aI596321
aI596386
aI596582
aI596644
aI596732
aI597014
aI597097
aI597398
aI597532
aI597596
aI597672
aI597730
aI598072
aI598239
aI598715
aI599211
aI599446
aI599515
aI599567
aI599936
aI600293
aI600869
aI601422
aI601759
aI603569
aI604149
aI604355
aI604713
aI605313
aI605559
aI605677
aI606149
aI606237
aI607380
aI607715
aI608366
aI608698
aI608850
aI608943
aI609791
aI611249
aI611790
aI611855
aI612023
aI612112
aI612203
aI612516
aI612732
aI612792
aI613109
aI613316
aI613397
aI614475
aI614652
aI614894
aI615882
aI616005
aI616090
aI616188
aI616411
aI616483
aI616542
aI616692
aI616835
aI617148
aI617465
aI617764
aI620754
aI621321
aI621503
aI621557
aI621618
aI622382
aI622475
aI622670
aI622723
aI622810
aI622916
aI623088
aI623526
aI623588
aI623654
aI623796
aI623954
aI625287
aI625450
aI625949
aI626029
aI626197
aI626253
aI626305
aI626449
aI626508
aI626627
aI626809
aI626910
aI626963
aI627108
aI627168
aI627243
aI627435
aI627549
aI627744
aI627860
aI627967
aI628040
aI628102
aI628400
aI628543
aI628712
aI629031
aI629339
aI629556
aI629640
aI629796
aI630059
aI630243
aI630423
aI630508
aI631299
aI631356
aI632071
aI632231
aI632290
aI632468
aI632524
aI632956
aI633118
aI633269
aI633594
aI634477
aI634595
aI635396
aI636008
aI636258
aI636539
aI636738
aI636921
aI637201
aI637259
aI637538
aI637880
aI638202
aI638319
aI638496
aI638814
aI638993
aI639055
aI639261
aI639315
aI639392
aI639557
aI639633
aI639764
aI640362
aI640708
aI641009
aI641684
aI642006
aI642191
aI642253
aI642325
aI642377
aI642527
aI642630
aI642714
aI643284
aI643493
aI643889
aI643981
aI644257
aI644469
aI644852
aI644983
aI645163
aI645260
aI645417
aI645528
aI645732
aI645840
aI646524
aI646641
aI646716
aI646855
aI647018
aI647079
aI647159
aI647276
aI647336
aI647398
aI647478
aI647591
aI647670
aI647797
aI647916
aI647971
aI648124
aI648340
aI648456
aI648647
aI648703
aI648781
aI648979
aI649076
aI649294
aI649346
aI649400
aI649519
aI649601
aI649693
asS'label'
p8
(lp9
S'R'
p10
ag10
ag10
ag10
ag10
ag10
ag10
ag10
ag10
ag10
ag10
ag10
ag10
ag10
ag10
ag10
ag10
ag10
ag10
ag10
ag10
ag10
ag10
ag10
ag10
ag10
ag10
ag10
ag10
ag10
ag10
ag10
ag10
ag10
ag10
ag10
ag10
ag10
ag10
ag10
ag10
ag10
ag10
ag10
ag10
ag10
ag10
ag10
ag10
ag10
ag10
ag10
ag10
ag10
ag10
ag10
ag10
ag10
ag10
ag10
ag10
ag10
ag10
ag10
ag10
ag10
ag10
ag10
ag10
ag10
ag10
ag10
ag10
ag10
ag10
ag10
ag10
ag10
ag10
ag10
ag10
ag10
ag10
ag10
ag10
ag10
ag10
ag10
ag10
ag10
ag10
ag10
ag10
ag10
ag10
ag10
ag10
ag10
ag10
ag10
ag10
ag10
ag10
ag10
ag10
ag10
ag10
ag10
ag10
ag10
ag10
ag10
ag10
ag10
ag10
ag10
ag10
ag10
ag10
ag10
ag10
ag10
ag10
ag10
ag10
ag10
ag10
ag10
ag10
ag10
ag10
ag10
ag10
ag10
ag10
ag10
ag10
ag10
ag10
ag10
ag10
ag10
ag10
ag10
ag10
ag10
ag10
ag10
ag10
ag10
ag10
ag10
ag10
ag10
ag10
ag10
ag10
ag10
ag10
ag10
ag10
ag10
ag10
ag10
ag10
ag10
ag10
ag10
ag10
ag10
ag10
ag10
ag10
ag10
ag10
ag10
ag10
ag10
ag10
ag10
ag10
ag10
ag10
ag10
ag10
ag10
ag10
ag10
ag10
ag10
ag10
ag10
ag10
ag10
ag10
ag10
ag10
ag10
ag10
ag10
ag10
ag10
ag10
ag10
ag10
ag10
ag10
ag10
ag10
ag10
ag10
ag10
ag10
ag10
ag10
ag10
ag10
ag10
ag10
ag10
ag10
ag10
ag10
ag10
ag10
ag10
ag10
ag10
ag10
ag10
ag10
ag10
ag10
ag10
ag10
ag10
ag10
ag10
ag10
ag10
ag10
ag10
ag10
ag10
ag10
ag10
ag10
ag10
ag10
ag10
ag10
ag10
ag10
ag10
ag10
ag10
ag10
ag10
ag10
ag10
ag10
ag10
ag10
ag10
ag10
ag10
ag10
ag10
ag10
ag10
ag10
ag10
ag10
ag10
ag10
ag10
ag10
ag10
ag10
ag10
ag10
ag10
ag10
ag10
ag10
ag10
ag10
ag10
ag10
ag10
ag10
ag10
ag10
ag10
ag10
ag10
ag10
ag10
ag10
ag10
ag10
ag10
ag10
ag10
ag10
ag10
ag10
ag10
ag10
ag10
ag10
ag10
ag10
ag10
ag10
ag10
ag10
ag10
ag10
ag10
ag10
ag10
ag10
ag10
ag10
ag10
ag10
ag10
ag10
ag10
ag10
ag10
ag10
ag10
ag10
ag10
ag10
ag10
ag10
ag10
ag10
ag10
ag10
ag10
ag10
ag10
ag10
ag10
ag10
ag10
ag10
ag10
ag10
ag10
ag10
ag10
ag10
ag10
ag10
ag10
ag10
ag10
ag10
ag10
ag10
ag10
ag10
ag10
ag10
ag10
ag10
ag10
ag10
ag10
ag10
ag10
ag10
ag10
ag10
ag10
ag10
ag10
ag10
ag10
ag10
ag10
ag10
ag10
ag10
ag10
ag10
ag10
ag10
ag10
ag10
ag10
ag10
ag10
ag10
ag10
ag10
ag10
ag10
ag10
ag10
ag10
ag10
ag10
ag10
ag10
ag10
ag10
ag10
ag10
ag10
ag10
ag10
ag10
ag10
ag10
ag10
ag10
ag10
ag10
ag10
ag10
ag10
ag10
ag10
ag10
ag10
ag10
ag10
ag10
ag10
ag10
ag10
ag10
ag10
ag10
ag10
ag10
ag10
ag10
ag10
ag10
ag10
ag10
ag10
ag10
ag10
ag10
ag10
ag10
ag10
ag10
ag10
ag10
ag10
ag10
ag10
ag10
ag10
ag10
ag10
ag10
ag10
ag10
ag10
ag10
ag10
ag10
ag10
ag10
ag10
ag10
ag10
ag10
ag10
ag10
ag10
ag10
ag10
ag10
ag10
ag10
ag10
ag10
ag10
ag10
ag10
ag10
ag10
ag10
ag10
ag10
ag10
ag10
ag10
ag10
ag10
ag10
ag10
ag10
ag10
ag10
ag10
ag10
ag10
ag10
ag10
ag10
ag10
ag10
ag10
ag10
ag10
ag10
ag10
ag10
ag10
ag10
ag10
ag10
ag10
ag10
ag10
ag10
ag10
ag10
ag10
ag10
ag10
ag10
ag10
ag10
ag10
ag10
ag10
ag10
ag10
ag10
ag10
ag10
ag10
ag10
ag10
ag10
ag10
ag10
ag10
ag10
ag10
ag10
ag10
ag10
ag10
ag10
ag10
ag10
ag10
ag10
ag10
ag10
ag10
ag10
ag10
ag10
ag10
ag10
ag10
ag10
ag10
ag10
ag10
ag10
ag10
ag10
ag10
ag10
ag10
ag10
ag10
ag10
ag10
ag10
ag10
ag10
ag10
ag10
ag10
ag10
ag10
ag10
ag10
ag10
ag10
ag10
ag10
ag10
ag10
ag10
ag10
ag10
ag10
ag10
ag10
ag10
ag10
ag10
ag10
ag10
ag10
ag10
ag10
ag10
ag10
ag10
ag10
ag10
ag10
ag10
ag10
ag10
ag10
ag10
ag10
ag10
ag10
ag10
ag10
ag10
ag10
ag10
ag10
ag10
ag10
ag10
ag10
ag10
ag10
ag10
ag10
ag10
ag10
ag10
ag10
ag10
ag10
ag10
ag10
ag10
ag10
ag10
ag10
ag10
ag10
ag10
ag10
ag10
ag10
ag10
ag10
ag10
ag10
ag10
ag10
ag10
ag10
ag10
ag10
ag10
ag10
ag10
ag10
ag10
ag10
ag10
ag10
ag10
ag10
ag10
ag10
ag10
ag10
ag10
ag10
ag10
ag10
ag10
ag10
ag10
ag10
ag10
ag10
ag10
ag10
ag10
ag10
ag10
ag10
ag10
ag10
ag10
ag10
ag10
ag10
ag10
ag10
ag10
ag10
ag10
ag10
ag10
ag10
ag10
ag10
ag10
ag10
ag10
ag10
ag10
ag10
ag10
ag10
ag10
ag10
ag10
ag10
ag10
ag10
ag10
ag10
ag10
ag10
ag10
ag10
ag10
ag10
ag10
ag10
ag10
ag10
ag10
ag10
ag10
ag10
ag10
ag10
ag10
ag10
ag10
ag10
ag10
ag10
ag10
ag10
ag10
ag10
ag10
ag10
ag10
ag10
ag10
ag10
ag10
ag10
ag10
ag10
ag10
ag10
ag10
ag10
ag10
ag10
ag10
ag10
ag10
ag10
ag10
ag10
ag10
ag10
ag10
ag10
ag10
ag10
ag10
ag10
ag10
ag10
ag10
ag10
ag10
ag10
ag10
ag10
ag10
ag10
ag10
ag10
ag10
ag10
ag10
ag10
ag10
ag10
ag10
ag10
ag10
ag10
ag10
ag10
ag10
ag10
ag10
ag10
ag10
ag10
ag10
ag10
ag10
ag10
ag10
ag10
ag10
ag10
ag10
ag10
ag10
ag10
ag10
ag10
ag10
ag10
ag10
ag10
ag10
ag10
ag10
ag10
ag10
ag10
ag10
ag10
ag10
ag10
assS'FN'
p11
(dp12
g3
(lp13
g5
ag5
ag5
ag5
ag5
ag5
ag5
ag5
ag5
ag5
ag5
ag5
ag5
ag5
ag5
ag5
ag5
ag5
ag5
ag5
ag5
ag5
ag5
ag5
ag5
ag5
ag5
ag5
ag5
ag5
ag5
ag5
ag5
ag5
ag5
ag5
ag5
ag5
ag5
ag5
ag5
ag5
ag5
ag5
ag5
ag5
ag5
ag5
ag5
ag5
ag5
ag5
ag5
ag5
ag5
ag5
ag5
ag5
ag5
ag5
ag5
ag5
ag5
ag5
ag5
ag5
ag5
ag5
ag5
ag5
ag5
ag5
ag5
ag5
ag5
ag5
asg6
(lp14
F4197.0
aF11000.0
aF49480.0
aF78330.0
aF89517.0
aF117581.0
aF121398.0
aF162001.0
aF163040.0
aF167119.0
aF179895.0
aF180184.0
aF180712.0
aF193696.0
aF221307.0
aF252926.0
aF254180.0
aF276177.0
aF278057.0
aF280515.0
aF293071.0
aF294799.0
aF301222.0
aF301897.0
aF326699.0
aF327543.0
aF334212.0
aF334364.0
aF334573.0
aF334953.0
aF335334.0
aF335722.0
aF336303.0
aF336488.0
aF366353.0
aF373517.0
aF384275.0
aF393120.0
aF394948.0
aF399741.0
aF405608.0
aF416802.0
aF421766.0
aF429133.0
aF429396.0
aF429720.0
aF437548.0
aF438399.0
aF438760.0
aF444227.0
aF451613.0
aF452444.0
aF463624.0
aF490898.0
aF526532.0
aF580872.0
aF594463.0
aF595416.0
aF595738.0
aF599094.0
aF599288.0
aF618779.0
aF619062.0
aF619299.0
aF619643.0
aF619930.0
aF620829.0
aF621962.0
aF622255.0
aF624322.0
aF627320.0
aF627914.0
aF632124.0
aF641487.0
aF645328.0
aF646463.0
asg8
(lp15
g10
ag10
ag10
ag10
ag10
ag10
ag10
ag10
ag10
ag10
ag10
ag10
ag10
ag10
ag10
ag10
ag10
ag10
ag10
ag10
ag10
ag10
ag10
ag10
ag10
ag10
ag10
ag10
ag10
ag10
ag10
ag10
ag10
ag10
ag10
ag10
ag10
ag10
ag10
ag10
ag10
ag10
ag10
ag10
ag10
ag10
ag10
ag10
ag10
ag10
ag10
ag10
ag10
ag10
ag10
ag10
ag10
ag10
ag10
ag10
ag10
ag10
ag10
ag10
ag10
ag10
ag10
ag10
ag10
ag10
ag10
ag10
ag10
ag10
ag10
ag10
ass.