(dp0
S'FP'
p1
(dp2
S'recname'
p3
(lp4
S'109'
p5
ag5
ag5
ag5
ag5
ag5
ag5
ag5
ag5
ag5
ag5
ag5
ag5
ag5
ag5
ag5
ag5
asS'pos'
p6
(lp7
I118722
aI118875
aI119114
aI119216
aI119339
aI119438
aI119606
aI119700
aI119925
aI120381
aI120564
aI122092
aI124903
aI567212
aI567468
aI567550
aI567729
asS'label'
p8
(lp9
S'R'
p10
ag10
ag10
ag10
ag10
ag10
ag10
ag10
ag10
ag10
ag10
ag10
ag10
ag10
ag10
ag10
ag10
assS'FN'
p11
(dp12
g3
(lp13
g5
ag5
ag5
asg6
(lp14
F18.0
aF565592.0
aF570647.0
asg8
(lp15
g10
ag10
ag10
ass.