(dp0
S'FP'
p1
(dp2
S'recname'
p3
(lp4
S'111'
p5
ag5
ag5
ag5
ag5
ag5
ag5
ag5
ag5
ag5
ag5
ag5
ag5
ag5
ag5
ag5
ag5
ag5
ag5
ag5
ag5
ag5
ag5
ag5
ag5
ag5
ag5
ag5
ag5
ag5
ag5
ag5
ag5
ag5
ag5
ag5
ag5
ag5
ag5
ag5
ag5
ag5
ag5
ag5
ag5
ag5
ag5
ag5
ag5
ag5
ag5
ag5
ag5
ag5
ag5
ag5
ag5
ag5
ag5
ag5
ag5
asS'pos'
p6
(lp7
I49841
aI50181
aI60133
aI64391
aI64469
aI64551
aI64661
aI64718
aI64776
aI64830
aI66872
aI66941
aI67144
aI67391
aI67775
aI77057
aI86410
aI87178
aI87231
aI207900
aI229084
aI235237
aI236562
aI259560
aI288716
aI349056
aI349943
aI350240
aI350302
aI351756
aI358543
aI360685
aI403566
aI449172
aI449552
aI454739
aI461471
aI463585
aI473216
aI497723
aI498871
aI499192
aI499409
aI499739
aI499805
aI501108
aI535990
aI546736
aI585213
aI585564
aI585724
aI588416
aI588996
aI631567
aI631812
aI631928
aI632642
aI632955
aI633230
aI635450
aI638221
asS'label'
p8
(lp9
S'R'
p10
ag10
ag10
ag10
ag10
ag10
ag10
ag10
ag10
ag10
ag10
ag10
ag10
ag10
ag10
ag10
ag10
ag10
ag10
ag10
ag10
ag10
ag10
ag10
ag10
ag10
ag10
ag10
ag10
ag10
ag10
ag10
ag10
ag10
ag10
ag10
ag10
ag10
ag10
ag10
ag10
ag10
ag10
ag10
ag10
ag10
ag10
ag10
ag10
ag10
ag10
ag10
ag10
ag10
ag10
ag10
ag10
ag10
ag10
ag10
ag10
assS'FN'
p11
(dp12
g3
(lp13
g5
ag5
ag5
ag5
ag5
ag5
ag5
ag5
ag5
ag5
asg6
(lp14
F31.0
aF59551.0
aF60780.0
aF66252.0
aF67937.0
aF429851.0
aF430363.0
aF432438.0
aF592810.0
aF593958.0
asg8
(lp15
g10
ag10
ag10
ag10
ag10
ag10
ag10
ag10
ag10
ag10
ass.