(dp0
S'FP'
p1
(dp2
S'recname'
p3
(lp4
S'112'
p5
ag5
ag5
ag5
ag5
ag5
ag5
ag5
ag5
ag5
ag5
ag5
ag5
ag5
ag5
ag5
ag5
ag5
ag5
ag5
ag5
ag5
ag5
ag5
ag5
asS'pos'
p6
(lp7
I246787
aI246845
aI274464
aI274676
aI275404
aI277399
aI278106
aI278169
aI278361
aI278666
aI279206
aI280892
aI290585
aI290951
aI293010
aI294036
aI298821
aI298894
aI299039
aI299177
aI299303
aI299511
aI299752
aI299854
aI345453
asS'label'
p8
(lp9
S'R'
p10
ag10
ag10
ag10
ag10
ag10
ag10
ag10
ag10
ag10
ag10
ag10
ag10
ag10
ag10
ag10
ag10
ag10
ag10
ag10
ag10
ag10
ag10
ag10
ag10
assS'FN'
p11
(dp12
g3
(lp13
g5
ag5
ag5
ag5
ag5
ag5
ag5
ag5
ag5
ag5
asg6
(lp14
F15.0
aF244539.0
aF250194.0
aF274057.0
aF281633.0
aF294485.0
aF296205.0
aF296720.0
aF298601.0
aF300521.0
asg8
(lp15
g10
ag10
ag10
ag10
ag10
ag10
ag10
ag10
ag10
ag10
ass.