(dp0
S'FP'
p1
(dp2
S'recname'
p3
(lp4
S'113'
p5
ag5
ag5
ag5
ag5
ag5
ag5
ag5
ag5
ag5
ag5
ag5
ag5
ag5
ag5
ag5
ag5
ag5
ag5
ag5
asS'pos'
p6
(lp7
I20444
aI60725
aI74225
aI111937
aI174508
aI258061
aI260895
aI278093
aI306206
aI311675
aI340776
aI345011
aI417551
aI487643
aI493861
aI524369
aI525483
aI556779
aI563249
aI638859
asS'label'
p8
(lp9
S'R'
p10
ag10
ag10
ag10
ag10
ag10
ag10
ag10
ag10
ag10
ag10
ag10
ag10
ag10
ag10
ag10
ag10
ag10
ag10
ag10
assS'FN'
p11
(dp12
g3
(lp13
g5
ag5
asg6
(lp14
F22.0
aF649994.0
asg8
(lp15
g10
ag10
ass.