(dp0
S'FP'
p1
(dp2
S'recname'
p3
(lp4
S'114'
p5
ag5
ag5
ag5
ag5
ag5
ag5
ag5
ag5
ag5
ag5
ag5
ag5
ag5
ag5
ag5
ag5
ag5
ag5
ag5
ag5
ag5
ag5
ag5
ag5
ag5
ag5
ag5
ag5
ag5
ag5
ag5
ag5
ag5
ag5
ag5
ag5
ag5
ag5
ag5
ag5
ag5
ag5
ag5
ag5
ag5
ag5
ag5
ag5
ag5
ag5
ag5
ag5
ag5
ag5
ag5
ag5
ag5
ag5
ag5
ag5
ag5
ag5
ag5
ag5
ag5
ag5
ag5
ag5
ag5
ag5
ag5
ag5
ag5
ag5
ag5
ag5
ag5
ag5
ag5
ag5
ag5
ag5
ag5
ag5
ag5
ag5
ag5
ag5
ag5
ag5
ag5
ag5
ag5
ag5
ag5
ag5
ag5
ag5
ag5
ag5
ag5
ag5
ag5
ag5
ag5
ag5
ag5
ag5
ag5
ag5
ag5
ag5
ag5
ag5
ag5
ag5
ag5
ag5
ag5
ag5
asS'pos'
p6
(lp7
I1283
aI18444
aI19901
aI33424
aI34884
aI36516
aI39570
aI42431
aI85130
aI93659
aI106023
aI106553
aI110258
aI115471
aI138979
aI149062
aI152981
aI163361
aI163823
aI167914
aI178652
aI184520
aI186425
aI186529
aI186690
aI186787
aI186852
aI204343
aI205501
aI205674
aI205877
aI206126
aI206182
aI206249
aI206331
aI206478
aI206575
aI208025
aI209418
aI213660
aI222680
aI222824
aI224035
aI224523
aI224745
aI224915
aI224987
aI225223
aI225589
aI226007
aI226613
aI226689
aI230463
aI239678
aI239877
aI239945
aI240035
aI240199
aI240303
aI245190
aI256507
aI257551
aI257887
aI354862
aI357654
aI361904
aI377497
aI390947
aI393195
aI398709
aI400766
aI416120
aI416853
aI417064
aI417518
aI418477
aI419455
aI435145
aI435290
aI435366
aI435470
aI435588
aI435692
aI439865
aI444475
aI450524
aI461912
aI462047
aI464875
aI493959
aI494064
aI524200
aI526715
aI533948
aI537794
aI543060
aI577892
aI577980
aI578141
aI578222
aI578475
aI578552
aI578609
aI578818
aI579767
aI579819
aI579984
aI588552
aI594936
aI638294
aI638470
aI642920
aI645808
aI645888
aI646003
aI646091
aI646151
aI646364
aI646700
aI646946
aI647008
asS'label'
p8
(lp9
S'R'
p10
ag10
ag10
ag10
ag10
ag10
ag10
ag10
ag10
ag10
ag10
ag10
ag10
ag10
ag10
ag10
ag10
ag10
ag10
ag10
ag10
ag10
ag10
ag10
ag10
ag10
ag10
ag10
ag10
ag10
ag10
ag10
ag10
ag10
ag10
ag10
ag10
ag10
ag10
ag10
ag10
ag10
ag10
ag10
ag10
ag10
ag10
ag10
ag10
ag10
ag10
ag10
ag10
ag10
ag10
ag10
ag10
ag10
ag10
ag10
ag10
ag10
ag10
ag10
ag10
ag10
ag10
ag10
ag10
ag10
ag10
ag10
ag10
ag10
ag10
ag10
ag10
ag10
ag10
ag10
ag10
ag10
ag10
ag10
ag10
ag10
ag10
ag10
ag10
ag10
ag10
ag10
ag10
ag10
ag10
ag10
ag10
ag10
ag10
ag10
ag10
ag10
ag10
ag10
ag10
ag10
ag10
ag10
ag10
ag10
ag10
ag10
ag10
ag10
ag10
ag10
ag10
ag10
ag10
ag10
ag10
assS'FN'
p11
(dp12
g3
(lp13
g5
ag5
ag5
ag5
ag5
ag5
ag5
ag5
ag5
ag5
asg6
(lp14
F21.0
aF205200.0
aF206945.0
aF239232.0
aF240663.0
aF251900.0
aF253651.0
aF434605.0
aF435972.0
aF637470.0
asg8
(lp15
g10
ag10
ag10
ag10
ag10
ag10
ag10
ag10
ag10
ag10
ass.