(dp0
S'FP'
p1
(dp2
S'recname'
p3
(lp4
S'116'
p5
ag5
ag5
ag5
ag5
ag5
ag5
ag5
asS'pos'
p6
(lp7
I20
aI360669
aI489325
aI489614
aI505908
aI588318
aI588375
aI588564
asS'label'
p8
(lp9
S'R'
p10
ag10
ag10
ag10
ag10
ag10
ag10
ag10
assS'FN'
p11
(dp12
g3
(lp13
g5
ag5
ag5
ag5
ag5
ag5
ag5
ag5
ag5
ag5
ag5
ag5
ag5
ag5
ag5
ag5
ag5
ag5
ag5
ag5
ag5
ag5
ag5
ag5
ag5
ag5
asg6
(lp14
F174.0
aF360124.0
aF360550.0
aF360826.0
aF361268.0
aF487532.0
aF487855.0
aF488126.0
aF488388.0
aF488586.0
aF488923.0
aF489191.0
aF491457.0
aF500548.0
aF500886.0
aF501156.0
aF501421.0
aF501686.0
aF501967.0
aF502231.0
aF502494.0
aF503762.0
aF505376.0
aF505723.0
aF505996.0
aF506110.0
asg8
(lp15
g10
ag10
ag10
ag10
ag10
ag10
ag10
ag10
ag10
ag10
ag10
ag10
ag10
ag10
ag10
ag10
ag10
ag10
ag10
ag10
ag10
ag10
ag10
ag10
ag10
ag10
ass.