(dp0
S'FP'
p1
(dp2
S'recname'
p3
(lp4
S'117'
p5
ag5
ag5
ag5
ag5
ag5
ag5
ag5
asS'pos'
p6
(lp7
I258396
aI258561
aI259196
aI260490
aI260557
aI260758
aI298591
aI524101
asS'label'
p8
(lp9
S'R'
p10
ag10
ag10
ag10
ag10
ag10
ag10
ag10
assS'FN'
p11
(dp12
g3
(lp13
g5
ag5
ag5
ag5
asg6
(lp14
F72.0
aF258119.0
aF258464.0
aF261770.0
asg8
(lp15
g10
ag10
ag10
ag10
ass.