(dp0
S'FP'
p1
(dp2
S'recname'
p3
(lp4
S'118'
p5
ag5
ag5
ag5
ag5
ag5
ag5
ag5
ag5
ag5
ag5
ag5
ag5
ag5
ag5
ag5
ag5
ag5
ag5
ag5
ag5
ag5
ag5
ag5
ag5
ag5
ag5
ag5
ag5
ag5
ag5
ag5
ag5
ag5
ag5
ag5
ag5
ag5
ag5
ag5
ag5
ag5
ag5
ag5
ag5
ag5
ag5
ag5
ag5
ag5
ag5
asS'pos'
p6
(lp7
I80892
aI94915
aI131829
aI179355
aI179434
aI180677
aI181490
aI181555
aI181799
aI183319
aI266332
aI266646
aI269319
aI269373
aI269447
aI271583
aI272265
aI273326
aI274438
aI275786
aI276314
aI397178
aI423471
aI579613
aI579823
aI579889
aI580140
aI580241
aI580363
aI580451
aI580510
aI582504
aI584410
aI584674
aI584734
aI584796
aI585222
aI588684
aI588807
aI588901
aI589085
aI589175
aI589301
aI589692
aI589837
aI590122
aI590246
aI591237
aI595944
aI621769
aI621825
asS'label'
p8
(lp9
S'R'
p10
ag10
ag10
ag10
ag10
ag10
ag10
ag10
ag10
ag10
ag10
ag10
ag10
ag10
ag10
ag10
ag10
ag10
ag10
ag10
ag10
ag10
ag10
ag10
ag10
ag10
ag10
ag10
ag10
ag10
ag10
ag10
ag10
ag10
ag10
ag10
ag10
ag10
ag10
ag10
ag10
ag10
ag10
ag10
ag10
ag10
ag10
ag10
ag10
ag10
ag10
assS'FN'
p11
(dp12
g3
(lp13
g5
ag5
ag5
ag5
ag5
ag5
ag5
ag5
ag5
ag5
ag5
ag5
ag5
ag5
ag5
ag5
ag5
ag5
ag5
ag5
ag5
ag5
ag5
asg6
(lp14
F13.0
aF64520.0
aF68923.0
aF93918.0
aF95150.0
aF103214.0
aF130814.0
aF133045.0
aF269262.0
aF269712.0
aF299687.0
aF310750.0
aF366178.0
aF379138.0
aF409570.0
aF479884.0
aF489105.0
aF579230.0
aF585083.0
aF588576.0
aF590575.0
aF621591.0
aF622066.0
asg8
(lp15
g10
ag10
ag10
ag10
ag10
ag10
ag10
ag10
ag10
ag10
ag10
ag10
ag10
ag10
ag10
ag10
ag10
ag10
ag10
ag10
ag10
ag10
ag10
ass.