(dp0
S'FP'
p1
(dp2
S'recname'
p3
(lp4
sS'pos'
p5
(lp6
sS'label'
p7
(lp8
ssS'FN'
p9
(dp10
g3
(lp11
S'119'
p12
ag12
ag12
ag12
ag12
ag12
ag12
ag12
ag12
ag12
ag12
ag12
ag12
ag12
ag12
ag12
ag12
ag12
ag12
ag12
ag12
ag12
ag12
ag12
ag12
ag12
ag12
ag12
ag12
ag12
ag12
ag12
ag12
ag12
ag12
ag12
ag12
ag12
ag12
ag12
ag12
ag12
ag12
ag12
ag12
ag12
ag12
ag12
ag12
ag12
ag12
ag12
ag12
ag12
ag12
ag12
ag12
ag12
ag12
ag12
ag12
ag12
ag12
ag12
ag12
ag12
ag12
ag12
ag12
ag12
ag12
ag12
ag12
ag12
ag12
ag12
ag12
ag12
ag12
ag12
ag12
ag12
ag12
ag12
ag12
ag12
ag12
ag12
ag12
ag12
ag12
ag12
ag12
ag12
ag12
ag12
ag12
ag12
ag12
ag12
ag12
ag12
ag12
ag12
ag12
ag12
ag12
asg5
(lp13
F32.0
aF7610.0
aF11305.0
aF12901.0
aF15216.0
aF20532.0
aF22190.0
aF29812.0
aF31494.0
aF47228.0
aF48929.0
aF62590.0
aF67022.0
aF68360.0
aF72033.0
aF76031.0
aF77720.0
aF85700.0
aF89003.0
aF101247.0
aF102922.0
aF105494.0
aF107806.0
aF108458.0
aF112724.0
aF117848.0
aF123001.0
aF132625.0
aF138747.0
aF156852.0
aF161129.0
aF167675.0
aF169346.0
aF204463.0
aF217020.0
aF240873.0
aF243207.0
aF272697.0
aF275672.0
aF277342.0
aF278312.0
aF282282.0
aF284631.0
aF340689.0
aF347593.0
aF349242.0
aF382824.0
aF384558.0
aF388684.0
aF390402.0
aF393782.0
aF395492.0
aF398150.0
aF399831.0
aF402076.0
aF403383.0
aF407598.0
aF410580.0
aF412117.0
aF413733.0
aF414960.0
aF417674.0
aF420971.0
aF424745.0
aF427541.0
aF434464.0
aF438493.0
aF440729.0
aF441746.0
aF443465.0
aF445851.0
aF451402.0
aF453057.0
aF457761.0
aF461777.0
aF463397.0
aF465008.0
aF469545.0
aF475628.0
aF477316.0
aF478335.0
aF483365.0
aF489101.0
aF491494.0
aF495911.0
aF498926.0
aF503955.0
aF506342.0
aF525142.0
aF526848.0
aF527511.0
aF531395.0
aF533012.0
aF534611.0
aF538995.0
aF546065.0
aF549155.0
aF551092.0
aF552115.0
aF552636.0
aF556704.0
aF577950.0
aF581388.0
aF612667.0
aF614335.0
aF615331.0
aF617767.0
asg7
(lp14
S'R'
p15
ag15
ag15
ag15
ag15
ag15
ag15
ag15
ag15
ag15
ag15
ag15
ag15
ag15
ag15
ag15
ag15
ag15
ag15
ag15
ag15
ag15
ag15
ag15
ag15
ag15
ag15
ag15
ag15
ag15
ag15
ag15
ag15
ag15
ag15
ag15
ag15
ag15
ag15
ag15
ag15
ag15
ag15
ag15
ag15
ag15
ag15
ag15
ag15
ag15
ag15
ag15
ag15
ag15
ag15
ag15
ag15
ag15
ag15
ag15
ag15
ag15
ag15
ag15
ag15
ag15
ag15
ag15
ag15
ag15
ag15
ag15
ag15
ag15
ag15
ag15
ag15
ag15
ag15
ag15
ag15
ag15
ag15
ag15
ag15
ag15
ag15
ag15
ag15
ag15
ag15
ag15
ag15
ag15
ag15
ag15
ag15
ag15
ag15
ag15
ag15
ag15
ag15
ag15
ag15
ag15
ag15
ass.