(dp0
S'FP'
p1
(dp2
S'recname'
p3
(lp4
S'121'
p5
ag5
ag5
ag5
ag5
ag5
ag5
ag5
ag5
ag5
ag5
ag5
ag5
ag5
ag5
ag5
ag5
ag5
asS'pos'
p6
(lp7
I324815
aI371792
aI549792
aI552109
aI552293
aI552406
aI556796
aI557021
aI557087
aI558162
aI561277
aI564402
aI584437
aI584790
aI614104
aI617708
aI629042
aI638451
asS'label'
p8
(lp9
S'R'
p10
ag10
ag10
ag10
ag10
ag10
ag10
ag10
ag10
ag10
ag10
ag10
ag10
ag10
ag10
ag10
ag10
ag10
assS'FN'
p11
(dp12
g3
(lp13
g5
ag5
ag5
ag5
ag5
ag5
ag5
ag5
ag5
ag5
ag5
ag5
ag5
ag5
ag5
ag5
ag5
ag5
asg6
(lp14
F36.0
aF76642.0
aF87031.0
aF556476.0
aF558091.0
aF558798.0
aF559315.0
aF562123.0
aF562564.0
aF564871.0
aF595252.0
aF595291.0
aF595542.0
aF595840.0
aF596129.0
aF596543.0
aF628697.0
aF629412.0
asg8
(lp15
g10
ag10
ag10
ag10
ag10
ag10
ag10
ag10
ag10
ag10
ag10
ag10
ag10
ag10
ag10
ag10
ag10
ag10
ass.