(dp0
S'FP'
p1
(dp2
S'recname'
p3
(lp4
S'124'
p5
ag5
asS'pos'
p6
(lp7
I543300
aI543407
asS'label'
p8
(lp9
S'R'
p10
ag10
assS'FN'
p11
(dp12
g3
(lp13
g5
ag5
ag5
ag5
ag5
ag5
ag5
ag5
ag5
ag5
ag5
ag5
ag5
ag5
ag5
asg6
(lp14
F100.0
aF103283.0
aF111960.0
aF119599.0
aF121880.0
aF197744.0
aF202433.0
aF226633.0
aF229840.0
aF375789.0
aF379901.0
aF381519.0
aF384040.0
aF505409.0
aF509256.0
asg8
(lp15
g10
ag10
ag10
ag10
ag10
ag10
ag10
ag10
ag10
ag10
ag10
ag10
ag10
ag10
ag10
ass.