(dp0
S'FP'
p1
(dp2
S'recname'
p3
(lp4
S'200'
p5
ag5
ag5
ag5
ag5
ag5
ag5
ag5
ag5
ag5
ag5
ag5
ag5
ag5
ag5
ag5
ag5
ag5
ag5
ag5
ag5
ag5
ag5
ag5
ag5
ag5
ag5
ag5
ag5
ag5
ag5
ag5
ag5
ag5
ag5
ag5
ag5
ag5
ag5
ag5
ag5
ag5
ag5
ag5
ag5
ag5
ag5
ag5
ag5
ag5
ag5
ag5
ag5
ag5
ag5
ag5
ag5
ag5
ag5
ag5
ag5
ag5
ag5
ag5
ag5
ag5
ag5
ag5
ag5
ag5
ag5
ag5
ag5
ag5
ag5
ag5
ag5
ag5
ag5
ag5
ag5
ag5
ag5
ag5
ag5
ag5
ag5
ag5
ag5
ag5
ag5
ag5
ag5
ag5
ag5
ag5
ag5
ag5
ag5
ag5
ag5
ag5
ag5
ag5
ag5
ag5
ag5
ag5
ag5
ag5
ag5
ag5
ag5
ag5
ag5
ag5
ag5
ag5
ag5
ag5
ag5
ag5
ag5
ag5
ag5
ag5
ag5
ag5
ag5
ag5
ag5
ag5
ag5
ag5
ag5
ag5
ag5
ag5
ag5
ag5
ag5
ag5
ag5
ag5
ag5
ag5
ag5
ag5
ag5
ag5
ag5
ag5
ag5
ag5
ag5
ag5
ag5
ag5
ag5
ag5
ag5
ag5
ag5
ag5
ag5
ag5
ag5
ag5
ag5
ag5
ag5
ag5
ag5
ag5
ag5
ag5
ag5
ag5
ag5
asS'pos'
p6
(lp7
I9
aI21207
aI42343
aI45386
aI45811
aI52091
aI53636
aI53846
aI53899
aI54416
aI55544
aI55765
aI59296
aI59360
aI59524
aI59730
aI59841
aI60009
aI60061
aI60301
aI62768
aI62840
aI74710
aI75221
aI75936
aI77200
aI77252
aI79351
aI83327
aI83435
aI84658
aI84730
aI85199
aI85274
aI85438
aI89375
aI89627
aI89713
aI90400
aI98834
aI99004
aI100142
aI100227
aI110205
aI110272
aI110507
aI111552
aI111646
aI112566
aI113308
aI115217
aI124657
aI124716
aI125045
aI125281
aI125387
aI125620
aI125984
aI126279
aI126330
aI127024
aI127377
aI127470
aI127670
aI128085
aI129040
aI129338
aI129561
aI129695
aI129782
aI129960
aI130019
aI130544
aI133193
aI135007
aI135076
aI135200
aI139022
aI139196
aI139277
aI139732
aI144988
aI145062
aI145672
aI145815
aI149041
aI149287
aI149511
aI149860
aI153255
aI157833
aI162024
aI162323
aI169965
aI173592
aI173877
aI174099
aI176700
aI178386
aI192701
aI192783
aI193013
aI193235
aI196554
aI196662
aI197455
aI198599
aI198821
aI198877
aI198976
aI199174
aI199646
aI199809
aI202235
aI202395
aI203725
aI214001
aI215460
aI216183
aI216253
aI217179
aI219584
aI219730
aI219923
aI220237
aI220900
aI221121
aI223979
aI224081
aI224245
aI224467
aI224518
aI224760
aI226410
aI227917
aI228040
aI228139
aI228268
aI252900
aI254177
aI254545
aI254622
aI319242
aI323533
aI325031
aI348201
aI348964
aI349232
aI351094
aI351513
aI355496
aI358652
aI376060
aI404987
aI405153
aI411687
aI445758
aI446075
aI446292
aI448236
aI449460
aI450749
aI451008
aI451352
aI455645
aI575552
aI576183
aI595223
aI595650
aI596141
aI596683
aI598970
aI636885
aI642476
aI642593
aI643091
aI643598
aI643848
aI649748
asS'label'
p8
(lp9
S'R'
p10
ag10
ag10
ag10
ag10
ag10
ag10
ag10
ag10
ag10
ag10
ag10
ag10
ag10
ag10
ag10
ag10
ag10
ag10
ag10
ag10
ag10
ag10
ag10
ag10
ag10
ag10
ag10
ag10
ag10
ag10
ag10
ag10
ag10
ag10
ag10
ag10
ag10
ag10
ag10
ag10
ag10
ag10
ag10
ag10
ag10
ag10
ag10
ag10
ag10
ag10
ag10
ag10
ag10
ag10
ag10
ag10
ag10
ag10
ag10
ag10
ag10
ag10
ag10
ag10
ag10
ag10
ag10
ag10
ag10
ag10
ag10
ag10
ag10
ag10
ag10
ag10
ag10
ag10
ag10
ag10
ag10
ag10
ag10
ag10
ag10
ag10
ag10
ag10
ag10
ag10
ag10
ag10
ag10
ag10
ag10
ag10
ag10
ag10
ag10
ag10
ag10
ag10
ag10
ag10
ag10
ag10
ag10
ag10
ag10
ag10
ag10
ag10
ag10
ag10
ag10
ag10
ag10
ag10
ag10
ag10
ag10
ag10
ag10
ag10
ag10
ag10
ag10
ag10
ag10
ag10
ag10
ag10
ag10
ag10
ag10
ag10
ag10
ag10
ag10
ag10
ag10
ag10
ag10
ag10
ag10
ag10
ag10
ag10
ag10
ag10
ag10
ag10
ag10
ag10
ag10
ag10
ag10
ag10
ag10
ag10
ag10
ag10
ag10
ag10
ag10
ag10
ag10
ag10
ag10
ag10
ag10
ag10
ag10
ag10
ag10
ag10
ag10
ag10
assS'FN'
p11
(dp12
g3
(lp13
g5
ag5
ag5
ag5
ag5
ag5
ag5
ag5
ag5
ag5
ag5
ag5
ag5
ag5
ag5
ag5
ag5
ag5
ag5
ag5
ag5
ag5
ag5
ag5
ag5
ag5
ag5
ag5
ag5
ag5
ag5
ag5
ag5
ag5
ag5
ag5
ag5
ag5
ag5
ag5
ag5
ag5
ag5
ag5
ag5
ag5
ag5
ag5
ag5
ag5
ag5
ag5
ag5
ag5
ag5
ag5
ag5
ag5
ag5
ag5
ag5
ag5
ag5
ag5
ag5
ag5
ag5
ag5
ag5
ag5
ag5
ag5
ag5
ag5
ag5
ag5
ag5
ag5
ag5
ag5
ag5
ag5
ag5
ag5
ag5
ag5
ag5
ag5
ag5
ag5
ag5
ag5
ag5
ag5
ag5
ag5
ag5
ag5
ag5
ag5
ag5
ag5
ag5
ag5
ag5
ag5
ag5
ag5
ag5
ag5
ag5
ag5
ag5
ag5
ag5
ag5
ag5
ag5
ag5
ag5
ag5
ag5
ag5
ag5
ag5
ag5
ag5
ag5
ag5
ag5
ag5
ag5
ag5
ag5
ag5
ag5
ag5
ag5
ag5
ag5
ag5
ag5
ag5
ag5
ag5
ag5
ag5
ag5
ag5
ag5
ag5
ag5
ag5
ag5
ag5
ag5
ag5
ag5
ag5
ag5
ag5
ag5
ag5
ag5
ag5
ag5
ag5
ag5
ag5
ag5
ag5
ag5
ag5
ag5
ag5
ag5
ag5
ag5
ag5
ag5
ag5
ag5
ag5
ag5
ag5
ag5
ag5
asg6
(lp14
F67.0
aF3611.0
aF14449.0
aF15761.0
aF16290.0
aF18540.0
aF19033.0
aF22222.0
aF26491.0
aF29486.0
aF30204.0
aF32934.0
aF35985.0
aF39210.0
aF40109.0
aF42102.0
aF42636.0
aF46439.0
aF46931.0
aF48208.0
aF65025.0
aF74439.0
aF77455.0
aF79269.0
aF79796.0
aF80562.0
aF83073.0
aF83519.0
aF85611.0
aF109752.0
aF112853.0
aF114404.0
aF115732.0
aF115939.0
aF116323.0
aF117446.0
aF122110.0
aF124430.0
aF126750.0
aF128346.0
aF130152.0
aF139595.0
aF141162.0
aF144759.0
aF146354.0
aF148068.0
aF153719.0
aF160086.0
aF163821.0
aF166089.0
aF167650.0
aF170092.0
aF172432.0
aF172987.0
aF175625.0
aF176108.0
aF179849.0
aF182633.0
aF183121.0
aF185368.0
aF187357.0
aF188716.0
aF208061.0
aF211925.0
aF213565.0
aF217800.0
aF218236.0
aF218313.0
aF219266.0
aF219498.0
aF222004.0
aF222054.0
aF223744.0
aF224948.0
aF225962.0
aF226766.0
aF228676.0
aF230812.0
aF232515.0
aF250853.0
aF255242.0
aF256435.0
aF257145.0
aF258347.0
aF266806.0
aF268039.0
aF268810.0
aF270562.0
aF270768.0
aF280576.0
aF281850.0
aF283560.0
aF285736.0
aF286526.0
aF288212.0
aF292063.0
aF293270.0
aF335767.0
aF337168.0
aF338417.0
aF340338.0
aF341352.0
aF342982.0
aF345092.0
aF347264.0
aF347942.0
aF347954.0
aF350112.0
aF350828.0
aF351817.0
aF352765.0
aF353351.0
aF354197.0
aF355958.0
aF356458.0
aF358754.0
aF361716.0
aF362046.0
aF374750.0
aF379800.0
aF385419.0
aF386019.0
aF396038.0
aF396468.0
aF396825.0
aF405057.0
aF405554.0
aF408085.0
aF408863.0
aF411391.0
aF413149.0
aF414691.0
aF418075.0
aF419444.0
aF420004.0
aF445417.0
aF456817.0
aF461180.0
aF464229.0
aF475272.0
aF477125.0
aF486532.0
aF487968.0
aF488283.0
aF489984.0
aF509605.0
aF512135.0
aF533050.0
aF537912.0
aF538708.0
aF539915.0
aF542605.0
aF545224.0
aF546577.0
aF553830.0
aF558246.0
aF558759.0
aF560064.0
aF560597.0
aF562001.0
aF565973.0
aF569104.0
aF570860.0
aF572119.0
aF572845.0
aF574762.0
aF577659.0
aF579678.0
aF587431.0
aF588761.0
aF591397.0
aF592802.0
aF596989.0
aF598407.0
aF599602.0
aF601466.0
aF625468.0
aF626875.0
aF628264.0
aF631107.0
aF636590.0
aF638511.0
aF640337.0
aF642249.0
aF642809.0
aF645116.0
aF649242.0
asg8
(lp15
g10
ag10
ag10
ag10
ag10
ag10
ag10
ag10
ag10
ag10
ag10
ag10
ag10
ag10
ag10
ag10
ag10
ag10
ag10
ag10
ag10
ag10
ag10
ag10
ag10
ag10
ag10
ag10
ag10
ag10
ag10
ag10
ag10
ag10
ag10
ag10
ag10
ag10
ag10
ag10
ag10
ag10
ag10
ag10
ag10
ag10
ag10
ag10
ag10
ag10
ag10
ag10
ag10
ag10
ag10
ag10
ag10
ag10
ag10
ag10
ag10
ag10
ag10
ag10
ag10
ag10
ag10
ag10
ag10
ag10
ag10
ag10
ag10
ag10
ag10
ag10
ag10
ag10
ag10
ag10
ag10
ag10
ag10
ag10
ag10
ag10
ag10
ag10
ag10
ag10
ag10
ag10
ag10
ag10
ag10
ag10
ag10
ag10
ag10
ag10
ag10
ag10
ag10
ag10
ag10
ag10
ag10
ag10
ag10
ag10
ag10
ag10
ag10
ag10
ag10
ag10
ag10
ag10
ag10
ag10
ag10
ag10
ag10
ag10
ag10
ag10
ag10
ag10
ag10
ag10
ag10
ag10
ag10
ag10
ag10
ag10
ag10
ag10
ag10
ag10
ag10
ag10
ag10
ag10
ag10
ag10
ag10
ag10
ag10
ag10
ag10
ag10
ag10
ag10
ag10
ag10
ag10
ag10
ag10
ag10
ag10
ag10
ag10
ag10
ag10
ag10
ag10
ag10
ag10
ag10
ag10
ag10
ag10
ag10
ag10
ag10
ag10
ag10
ag10
ag10
ag10
ag10
ag10
ag10
ag10
ag10
ag10
ass.