(dp0
S'FP'
p1
(dp2
S'recname'
p3
(lp4
S'201'
p5
ag5
ag5
ag5
ag5
ag5
ag5
ag5
ag5
ag5
ag5
ag5
ag5
ag5
ag5
ag5
ag5
ag5
ag5
ag5
ag5
asS'pos'
p6
(lp7
I136499
aI136568
aI136619
aI136691
aI136750
aI136847
aI136908
aI137030
aI171998
aI263418
aI412606
aI417344
aI441765
aI448857
aI476348
aI643668
aI643767
aI643860
aI643981
aI644090
aI644161
asS'label'
p8
(lp9
S'R'
p10
ag10
ag10
ag10
ag10
ag10
ag10
ag10
ag10
ag10
ag10
ag10
ag10
ag10
ag10
ag10
ag10
ag10
ag10
ag10
ag10
assS'FN'
p11
(dp12
g3
(lp13
g5
ag5
ag5
ag5
ag5
ag5
ag5
ag5
ag5
ag5
ag5
ag5
ag5
ag5
ag5
ag5
ag5
ag5
ag5
ag5
ag5
ag5
ag5
ag5
ag5
ag5
ag5
ag5
ag5
ag5
ag5
ag5
ag5
ag5
ag5
ag5
ag5
ag5
ag5
ag5
ag5
ag5
ag5
ag5
ag5
ag5
ag5
ag5
ag5
ag5
ag5
ag5
ag5
ag5
ag5
ag5
ag5
ag5
ag5
ag5
ag5
ag5
ag5
ag5
ag5
ag5
ag5
ag5
ag5
ag5
ag5
ag5
ag5
ag5
ag5
ag5
ag5
ag5
ag5
asg6
(lp14
F60.0
aF136226.0
aF138552.0
aF159364.0
aF160024.0
aF160693.0
aF165235.0
aF166407.0
aF171815.0
aF172235.0
aF185068.0
aF188387.0
aF190075.0
aF190744.0
aF191455.0
aF192138.0
aF192789.0
aF193490.0
aF194173.0
aF194810.0
aF195503.0
aF196227.0
aF198452.0
aF199610.0
aF207663.0
aF218912.0
aF223189.0
aF230877.0
aF236273.0
aF237968.0
aF266038.0
aF292545.0
aF328999.0
aF353743.0
aF357861.0
aF365180.0
aF374067.0
aF375711.0
aF387112.0
aF388776.0
aF391637.0
aF393128.0
aF395181.0
aF395610.0
aF395818.0
aF396037.0
aF396256.0
aF396465.0
aF397228.0
aF420493.0
aF424535.0
aF462156.0
aF466112.0
aF492708.0
aF527903.0
aF530053.0
aF532956.0
aF536473.0
aF539386.0
aF543793.0
aF546687.0
aF548833.0
aF551796.0
aF551907.0
aF560815.0
aF564913.0
aF566349.0
aF567803.0
aF568486.0
aF569921.0
aF570586.0
aF571186.0
aF571684.0
aF573143.0
aF574742.0
aF643411.0
aF646257.0
aF647321.0
aF649181.0
asg8
(lp15
g10
ag10
ag10
ag10
ag10
ag10
ag10
ag10
ag10
ag10
ag10
ag10
ag10
ag10
ag10
ag10
ag10
ag10
ag10
ag10
ag10
ag10
ag10
ag10
ag10
ag10
ag10
ag10
ag10
ag10
ag10
ag10
ag10
ag10
ag10
ag10
ag10
ag10
ag10
ag10
ag10
ag10
ag10
ag10
ag10
ag10
ag10
ag10
ag10
ag10
ag10
ag10
ag10
ag10
ag10
ag10
ag10
ag10
ag10
ag10
ag10
ag10
ag10
ag10
ag10
ag10
ag10
ag10
ag10
ag10
ag10
ag10
ag10
ag10
ag10
ag10
ag10
ag10
ag10
ass.