(dp0
S'FP'
p1
(dp2
S'recname'
p3
(lp4
S'202'
p5
ag5
ag5
ag5
ag5
ag5
ag5
asS'pos'
p6
(lp7
I210204
aI210326
aI219889
aI228655
aI244371
aI271407
aI275570
asS'label'
p8
(lp9
S'R'
p10
ag10
ag10
ag10
ag10
ag10
ag10
assS'FN'
p11
(dp12
g3
(lp13
g5
ag5
ag5
ag5
ag5
ag5
ag5
ag5
ag5
ag5
ag5
ag5
ag5
asg6
(lp14
F183.0
aF155637.0
aF240857.0
aF265365.0
aF293766.0
aF411338.0
aF416822.0
aF423479.0
aF464994.0
aF468678.0
aF549793.0
aF567041.0
aF605015.0
asg8
(lp15
g10
ag10
ag10
ag10
ag10
ag10
ag10
ag10
ag10
ag10
ag10
ag10
ag10
ass.