(dp0
S'FP'
p1
(dp2
S'recname'
p3
(lp4
S'203'
p5
ag5
ag5
ag5
ag5
ag5
ag5
ag5
ag5
ag5
ag5
ag5
ag5
ag5
ag5
ag5
ag5
ag5
ag5
ag5
ag5
ag5
ag5
ag5
ag5
ag5
ag5
ag5
ag5
ag5
ag5
ag5
ag5
ag5
ag5
ag5
ag5
ag5
ag5
ag5
ag5
ag5
ag5
ag5
ag5
ag5
ag5
ag5
ag5
ag5
ag5
ag5
ag5
ag5
ag5
ag5
ag5
ag5
ag5
ag5
ag5
ag5
ag5
ag5
ag5
ag5
ag5
ag5
ag5
ag5
ag5
ag5
ag5
ag5
ag5
ag5
ag5
ag5
ag5
ag5
ag5
ag5
ag5
ag5
ag5
ag5
ag5
ag5
ag5
ag5
ag5
ag5
ag5
ag5
ag5
ag5
ag5
ag5
ag5
ag5
ag5
ag5
ag5
ag5
ag5
ag5
ag5
ag5
ag5
ag5
ag5
ag5
ag5
ag5
ag5
ag5
ag5
ag5
ag5
ag5
ag5
ag5
ag5
ag5
ag5
ag5
ag5
ag5
ag5
ag5
ag5
ag5
ag5
ag5
ag5
ag5
ag5
ag5
ag5
ag5
ag5
ag5
ag5
ag5
ag5
ag5
ag5
ag5
ag5
ag5
ag5
ag5
ag5
ag5
ag5
ag5
ag5
ag5
ag5
ag5
ag5
ag5
ag5
ag5
ag5
ag5
ag5
ag5
ag5
ag5
ag5
ag5
ag5
ag5
ag5
ag5
ag5
ag5
ag5
ag5
ag5
ag5
ag5
ag5
ag5
ag5
ag5
ag5
ag5
ag5
ag5
ag5
ag5
ag5
ag5
ag5
ag5
ag5
ag5
ag5
ag5
ag5
ag5
ag5
ag5
ag5
ag5
ag5
ag5
ag5
ag5
ag5
ag5
ag5
ag5
ag5
ag5
ag5
ag5
ag5
ag5
ag5
ag5
ag5
ag5
ag5
ag5
ag5
ag5
ag5
ag5
ag5
ag5
ag5
ag5
ag5
ag5
ag5
ag5
ag5
ag5
ag5
ag5
ag5
ag5
ag5
ag5
ag5
ag5
ag5
ag5
ag5
ag5
ag5
ag5
ag5
ag5
ag5
ag5
ag5
ag5
ag5
ag5
ag5
ag5
ag5
ag5
ag5
ag5
ag5
ag5
ag5
ag5
ag5
ag5
ag5
ag5
ag5
asS'pos'
p6
(lp7
I148
aI258
aI520
aI608
aI1194
aI1411
aI2019
aI2189
aI2416
aI2553
aI2609
aI2876
aI3083
aI3216
aI3276
aI16158
aI16419
aI17021
aI17081
aI17315
aI17548
aI17729
aI18050
aI33356
aI34510
aI36981
aI37212
aI39603
aI42504
aI53921
aI53987
aI54252
aI79052
aI91957
aI106513
aI106779
aI106962
aI107025
aI107545
aI140491
aI140662
aI140728
aI140805
aI140921
aI141021
aI141225
aI168863
aI174155
aI174237
aI174296
aI174449
aI174796
aI175107
aI186771
aI188261
aI192421
aI192489
aI192551
aI192627
aI192735
aI192829
aI193048
aI193208
aI193671
aI193952
aI194178
aI194340
aI195025
aI195103
aI195212
aI195350
aI195667
aI196272
aI196366
aI206620
aI217528
aI221334
aI223093
aI223199
aI223563
aI224022
aI224886
aI230001
aI230109
aI230268
aI230390
aI230443
aI232993
aI233057
aI233276
aI233490
aI261654
aI261921
aI263102
aI263170
aI263462
aI263642
aI265032
aI265467
aI265620
aI265690
aI266001
aI266145
aI266394
aI266501
aI268233
aI268288
aI268430
aI268635
aI268700
aI268757
aI269951
aI270989
aI273185
aI274630
aI274873
aI275695
aI277278
aI277554
aI277991
aI278417
aI278618
aI280569
aI298005
aI298647
aI298865
aI300362
aI300659
aI301064
aI301559
aI301697
aI301821
aI301961
aI302035
aI302093
aI302197
aI309194
aI309270
aI309325
aI309413
aI310330
aI310422
aI311880
aI311946
aI312114
aI313721
aI314967
aI315167
aI315225
aI318061
aI319519
aI319713
aI319859
aI319916
aI319968
aI320201
aI320492
aI321097
aI321509
aI321765
aI321954
aI322550
aI324590
aI327699
aI328026
aI328098
aI328235
aI328725
aI331272
aI331541
aI331662
aI331834
aI370613
aI372241
aI372529
aI373362
aI373429
aI374168
aI374318
aI375251
aI375395
aI375448
aI407544
aI407779
aI408028
aI408100
aI408197
aI408371
aI408807
aI408972
aI418603
aI418689
aI418861
aI419008
aI419113
aI419169
aI419280
aI419351
aI419490
aI419543
aI419713
aI419769
aI419826
aI420136
aI436314
aI436368
aI436520
aI436667
aI457603
aI457792
aI458001
aI458104
aI458309
aI458528
aI458643
aI458931
aI459112
aI459523
aI459582
aI459812
aI460167
aI460359
aI460922
aI460994
aI461176
aI461529
aI461828
aI462374
aI462564
aI463095
aI463535
aI463609
aI464738
aI464885
aI465273
aI465519
aI465683
aI465772
aI466017
aI466515
aI467149
aI467345
aI467797
aI468783
aI500855
aI502628
aI502684
aI503578
aI503856
aI504105
aI504225
aI505731
aI506386
aI507558
aI507751
aI507987
aI508137
aI508213
aI508297
aI508490
aI508709
aI514057
aI514208
aI514323
aI514456
aI514508
aI515457
aI518612
aI518895
aI519464
aI519736
aI522585
aI533850
aI534079
aI534786
aI535039
aI537093
aI537438
asS'label'
p8
(lp9
S'R'
p10
ag10
ag10
ag10
ag10
ag10
ag10
ag10
ag10
ag10
ag10
ag10
ag10
ag10
ag10
ag10
ag10
ag10
ag10
ag10
ag10
ag10
ag10
ag10
ag10
ag10
ag10
ag10
ag10
ag10
ag10
ag10
ag10
ag10
ag10
ag10
ag10
ag10
ag10
ag10
ag10
ag10
ag10
ag10
ag10
ag10
ag10
ag10
ag10
ag10
ag10
ag10
ag10
ag10
ag10
ag10
ag10
ag10
ag10
ag10
ag10
ag10
ag10
ag10
ag10
ag10
ag10
ag10
ag10
ag10
ag10
ag10
ag10
ag10
ag10
ag10
ag10
ag10
ag10
ag10
ag10
ag10
ag10
ag10
ag10
ag10
ag10
ag10
ag10
ag10
ag10
ag10
ag10
ag10
ag10
ag10
ag10
ag10
ag10
ag10
ag10
ag10
ag10
ag10
ag10
ag10
ag10
ag10
ag10
ag10
ag10
ag10
ag10
ag10
ag10
ag10
ag10
ag10
ag10
ag10
ag10
ag10
ag10
ag10
ag10
ag10
ag10
ag10
ag10
ag10
ag10
ag10
ag10
ag10
ag10
ag10
ag10
ag10
ag10
ag10
ag10
ag10
ag10
ag10
ag10
ag10
ag10
ag10
ag10
ag10
ag10
ag10
ag10
ag10
ag10
ag10
ag10
ag10
ag10
ag10
ag10
ag10
ag10
ag10
ag10
ag10
ag10
ag10
ag10
ag10
ag10
ag10
ag10
ag10
ag10
ag10
ag10
ag10
ag10
ag10
ag10
ag10
ag10
ag10
ag10
ag10
ag10
ag10
ag10
ag10
ag10
ag10
ag10
ag10
ag10
ag10
ag10
ag10
ag10
ag10
ag10
ag10
ag10
ag10
ag10
ag10
ag10
ag10
ag10
ag10
ag10
ag10
ag10
ag10
ag10
ag10
ag10
ag10
ag10
ag10
ag10
ag10
ag10
ag10
ag10
ag10
ag10
ag10
ag10
ag10
ag10
ag10
ag10
ag10
ag10
ag10
ag10
ag10
ag10
ag10
ag10
ag10
ag10
ag10
ag10
ag10
ag10
ag10
ag10
ag10
ag10
ag10
ag10
ag10
ag10
ag10
ag10
ag10
ag10
ag10
ag10
ag10
ag10
ag10
ag10
ag10
ag10
ag10
ag10
ag10
ag10
ag10
ag10
ag10
ag10
ag10
ag10
ag10
assS'FN'
p11
(dp12
g3
(lp13
g5
ag5
ag5
ag5
ag5
ag5
ag5
ag5
ag5
ag5
ag5
ag5
ag5
ag5
ag5
ag5
ag5
ag5
ag5
ag5
ag5
ag5
ag5
ag5
ag5
ag5
ag5
ag5
ag5
ag5
ag5
ag5
ag5
ag5
ag5
ag5
ag5
ag5
ag5
ag5
ag5
ag5
ag5
ag5
ag5
ag5
ag5
ag5
ag5
ag5
ag5
ag5
ag5
ag5
ag5
ag5
ag5
ag5
ag5
ag5
ag5
ag5
ag5
ag5
ag5
ag5
ag5
ag5
ag5
ag5
ag5
ag5
ag5
ag5
ag5
ag5
ag5
ag5
ag5
ag5
ag5
ag5
ag5
ag5
ag5
ag5
ag5
ag5
ag5
ag5
ag5
ag5
ag5
ag5
ag5
ag5
ag5
ag5
ag5
ag5
ag5
ag5
ag5
ag5
ag5
ag5
ag5
ag5
ag5
ag5
ag5
ag5
ag5
ag5
ag5
ag5
ag5
ag5
ag5
ag5
ag5
ag5
ag5
ag5
ag5
ag5
ag5
ag5
ag5
ag5
ag5
ag5
ag5
ag5
ag5
ag5
ag5
ag5
ag5
ag5
ag5
ag5
ag5
ag5
ag5
ag5
ag5
ag5
ag5
ag5
ag5
ag5
ag5
ag5
ag5
ag5
ag5
ag5
ag5
ag5
ag5
ag5
ag5
ag5
ag5
ag5
ag5
ag5
ag5
asg6
(lp14
F24.0
aF3584.0
aF3853.0
aF15847.0
aF17814.0
aF21974.0
aF33033.0
aF33602.0
aF34176.0
aF36678.0
aF37404.0
aF37837.0
aF38291.0
aF41243.0
aF45567.0
aF56503.0
aF89238.0
aF96818.0
aF97315.0
aF108537.0
aF108616.0
aF109110.0
aF109293.0
aF110710.0
aF111996.0
aF116431.0
aF122530.0
aF128852.0
aF136814.0
aF139172.0
aF140400.0
aF141384.0
aF148773.0
aF153701.0
aF154399.0
aF161740.0
aF171639.0
aF173301.0
aF173851.0
aF176701.0
aF183892.0
aF186465.0
aF191899.0
aF193732.0
aF199072.0
aF199185.0
aF199777.0
aF199816.0
aF200391.0
aF205034.0
aF209771.0
aF209938.0
aF210579.0
aF210714.0
aF211024.0
aF211127.0
aF211712.0
aF213179.0
aF213608.0
aF215210.0
aF216159.0
aF217889.0
aF222018.0
aF222810.0
aF222917.0
aF223345.0
aF224433.0
aF225635.0
aF230878.0
aF231406.0
aF235110.0
aF240257.0
aF241533.0
aF252951.0
aF255603.0
aF256022.0
aF258293.0
aF262185.0
aF266869.0
aF267422.0
aF268015.0
aF271372.0
aF272866.0
aF272920.0
aF275229.0
aF276483.0
aF279154.0
aF281447.0
aF281897.0
aF298488.0
aF299148.0
aF302363.0
aF307750.0
aF312376.0
aF318000.0
aF318755.0
aF322901.0
aF324927.0
aF325169.0
aF325480.0
aF325526.0
aF326572.0
aF326730.0
aF326956.0
aF329295.0
aF329324.0
aF329459.0
aF329584.0
aF329642.0
aF329730.0
aF329848.0
aF332203.0
aF332764.0
aF333230.0
aF336915.0
aF372163.0
aF375675.0
aF386962.0
aF387164.0
aF387445.0
aF405315.0
aF405621.0
aF405768.0
aF407305.0
aF409814.0
aF410066.0
aF413310.0
aF413805.0
aF415016.0
aF415080.0
aF415623.0
aF418472.0
aF418944.0
aF420005.0
aF420316.0
aF432952.0
aF433425.0
aF457223.0
aF469434.0
aF505420.0
aF506961.0
aF509025.0
aF511402.0
aF512350.0
aF514899.0
aF518437.0
aF532601.0
aF535886.0
aF536100.0
aF536392.0
aF536660.0
aF537359.0
aF537813.0
aF538116.0
aF538860.0
aF539292.0
aF539636.0
aF540205.0
aF540551.0
aF558624.0
aF571070.0
aF578000.0
aF578810.0
aF578857.0
aF589753.0
aF590307.0
aF610599.0
aF611153.0
aF644532.0
asg8
(lp15
g10
ag10
ag10
ag10
ag10
ag10
ag10
ag10
ag10
ag10
ag10
ag10
ag10
ag10
ag10
ag10
ag10
ag10
ag10
ag10
ag10
ag10
ag10
ag10
ag10
ag10
ag10
ag10
ag10
ag10
ag10
ag10
ag10
ag10
ag10
ag10
ag10
ag10
ag10
ag10
ag10
ag10
ag10
ag10
ag10
ag10
ag10
ag10
ag10
ag10
ag10
ag10
ag10
ag10
ag10
ag10
ag10
ag10
ag10
ag10
ag10
ag10
ag10
ag10
ag10
ag10
ag10
ag10
ag10
ag10
ag10
ag10
ag10
ag10
ag10
ag10
ag10
ag10
ag10
ag10
ag10
ag10
ag10
ag10
ag10
ag10
ag10
ag10
ag10
ag10
ag10
ag10
ag10
ag10
ag10
ag10
ag10
ag10
ag10
ag10
ag10
ag10
ag10
ag10
ag10
ag10
ag10
ag10
ag10
ag10
ag10
ag10
ag10
ag10
ag10
ag10
ag10
ag10
ag10
ag10
ag10
ag10
ag10
ag10
ag10
ag10
ag10
ag10
ag10
ag10
ag10
ag10
ag10
ag10
ag10
ag10
ag10
ag10
ag10
ag10
ag10
ag10
ag10
ag10
ag10
ag10
ag10
ag10
ag10
ag10
ag10
ag10
ag10
ag10
ag10
ag10
ag10
ag10
ag10
ag10
ag10
ag10
ag10
ag10
ag10
ag10
ag10
ag10
ag10
ass.