(dp0
S'FP'
p1
(dp2
S'recname'
p3
(lp4
S'205'
p5
ag5
ag5
asS'pos'
p6
(lp7
I281462
aI281693
aI281948
asS'label'
p8
(lp9
S'R'
p10
ag10
ag10
assS'FN'
p11
(dp12
g3
(lp13
g5
ag5
ag5
ag5
ag5
ag5
ag5
ag5
ag5
ag5
ag5
ag5
ag5
ag5
ag5
ag5
ag5
ag5
asg6
(lp14
F15.0
aF107561.0
aF107745.0
aF108678.0
aF109089.0
aF109152.0
aF110298.0
aF322918.0
aF330957.0
aF331137.0
aF333754.0
aF334324.0
aF525782.0
aF527505.0
aF527698.0
aF530816.0
aF531540.0
aF532127.0
asg8
(lp15
g10
ag10
ag10
ag10
ag10
ag10
ag10
ag10
ag10
ag10
ag10
ag10
ag10
ag10
ag10
ag10
ag10
ag10
ass.