(dp0
S'FP'
p1
(dp2
S'recname'
p3
(lp4
S'207'
p5
ag5
ag5
ag5
ag5
ag5
ag5
ag5
ag5
ag5
ag5
ag5
ag5
ag5
ag5
ag5
ag5
ag5
ag5
ag5
ag5
ag5
ag5
ag5
ag5
ag5
ag5
ag5
ag5
ag5
ag5
ag5
ag5
ag5
ag5
ag5
ag5
ag5
ag5
ag5
ag5
ag5
ag5
ag5
ag5
ag5
ag5
ag5
ag5
ag5
ag5
ag5
ag5
ag5
ag5
ag5
ag5
ag5
ag5
ag5
ag5
ag5
ag5
ag5
ag5
ag5
ag5
ag5
ag5
ag5
ag5
ag5
ag5
ag5
ag5
ag5
ag5
ag5
ag5
ag5
ag5
ag5
ag5
ag5
ag5
ag5
ag5
ag5
ag5
ag5
ag5
ag5
ag5
ag5
asS'pos'
p6
(lp7
I14754
aI16075
aI16423
aI17271
aI17428
aI17925
aI92684
aI98450
aI102938
aI106407
aI106491
aI108170
aI113792
aI115731
aI116054
aI116195
aI116277
aI116407
aI116487
aI116704
aI116860
aI117608
aI117672
aI117799
aI117864
aI117924
aI118097
aI118296
aI118362
aI118515
aI118772
aI118835
aI118988
aI119117
aI119317
aI119530
aI119583
aI119786
aI119840
aI119894
aI120044
aI120115
aI120241
aI122394
aI122922
aI123075
aI150925
aI160561
aI162786
aI171105
aI171864
aI172719
aI186624
aI555840
aI556550
aI557803
aI558757
aI559224
aI559754
aI560044
aI560184
aI560298
aI560479
aI560595
aI561472
aI561696
aI563766
aI567629
aI568522
aI571052
aI571922
aI572034
aI572090
aI573084
aI573350
aI573637
aI574338
aI575757
aI576029
aI578784
aI584781
aI585406
aI590646
aI590885
aI590952
aI591035
aI591113
aI591561
aI591631
aI591739
aI591799
aI591857
aI591962
aI592178
asS'label'
p8
(lp9
S'R'
p10
ag10
ag10
ag10
ag10
ag10
ag10
ag10
ag10
ag10
ag10
ag10
ag10
ag10
ag10
ag10
ag10
ag10
ag10
ag10
ag10
ag10
ag10
ag10
ag10
ag10
ag10
ag10
ag10
ag10
ag10
ag10
ag10
ag10
ag10
ag10
ag10
ag10
ag10
ag10
ag10
ag10
ag10
ag10
ag10
ag10
ag10
ag10
ag10
ag10
ag10
ag10
ag10
ag10
ag10
ag10
ag10
ag10
ag10
ag10
ag10
ag10
ag10
ag10
ag10
ag10
ag10
ag10
ag10
ag10
ag10
ag10
ag10
ag10
ag10
ag10
ag10
ag10
ag10
ag10
ag10
ag10
ag10
ag10
ag10
ag10
ag10
ag10
ag10
ag10
ag10
ag10
ag10
ag10
assS'FN'
p11
(dp12
g3
(lp13
g5
ag5
ag5
ag5
ag5
ag5
ag5
ag5
ag5
ag5
ag5
ag5
ag5
ag5
ag5
ag5
ag5
ag5
ag5
ag5
ag5
ag5
ag5
ag5
ag5
ag5
ag5
ag5
ag5
ag5
ag5
ag5
ag5
ag5
ag5
ag5
ag5
ag5
ag5
ag5
ag5
ag5
ag5
ag5
ag5
ag5
ag5
ag5
ag5
ag5
ag5
ag5
ag5
ag5
ag5
ag5
ag5
ag5
ag5
ag5
ag5
ag5
ag5
ag5
ag5
ag5
ag5
ag5
ag5
ag5
ag5
ag5
ag5
ag5
ag5
ag5
ag5
ag5
ag5
ag5
ag5
ag5
ag5
ag5
ag5
ag5
ag5
ag5
ag5
ag5
ag5
ag5
ag5
ag5
ag5
ag5
ag5
ag5
ag5
ag5
ag5
ag5
ag5
ag5
ag5
ag5
ag5
ag5
ag5
ag5
ag5
ag5
ag5
ag5
ag5
ag5
ag5
ag5
ag5
ag5
ag5
ag5
ag5
ag5
ag5
ag5
ag5
ag5
ag5
ag5
ag5
ag5
ag5
ag5
ag5
ag5
ag5
ag5
ag5
ag5
ag5
ag5
ag5
ag5
ag5
ag5
ag5
ag5
ag5
ag5
ag5
ag5
ag5
ag5
ag5
ag5
ag5
ag5
ag5
ag5
ag5
ag5
ag5
ag5
ag5
ag5
ag5
ag5
ag5
ag5
ag5
ag5
ag5
ag5
ag5
ag5
ag5
ag5
ag5
ag5
ag5
ag5
ag5
ag5
ag5
ag5
ag5
asg6
(lp14
F50.0
aF13868.0
aF13967.0
aF14414.0
aF14665.0
aF14689.0
aF14894.0
aF15138.0
aF16710.0
aF17346.0
aF17509.0
aF17730.0
aF17976.0
aF18350.0
aF18396.0
aF19715.0
aF19760.0
aF20183.0
aF20402.0
aF20748.0
aF20962.0
aF21183.0
aF21731.0
aF21827.0
aF22262.0
aF22513.0
aF22774.0
aF25627.0
aF27256.0
aF48133.0
aF86540.0
aF87172.0
aF87214.0
aF88638.0
aF88716.0
aF88788.0
aF89242.0
aF89320.0
aF89372.0
aF90002.0
aF90131.0
aF90360.0
aF90466.0
aF90853.0
aF90966.0
aF91185.0
aF91879.0
aF92628.0
aF92838.0
aF93297.0
aF93430.0
aF93539.0
aF93802.0
aF94122.0
aF94220.0
aF94680.0
aF97008.0
aF97051.0
aF97280.0
aF97825.0
aF97939.0
aF98651.0
aF99056.0
aF99374.0
aF99491.0
aF99597.0
aF101126.0
aF101185.0
aF101715.0
aF101933.0
aF102782.0
aF106919.0
aF108581.0
aF108704.0
aF111805.0
aF115469.0
aF120774.0
aF121788.0
aF124554.0
aF150777.0
aF151069.0
aF151653.0
aF159814.0
aF160098.0
aF161076.0
aF170465.0
aF173584.0
aF186255.0
aF186859.0
aF551800.0
aF552516.0
aF554682.0
aF554740.0
aF556163.0
aF556937.0
aF557749.0
aF558097.0
aF558309.0
aF558411.0
aF559393.0
aF559905.0
aF560659.0
aF560945.0
aF561073.0
aF561251.0
aF561618.0
aF561833.0
aF562568.0
aF563899.0
aF564299.0
aF565382.0
aF565482.0
aF566305.0
aF566899.0
aF566998.0
aF568174.0
aF568275.0
aF568767.0
aF568872.0
aF568967.0
aF569912.0
aF570017.0
aF570106.0
aF570346.0
aF570619.0
aF571555.0
aF574193.0
aF574272.0
aF575058.0
aF575351.0
aF575599.0
aF575978.0
aF576204.0
aF576309.0
aF578095.0
aF578660.0
aF578846.0
aF579050.0
aF580425.0
aF580533.0
aF580638.0
aF580717.0
aF580820.0
aF580873.0
aF580990.0
aF581064.0
aF581260.0
aF581468.0
aF581553.0
aF581656.0
aF581756.0
aF581961.0
aF583004.0
aF583110.0
aF583213.0
aF583689.0
aF583792.0
aF583865.0
aF584088.0
aF584192.0
aF584476.0
aF584642.0
aF584728.0
aF584842.0
aF585054.0
aF585235.0
aF585539.0
aF585636.0
aF585731.0
aF585853.0
aF586020.0
aF586126.0
aF586335.0
aF586422.0
aF586521.0
aF586629.0
aF587071.0
aF587220.0
aF587391.0
aF587581.0
aF587784.0
aF588092.0
aF588188.0
aF588615.0
aF589926.0
aF629482.0
aF631361.0
asg8
(lp15
g10
ag10
ag10
ag10
ag10
ag10
ag10
ag10
ag10
ag10
ag10
ag10
ag10
ag10
ag10
ag10
ag10
ag10
ag10
ag10
ag10
ag10
ag10
ag10
ag10
ag10
ag10
ag10
ag10
ag10
ag10
ag10
ag10
ag10
ag10
ag10
ag10
ag10
ag10
ag10
ag10
ag10
ag10
ag10
ag10
ag10
ag10
ag10
ag10
ag10
ag10
ag10
ag10
ag10
ag10
ag10
ag10
ag10
ag10
ag10
ag10
ag10
ag10
ag10
ag10
ag10
ag10
ag10
ag10
ag10
ag10
ag10
ag10
ag10
ag10
ag10
ag10
ag10
ag10
ag10
ag10
ag10
ag10
ag10
ag10
ag10
ag10
ag10
ag10
ag10
ag10
ag10
ag10
ag10
ag10
ag10
ag10
ag10
ag10
ag10
ag10
ag10
ag10
ag10
ag10
ag10
ag10
ag10
ag10
ag10
ag10
ag10
ag10
ag10
ag10
ag10
ag10
ag10
ag10
ag10
ag10
ag10
ag10
ag10
ag10
ag10
ag10
ag10
ag10
ag10
ag10
ag10
ag10
ag10
ag10
ag10
ag10
ag10
ag10
ag10
ag10
ag10
ag10
ag10
ag10
ag10
ag10
ag10
ag10
ag10
ag10
ag10
ag10
ag10
ag10
ag10
ag10
ag10
ag10
ag10
ag10
ag10
ag10
ag10
ag10
ag10
ag10
ag10
ag10
ag10
ag10
ag10
ag10
ag10
ag10
ag10
ag10
ag10
ag10
ag10
ag10
ag10
ag10
ag10
ag10
ag10
ag10
ass.