(dp0
S'FP'
p1
(dp2
S'recname'
p3
(lp4
S'208'
p5
ag5
ag5
ag5
ag5
ag5
ag5
ag5
ag5
ag5
ag5
ag5
ag5
ag5
ag5
ag5
ag5
ag5
ag5
ag5
ag5
ag5
ag5
ag5
ag5
ag5
ag5
ag5
ag5
ag5
ag5
ag5
ag5
ag5
ag5
ag5
ag5
ag5
asS'pos'
p6
(lp7
I6906
aI126149
aI129578
aI129776
aI132572
aI132899
aI224872
aI423275
aI423822
aI424382
aI433084
aI433395
aI433479
aI436707
aI441554
aI442031
aI442417
aI443925
aI444076
aI444162
aI454647
aI458434
aI458489
aI460233
aI460422
aI462292
aI462364
aI462545
aI463647
aI491613
aI550869
aI553801
aI555100
aI556865
aI556953
aI557099
aI557172
aI557362
asS'label'
p8
(lp9
S'R'
p10
ag10
ag10
ag10
ag10
ag10
ag10
ag10
ag10
ag10
ag10
ag10
ag10
ag10
ag10
ag10
ag10
ag10
ag10
ag10
ag10
ag10
ag10
ag10
ag10
ag10
ag10
ag10
ag10
ag10
ag10
ag10
ag10
ag10
ag10
ag10
ag10
ag10
assS'FN'
p11
(dp12
g3
(lp13
g5
ag5
ag5
ag5
ag5
ag5
ag5
ag5
ag5
ag5
ag5
ag5
ag5
ag5
ag5
ag5
ag5
ag5
ag5
ag5
ag5
ag5
ag5
ag5
ag5
ag5
ag5
ag5
ag5
ag5
ag5
ag5
ag5
ag5
ag5
ag5
ag5
ag5
ag5
ag5
ag5
ag5
ag5
ag5
ag5
ag5
ag5
ag5
ag5
ag5
ag5
ag5
ag5
ag5
ag5
ag5
ag5
ag5
ag5
ag5
ag5
ag5
ag5
ag5
ag5
ag5
ag5
ag5
ag5
ag5
ag5
ag5
ag5
ag5
ag5
ag5
ag5
ag5
ag5
ag5
ag5
ag5
ag5
ag5
ag5
ag5
ag5
ag5
ag5
ag5
ag5
ag5
asg6
(lp14
F46.0
aF6482.0
aF8093.0
aF13030.0
aF19850.0
aF22415.0
aF27257.0
aF34691.0
aF36135.0
aF47428.0
aF49955.0
aF53281.0
aF55421.0
aF59798.0
aF63865.0
aF74266.0
aF75407.0
aF75711.0
aF75815.0
aF99031.0
aF102977.0
aF112262.0
aF115002.0
aF122073.0
aF135370.0
aF136281.0
aF137533.0
aF141360.0
aF142674.0
aF323548.0
aF324368.0
aF326108.0
aF326294.0
aF327833.0
aF329791.0
aF331232.0
aF331367.0
aF350068.0
aF352486.0
aF360583.0
aF363627.0
aF371851.0
aF377196.0
aF386894.0
aF401057.0
aF405729.0
aF420724.0
aF422163.0
aF432868.0
aF433662.0
aF437925.0
aF438292.0
aF438464.0
aF438962.0
aF450719.0
aF453453.0
aF453644.0
aF453806.0
aF454171.0
aF457582.0
aF460774.0
aF484889.0
aF487066.0
aF497885.0
aF498195.0
aF498442.0
aF498665.0
aF498864.0
aF499084.0
aF499292.0
aF499495.0
aF500016.0
aF500052.0
aF502239.0
aF504085.0
aF505688.0
aF515817.0
aF517389.0
aF520426.0
aF523496.0
aF538209.0
aF539456.0
aF542196.0
aF544966.0
aF550108.0
aF559278.0
aF560296.0
aF580370.0
aF594024.0
aF599210.0
aF642598.0
aF647126.0
asg8
(lp15
g10
ag10
ag10
ag10
ag10
ag10
ag10
ag10
ag10
ag10
ag10
ag10
ag10
ag10
ag10
ag10
ag10
ag10
ag10
ag10
ag10
ag10
ag10
ag10
ag10
ag10
ag10
ag10
ag10
ag10
ag10
ag10
ag10
ag10
ag10
ag10
ag10
ag10
ag10
ag10
ag10
ag10
ag10
ag10
ag10
ag10
ag10
ag10
ag10
ag10
ag10
ag10
ag10
ag10
ag10
ag10
ag10
ag10
ag10
ag10
ag10
ag10
ag10
ag10
ag10
ag10
ag10
ag10
ag10
ag10
ag10
ag10
ag10
ag10
ag10
ag10
ag10
ag10
ag10
ag10
ag10
ag10
ag10
ag10
ag10
ag10
ag10
ag10
ag10
ag10
ag10
ag10
ass.