(dp0
S'FP'
p1
(dp2
S'recname'
p3
(lp4
S'210'
p5
ag5
ag5
ag5
ag5
ag5
ag5
ag5
ag5
ag5
ag5
ag5
ag5
ag5
ag5
ag5
ag5
ag5
ag5
ag5
ag5
ag5
ag5
ag5
ag5
ag5
ag5
ag5
ag5
ag5
ag5
ag5
ag5
ag5
ag5
ag5
ag5
ag5
ag5
ag5
ag5
ag5
ag5
ag5
ag5
ag5
ag5
ag5
ag5
ag5
ag5
ag5
ag5
ag5
ag5
ag5
ag5
ag5
ag5
ag5
ag5
ag5
ag5
ag5
ag5
ag5
ag5
ag5
ag5
ag5
ag5
ag5
ag5
ag5
ag5
ag5
ag5
ag5
ag5
asS'pos'
p6
(lp7
I64084
aI64394
aI64577
aI64901
aI65422
aI66131
aI66188
aI66440
aI66551
aI66906
aI66974
aI67035
aI67219
aI67503
aI67719
aI67797
aI67951
aI68043
aI68158
aI68236
aI68296
aI68443
aI68610
aI68694
aI68747
aI68924
aI69120
aI69399
aI69480
aI69637
aI69830
aI69909
aI70102
aI81441
aI81492
aI82453
aI82559
aI82624
aI82735
aI82794
aI82872
aI83019
aI83075
aI83195
aI83330
aI83485
aI83585
aI83821
aI83987
aI84129
aI84432
aI84688
aI85121
aI85198
aI85249
aI85389
aI85517
aI85711
aI85859
aI86210
aI86406
aI86633
aI86783
aI86841
aI86894
aI87214
aI87273
aI87555
aI87749
aI88026
aI345815
aI345869
aI346175
aI347058
aI347109
aI347233
aI348600
aI354037
aI637512
asS'label'
p8
(lp9
S'R'
p10
ag10
ag10
ag10
ag10
ag10
ag10
ag10
ag10
ag10
ag10
ag10
ag10
ag10
ag10
ag10
ag10
ag10
ag10
ag10
ag10
ag10
ag10
ag10
ag10
ag10
ag10
ag10
ag10
ag10
ag10
ag10
ag10
ag10
ag10
ag10
ag10
ag10
ag10
ag10
ag10
ag10
ag10
ag10
ag10
ag10
ag10
ag10
ag10
ag10
ag10
ag10
ag10
ag10
ag10
ag10
ag10
ag10
ag10
ag10
ag10
ag10
ag10
ag10
ag10
ag10
ag10
ag10
ag10
ag10
ag10
ag10
ag10
ag10
ag10
ag10
ag10
ag10
ag10
assS'FN'
p11
(dp12
g3
(lp13
g5
ag5
ag5
ag5
ag5
ag5
ag5
ag5
ag5
ag5
ag5
ag5
ag5
ag5
ag5
ag5
ag5
ag5
ag5
ag5
ag5
ag5
ag5
ag5
ag5
ag5
ag5
ag5
ag5
ag5
ag5
ag5
ag5
ag5
ag5
ag5
ag5
ag5
ag5
ag5
ag5
ag5
ag5
ag5
ag5
ag5
ag5
ag5
asg6
(lp14
F57.0
aF12506.0
aF71506.0
aF81064.0
aF88260.0
aF115925.0
aF151554.0
aF152488.0
aF170603.0
aF179648.0
aF216091.0
aF218413.0
aF218539.0
aF273691.0
aF288514.0
aF302953.0
aF303520.0
aF303860.0
aF345494.0
aF346350.0
aF349394.0
aF349615.0
aF352982.0
aF353969.0
aF354154.0
aF354394.0
aF354520.0
aF354596.0
aF354766.0
aF366154.0
aF367320.0
aF368074.0
aF368862.0
aF370012.0
aF389865.0
aF390958.0
aF392699.0
aF394037.0
aF397020.0
aF400544.0
aF401713.0
aF436416.0
aF483107.0
aF596913.0
aF598041.0
aF602258.0
aF608531.0
aF635596.0
asg8
(lp15
g10
ag10
ag10
ag10
ag10
ag10
ag10
ag10
ag10
ag10
ag10
ag10
ag10
ag10
ag10
ag10
ag10
ag10
ag10
ag10
ag10
ag10
ag10
ag10
ag10
ag10
ag10
ag10
ag10
ag10
ag10
ag10
ag10
ag10
ag10
ag10
ag10
ag10
ag10
ag10
ag10
ag10
ag10
ag10
ag10
ag10
ag10
ag10
ass.