(dp0
S'FP'
p1
(dp2
S'recname'
p3
(lp4
S'212'
p5
ag5
ag5
ag5
ag5
ag5
ag5
ag5
ag5
ag5
ag5
ag5
ag5
ag5
ag5
ag5
ag5
ag5
ag5
ag5
ag5
ag5
ag5
ag5
ag5
ag5
ag5
ag5
ag5
ag5
ag5
ag5
ag5
ag5
ag5
ag5
ag5
ag5
ag5
ag5
ag5
ag5
ag5
ag5
ag5
ag5
ag5
ag5
ag5
ag5
ag5
ag5
ag5
ag5
ag5
ag5
ag5
ag5
ag5
ag5
ag5
ag5
ag5
ag5
ag5
ag5
ag5
ag5
ag5
ag5
ag5
ag5
ag5
ag5
ag5
ag5
ag5
ag5
ag5
ag5
ag5
ag5
ag5
ag5
ag5
ag5
ag5
ag5
ag5
ag5
ag5
ag5
ag5
ag5
ag5
ag5
ag5
ag5
ag5
ag5
ag5
ag5
ag5
ag5
ag5
ag5
ag5
ag5
ag5
ag5
ag5
ag5
ag5
ag5
ag5
ag5
ag5
ag5
ag5
ag5
ag5
ag5
ag5
ag5
ag5
ag5
ag5
ag5
ag5
ag5
ag5
ag5
ag5
ag5
ag5
ag5
ag5
ag5
ag5
ag5
ag5
ag5
ag5
ag5
ag5
ag5
ag5
ag5
ag5
ag5
ag5
ag5
ag5
ag5
ag5
ag5
ag5
ag5
ag5
ag5
ag5
ag5
ag5
ag5
ag5
ag5
ag5
ag5
ag5
ag5
ag5
ag5
ag5
ag5
ag5
ag5
ag5
ag5
ag5
ag5
ag5
ag5
ag5
ag5
ag5
ag5
ag5
ag5
ag5
ag5
ag5
ag5
ag5
ag5
asS'pos'
p6
(lp7
I113208
aI121418
aI122829
aI123250
aI123637
aI123962
aI124118
aI124808
aI125940
aI126341
aI128618
aI129535
aI130412
aI131839
aI132103
aI132169
aI132420
aI132764
aI139739
aI139987
aI140279
aI140486
aI141149
aI141572
aI142098
aI142469
aI142587
aI142824
aI143032
aI143270
aI143322
aI143401
aI143752
aI144353
aI144494
aI144962
aI145025
aI146556
aI146840
aI147089
aI147253
aI147819
aI148160
aI149164
aI149376
aI150234
aI150672
aI151436
aI151626
aI153691
aI156420
aI156797
aI157640
aI158083
aI159003
aI159997
aI160161
aI160999
aI161450
aI162307
aI162639
aI164998
aI165221
aI165692
aI167953
aI168432
aI168886
aI169096
aI169201
aI169325
aI169412
aI169523
aI170771
aI173459
aI173677
aI174989
aI175343
aI175585
aI176040
aI176600
aI176767
aI176982
aI177228
aI177696
aI177761
aI177994
aI178132
aI178214
aI178476
aI178655
aI178842
aI179319
aI180068
aI181187
aI181891
aI182553
aI182720
aI182959
aI190421
aI190623
aI191592
aI191801
aI192645
aI193025
aI193984
aI194266
aI195624
aI196315
aI197038
aI197454
aI197774
aI198193
aI198567
aI203148
aI204399
aI204844
aI207955
aI208260
aI208597
aI208668
aI208862
aI208924
aI209209
aI209434
aI210056
aI210263
aI210974
aI211853
aI212246
aI212999
aI214278
aI214632
aI218668
aI220323
aI220396
aI220545
aI220598
aI220781
aI222152
aI222870
aI222938
aI223397
aI224346
aI225148
aI225266
aI225510
aI225878
aI226113
aI226552
aI226649
aI227436
aI228855
aI229681
aI232286
aI242571
aI242801
aI242882
aI244463
aI245573
aI245808
aI246057
aI246231
aI246466
aI247707
aI248197
aI248593
aI252426
aI252479
aI375670
aI400186
aI400313
aI410381
aI411124
aI412286
aI414206
aI496735
aI497015
aI497462
aI498660
aI500761
aI502763
aI502822
aI503268
aI503329
aI503746
aI503898
aI522724
aI559336
aI559450
aI559590
aI581024
aI630801
aI631598
aI631832
asS'label'
p8
(lp9
S'R'
p10
ag10
ag10
ag10
ag10
ag10
ag10
ag10
ag10
ag10
ag10
ag10
ag10
ag10
ag10
ag10
ag10
ag10
ag10
ag10
ag10
ag10
ag10
ag10
ag10
ag10
ag10
ag10
ag10
ag10
ag10
ag10
ag10
ag10
ag10
ag10
ag10
ag10
ag10
ag10
ag10
ag10
ag10
ag10
ag10
ag10
ag10
ag10
ag10
ag10
ag10
ag10
ag10
ag10
ag10
ag10
ag10
ag10
ag10
ag10
ag10
ag10
ag10
ag10
ag10
ag10
ag10
ag10
ag10
ag10
ag10
ag10
ag10
ag10
ag10
ag10
ag10
ag10
ag10
ag10
ag10
ag10
ag10
ag10
ag10
ag10
ag10
ag10
ag10
ag10
ag10
ag10
ag10
ag10
ag10
ag10
ag10
ag10
ag10
ag10
ag10
ag10
ag10
ag10
ag10
ag10
ag10
ag10
ag10
ag10
ag10
ag10
ag10
ag10
ag10
ag10
ag10
ag10
ag10
ag10
ag10
ag10
ag10
ag10
ag10
ag10
ag10
ag10
ag10
ag10
ag10
ag10
ag10
ag10
ag10
ag10
ag10
ag10
ag10
ag10
ag10
ag10
ag10
ag10
ag10
ag10
ag10
ag10
ag10
ag10
ag10
ag10
ag10
ag10
ag10
ag10
ag10
ag10
ag10
ag10
ag10
ag10
ag10
ag10
ag10
ag10
ag10
ag10
ag10
ag10
ag10
ag10
ag10
ag10
ag10
ag10
ag10
ag10
ag10
ag10
ag10
ag10
ag10
ag10
ag10
ag10
ag10
ag10
ag10
ag10
ag10
ag10
ag10
ag10
assS'FN'
p11
(dp12
g3
(lp13
g5
ag5
ag5
ag5
ag5
ag5
ag5
ag5
ag5
ag5
ag5
ag5
ag5
ag5
ag5
asg6
(lp14
F125.0
aF252274.0
aF252720.0
aF322901.0
aF400073.0
aF401859.0
aF404855.0
aF406365.0
aF502327.0
aF502485.0
aF504109.0
aF572400.0
aF572840.0
aF578363.0
aF581268.0
asg8
(lp15
g10
ag10
ag10
ag10
ag10
ag10
ag10
ag10
ag10
ag10
ag10
ag10
ag10
ag10
ag10
ass.