(dp0
S'FP'
p1
(dp2
S'recname'
p3
(lp4
S'213'
p5
ag5
ag5
ag5
asS'pos'
p6
(lp7
I348470
aI349996
aI358321
aI358582
asS'label'
p8
(lp9
S'R'
p10
ag10
ag10
ag10
assS'FN'
p11
(dp12
g3
(lp13
g5
ag5
ag5
ag5
ag5
ag5
ag5
ag5
ag5
ag5
ag5
ag5
ag5
ag5
ag5
ag5
ag5
ag5
ag5
ag5
ag5
ag5
ag5
ag5
ag5
ag5
ag5
ag5
ag5
ag5
ag5
ag5
ag5
ag5
ag5
ag5
ag5
ag5
ag5
ag5
ag5
ag5
ag5
ag5
ag5
asg6
(lp14
F18.0
aF53845.0
aF54821.0
aF95831.0
aF96794.0
aF114696.0
aF115686.0
aF167075.0
aF168060.0
aF170619.0
aF171620.0
aF173400.0
aF174382.0
aF176557.0
aF177558.0
aF219372.0
aF220363.0
aF224902.0
aF225896.0
aF278006.0
aF279384.0
aF282376.0
aF283383.0
aF285569.0
aF287361.0
aF308273.0
aF309270.0
aF322260.0
aF322505.0
aF322850.0
aF376196.0
aF377597.0
aF379215.0
aF380044.0
aF381413.0
aF382399.0
aF385831.0
aF388036.0
aF496534.0
aF497557.0
aF499781.0
aF500786.0
aF504147.0
aF577591.0
aF578609.0
asg8
(lp15
g10
ag10
ag10
ag10
ag10
ag10
ag10
ag10
ag10
ag10
ag10
ag10
ag10
ag10
ag10
ag10
ag10
ag10
ag10
ag10
ag10
ag10
ag10
ag10
ag10
ag10
ag10
ag10
ag10
ag10
ag10
ag10
ag10
ag10
ag10
ag10
ag10
ag10
ag10
ag10
ag10
ag10
ag10
ag10
ag10
ass.