(dp0
S'FP'
p1
(dp2
S'recname'
p3
(lp4
S'214'
p5
ag5
ag5
ag5
ag5
ag5
ag5
ag5
ag5
ag5
ag5
asS'pos'
p6
(lp7
I27935
aI28253
aI28321
aI28390
aI28501
aI28607
aI28968
aI29020
aI197711
aI303928
aI419043
asS'label'
p8
(lp9
S'R'
p10
ag10
ag10
ag10
ag10
ag10
ag10
ag10
ag10
ag10
ag10
assS'FN'
p11
(dp12
g3
(lp13
g5
ag5
ag5
ag5
ag5
ag5
ag5
ag5
ag5
ag5
ag5
ag5
ag5
ag5
ag5
ag5
ag5
ag5
ag5
ag5
ag5
ag5
ag5
ag5
ag5
ag5
ag5
ag5
ag5
ag5
ag5
ag5
ag5
ag5
ag5
asg6
(lp14
F58.0
aF27619.0
aF27869.0
aF28113.0
aF29231.0
aF29808.0
aF31665.0
aF50211.0
aF76155.0
aF87461.0
aF91176.0
aF93819.0
aF113293.0
aF123155.0
aF123977.0
aF125305.0
aF127250.0
aF152650.0
aF180809.0
aF195178.0
aF197999.0
aF232551.0
aF236178.0
aF301494.0
aF302310.0
aF398868.0
aF400950.0
aF451231.0
aF453238.0
aF457230.0
aF459108.0
aF567282.0
aF569233.0
aF646789.0
aF648663.0
asg8
(lp15
g10
ag10
ag10
ag10
ag10
ag10
ag10
ag10
ag10
ag10
ag10
ag10
ag10
ag10
ag10
ag10
ag10
ag10
ag10
ag10
ag10
ag10
ag10
ag10
ag10
ag10
ag10
ag10
ag10
ag10
ag10
ag10
ag10
ag10
ag10
ass.