(dp0
S'FP'
p1
(dp2
S'recname'
p3
(lp4
S'215'
p5
ag5
ag5
ag5
ag5
ag5
ag5
ag5
ag5
ag5
ag5
ag5
ag5
ag5
ag5
ag5
ag5
ag5
ag5
ag5
ag5
ag5
ag5
ag5
ag5
ag5
ag5
ag5
ag5
ag5
ag5
ag5
ag5
ag5
ag5
ag5
ag5
ag5
ag5
ag5
ag5
ag5
ag5
ag5
ag5
ag5
ag5
ag5
ag5
ag5
ag5
ag5
ag5
ag5
ag5
ag5
ag5
ag5
ag5
ag5
ag5
ag5
ag5
ag5
ag5
ag5
ag5
ag5
ag5
ag5
ag5
ag5
ag5
ag5
ag5
ag5
ag5
ag5
ag5
ag5
ag5
ag5
ag5
ag5
ag5
ag5
ag5
ag5
ag5
ag5
ag5
asS'pos'
p6
(lp7
I2290
aI4398
aI40899
aI42123
aI42251
aI42440
aI67661
aI67788
aI67893
aI67948
aI68106
aI68172
aI68344
aI68397
aI68513
aI68566
aI68679
aI68865
aI69021
aI69090
aI69214
aI69434
aI70429
aI70535
aI70611
aI70741
aI70947
aI75456
aI75851
aI81903
aI82263
aI82840
aI83028
aI83231
aI83618
aI85883
aI87993
aI88858
aI89647
aI90194
aI94186
aI96114
aI97057
aI97903
aI103825
aI107362
aI107873
aI112621
aI113011
aI116312
aI124259
aI124481
aI154814
aI155195
aI157372
aI157523
aI161195
aI166000
aI166369
aI166571
aI166634
aI167177
aI167737
aI176882
aI194059
aI194414
aI195792
aI196491
aI211815
aI345780
aI349125
aI349305
aI350316
aI350938
aI353236
aI353576
aI356057
aI356396
aI356629
aI357486
aI365704
aI365928
aI371112
aI378050
aI383230
aI416645
aI417439
aI425537
aI427709
aI460846
aI550613
asS'label'
p8
(lp9
S'R'
p10
ag10
ag10
ag10
ag10
ag10
ag10
ag10
ag10
ag10
ag10
ag10
ag10
ag10
ag10
ag10
ag10
ag10
ag10
ag10
ag10
ag10
ag10
ag10
ag10
ag10
ag10
ag10
ag10
ag10
ag10
ag10
ag10
ag10
ag10
ag10
ag10
ag10
ag10
ag10
ag10
ag10
ag10
ag10
ag10
ag10
ag10
ag10
ag10
ag10
ag10
ag10
ag10
ag10
ag10
ag10
ag10
ag10
ag10
ag10
ag10
ag10
ag10
ag10
ag10
ag10
ag10
ag10
ag10
ag10
ag10
ag10
ag10
ag10
ag10
ag10
ag10
ag10
ag10
ag10
ag10
ag10
ag10
ag10
ag10
ag10
ag10
ag10
ag10
ag10
ag10
assS'FN'
p11
(dp12
g3
(lp13
g5
ag5
ag5
ag5
ag5
ag5
ag5
ag5
ag5
ag5
ag5
ag5
ag5
ag5
ag5
ag5
ag5
ag5
ag5
ag5
ag5
ag5
ag5
ag5
ag5
ag5
ag5
ag5
ag5
ag5
ag5
ag5
ag5
ag5
ag5
ag5
ag5
asg6
(lp14
F41.0
aF64556.0
aF64914.0
aF67388.0
aF67625.0
aF69622.0
aF70271.0
aF71470.0
aF73761.0
aF244952.0
aF246210.0
aF279250.0
aF280104.0
aF290311.0
aF291259.0
aF311979.0
aF312503.0
aF332157.0
aF333205.0
aF443184.0
aF443573.0
aF450651.0
aF451516.0
aF460656.0
aF461624.0
aF480024.0
aF480731.0
aF482565.0
aF586981.0
aF587793.0
aF594947.0
aF595889.0
aF605045.0
aF605755.0
aF635964.0
aF637298.0
aF642290.0
asg8
(lp15
g10
ag10
ag10
ag10
ag10
ag10
ag10
ag10
ag10
ag10
ag10
ag10
ag10
ag10
ag10
ag10
ag10
ag10
ag10
ag10
ag10
ag10
ag10
ag10
ag10
ag10
ag10
ag10
ag10
ag10
ag10
ag10
ag10
ag10
ag10
ag10
ag10
ass.