(dp0
S'FP'
p1
(dp2
S'recname'
p3
(lp4
S'217'
p5
asS'pos'
p6
(lp7
I283097
asS'label'
p8
(lp9
S'R'
p10
assS'FN'
p11
(dp12
g3
(lp13
g5
ag5
ag5
ag5
ag5
ag5
ag5
ag5
ag5
ag5
ag5
ag5
ag5
ag5
ag5
ag5
ag5
ag5
ag5
ag5
ag5
ag5
ag5
ag5
ag5
ag5
ag5
ag5
ag5
ag5
ag5
ag5
ag5
ag5
ag5
ag5
ag5
ag5
ag5
ag5
ag5
ag5
ag5
ag5
ag5
ag5
ag5
ag5
ag5
ag5
ag5
ag5
ag5
ag5
ag5
ag5
ag5
ag5
ag5
ag5
ag5
ag5
ag5
ag5
ag5
ag5
ag5
ag5
ag5
ag5
ag5
ag5
ag5
ag5
ag5
ag5
ag5
asg6
(lp14
F102.0
aF31131.0
aF33058.0
aF67227.0
aF67966.0
aF94358.0
aF95977.0
aF105659.0
aF107026.0
aF147582.0
aF149727.0
aF154940.0
aF155367.0
aF155573.0
aF157556.0
aF158717.0
aF165653.0
aF167043.0
aF171505.0
aF172421.0
aF214525.0
aF215943.0
aF252454.0
aF253430.0
aF254814.0
aF255472.0
aF269596.0
aF271569.0
aF282922.0
aF283878.0
aF284647.0
aF289435.0
aF290618.0
aF295298.0
aF298753.0
aF300578.0
aF301963.0
aF304410.0
aF304560.0
aF304865.0
aF305152.0
aF305354.0
aF305637.0
aF307295.0
aF309352.0
aF310852.0
aF312852.0
aF316518.0
aF321324.0
aF326545.0
aF330618.0
aF332903.0
aF341368.0
aF342271.0
aF345943.0
aF347566.0
aF349947.0
aF350868.0
aF368756.0
aF370854.0
aF376958.0
aF378125.0
aF379457.0
aF380915.0
aF386673.0
aF391074.0
aF391906.0
aF392818.0
aF395481.0
aF431944.0
aF433088.0
aF457931.0
aF459335.0
aF483993.0
aF491498.0
aF503875.0
aF505242.0
asg8
(lp15
g10
ag10
ag10
ag10
ag10
ag10
ag10
ag10
ag10
ag10
ag10
ag10
ag10
ag10
ag10
ag10
ag10
ag10
ag10
ag10
ag10
ag10
ag10
ag10
ag10
ag10
ag10
ag10
ag10
ag10
ag10
ag10
ag10
ag10
ag10
ag10
ag10
ag10
ag10
ag10
ag10
ag10
ag10
ag10
ag10
ag10
ag10
ag10
ag10
ag10
ag10
ag10
ag10
ag10
ag10
ag10
ag10
ag10
ag10
ag10
ag10
ag10
ag10
ag10
ag10
ag10
ag10
ag10
ag10
ag10
ag10
ag10
ag10
ag10
ag10
ag10
ag10
ass.