(dp0
S'FP'
p1
(dp2
S'recname'
p3
(lp4
S'219'
p5
ag5
asS'pos'
p6
(lp7
I108963
aI480721
asS'label'
p8
(lp9
S'R'
p10
ag10
assS'FN'
p11
(dp12
g3
(lp13
g5
ag5
ag5
ag5
ag5
ag5
ag5
ag5
ag5
ag5
ag5
ag5
ag5
ag5
ag5
ag5
ag5
ag5
ag5
ag5
ag5
ag5
ag5
ag5
ag5
ag5
ag5
ag5
ag5
ag5
ag5
ag5
ag5
ag5
ag5
ag5
ag5
ag5
ag5
ag5
ag5
ag5
ag5
ag5
ag5
ag5
ag5
ag5
ag5
ag5
ag5
ag5
ag5
ag5
ag5
ag5
ag5
ag5
ag5
ag5
ag5
ag5
ag5
ag5
ag5
ag5
ag5
ag5
ag5
ag5
ag5
ag5
ag5
ag5
ag5
ag5
ag5
ag5
ag5
ag5
ag5
ag5
ag5
ag5
ag5
ag5
ag5
ag5
ag5
ag5
ag5
ag5
ag5
ag5
ag5
ag5
ag5
ag5
ag5
ag5
ag5
ag5
ag5
ag5
ag5
ag5
ag5
ag5
ag5
ag5
ag5
ag5
ag5
ag5
ag5
ag5
ag5
ag5
ag5
ag5
ag5
ag5
ag5
ag5
ag5
ag5
ag5
ag5
ag5
ag5
ag5
ag5
ag5
ag5
ag5
ag5
ag5
ag5
ag5
ag5
ag5
ag5
ag5
ag5
ag5
ag5
ag5
ag5
ag5
ag5
ag5
ag5
ag5
ag5
ag5
ag5
ag5
asg6
(lp14
F188.0
aF33119.0
aF36627.0
aF109192.0
aF116870.0
aF117599.0
aF300575.0
aF300817.0
aF302003.0
aF303821.0
aF305606.0
aF307174.0
aF321702.0
aF322204.0
aF323098.0
aF323968.0
aF324800.0
aF325647.0
aF326615.0
aF331189.0
aF331684.0
aF332528.0
aF333382.0
aF334210.0
aF335042.0
aF335882.0
aF336733.0
aF337562.0
aF338379.0
aF339349.0
aF340199.0
aF340682.0
aF341542.0
aF342379.0
aF343200.0
aF344038.0
aF344865.0
aF346091.0
aF346931.0
aF347770.0
aF348303.0
aF349145.0
aF349974.0
aF350792.0
aF351346.0
aF352173.0
aF352994.0
aF353544.0
aF354377.0
aF355212.0
aF356033.0
aF356833.0
aF357658.0
aF358493.0
aF359322.0
aF359873.0
aF360403.0
aF360945.0
aF361749.0
aF362568.0
aF363113.0
aF363927.0
aF364464.0
aF365017.0
aF365563.0
aF366386.0
aF367197.0
aF368020.0
aF368545.0
aF369098.0
aF369642.0
aF370176.0
aF370716.0
aF371536.0
aF372093.0
aF372621.0
aF373446.0
aF375729.0
aF376303.0
aF376858.0
aF377398.0
aF377625.0
aF381194.0
aF383575.0
aF386884.0
aF387439.0
aF388001.0
aF389444.0
aF391444.0
aF392010.0
aF392550.0
aF393115.0
aF393645.0
aF394762.0
aF395613.0
aF396434.0
aF397575.0
aF398408.0
aF399829.0
aF400376.0
aF400914.0
aF401463.0
aF401723.0
aF413166.0
aF417447.0
aF418031.0
aF420433.0
aF421021.0
aF421584.0
aF422136.0
aF422688.0
aF424125.0
aF426494.0
aF427050.0
aF427618.0
aF428159.0
aF428718.0
aF429261.0
aF432534.0
aF433120.0
aF434611.0
aF436066.0
aF436616.0
aF437182.0
aF437726.0
aF437749.0
aF439101.0
aF480583.0
aF480987.0
aF482061.0
aF482884.0
aF483713.0
aF484552.0
aF485045.0
aF485461.0
aF486326.0
aF487163.0
aF487997.0
aF488840.0
aF489673.0
aF490506.0
aF491343.0
aF492163.0
aF492722.0
aF493566.0
aF494385.0
aF495221.0
aF496051.0
aF496588.0
aF498254.0
aF498824.0
aF499376.0
aF499936.0
aF500483.0
aF500516.0
aF501037.0
aF501948.0
asg8
(lp15
g10
ag10
ag10
ag10
ag10
ag10
ag10
ag10
ag10
ag10
ag10
ag10
ag10
ag10
ag10
ag10
ag10
ag10
ag10
ag10
ag10
ag10
ag10
ag10
ag10
ag10
ag10
ag10
ag10
ag10
ag10
ag10
ag10
ag10
ag10
ag10
ag10
ag10
ag10
ag10
ag10
ag10
ag10
ag10
ag10
ag10
ag10
ag10
ag10
ag10
ag10
ag10
ag10
ag10
ag10
ag10
ag10
ag10
ag10
ag10
ag10
ag10
ag10
ag10
ag10
ag10
ag10
ag10
ag10
ag10
ag10
ag10
ag10
ag10
ag10
ag10
ag10
ag10
ag10
ag10
ag10
ag10
ag10
ag10
ag10
ag10
ag10
ag10
ag10
ag10
ag10
ag10
ag10
ag10
ag10
ag10
ag10
ag10
ag10
ag10
ag10
ag10
ag10
ag10
ag10
ag10
ag10
ag10
ag10
ag10
ag10
ag10
ag10
ag10
ag10
ag10
ag10
ag10
ag10
ag10
ag10
ag10
ag10
ag10
ag10
ag10
ag10
ag10
ag10
ag10
ag10
ag10
ag10
ag10
ag10
ag10
ag10
ag10
ag10
ag10
ag10
ag10
ag10
ag10
ag10
ag10
ag10
ag10
ag10
ag10
ag10
ag10
ag10
ag10
ag10
ag10
ag10
ass.