(dp0
S'FP'
p1
(dp2
S'recname'
p3
(lp4
S'221'
p5
ag5
ag5
ag5
ag5
ag5
ag5
asS'pos'
p6
(lp7
I261887
aI262065
aI425615
aI425804
aI426038
aI426315
aI426368
asS'label'
p8
(lp9
S'R'
p10
ag10
ag10
ag10
ag10
ag10
ag10
assS'FN'
p11
(dp12
g3
(lp13
g5
ag5
ag5
ag5
ag5
ag5
ag5
ag5
ag5
ag5
ag5
ag5
ag5
ag5
ag5
ag5
ag5
ag5
ag5
ag5
ag5
ag5
ag5
ag5
ag5
ag5
ag5
ag5
ag5
ag5
ag5
ag5
ag5
ag5
ag5
ag5
ag5
asg6
(lp14
F28.0
aF103972.0
aF105889.0
aF144440.0
aF146218.0
aF189319.0
aF191136.0
aF196435.0
aF197230.0
aF198216.0
aF198552.0
aF231822.0
aF247716.0
aF249463.0
aF253307.0
aF255055.0
aF261161.0
aF262903.0
aF272977.0
aF274162.0
aF282509.0
aF283150.0
aF303035.0
aF303654.0
aF348019.0
aF350701.0
aF364752.0
aF366521.0
aF377521.0
aF378482.0
aF395420.0
aF395865.0
aF415561.0
aF416080.0
aF425387.0
aF426832.0
aF615344.0
asg8
(lp15
g10
ag10
ag10
ag10
ag10
ag10
ag10
ag10
ag10
ag10
ag10
ag10
ag10
ag10
ag10
ag10
ag10
ag10
ag10
ag10
ag10
ag10
ag10
ag10
ag10
ag10
ag10
ag10
ag10
ag10
ag10
ag10
ag10
ag10
ag10
ag10
ag10
ass.