(dp0
S'FP'
p1
(dp2
S'recname'
p3
(lp4
S'222'
p5
ag5
ag5
ag5
ag5
ag5
ag5
ag5
ag5
ag5
ag5
ag5
ag5
ag5
ag5
ag5
ag5
ag5
ag5
ag5
ag5
ag5
ag5
ag5
ag5
ag5
ag5
ag5
ag5
ag5
ag5
ag5
ag5
ag5
ag5
ag5
ag5
ag5
ag5
ag5
ag5
ag5
ag5
ag5
ag5
ag5
ag5
ag5
ag5
ag5
ag5
ag5
ag5
ag5
ag5
ag5
ag5
ag5
ag5
ag5
asS'pos'
p6
(lp7
I40013
aI40212
aI41423
aI41760
aI41813
aI41882
aI42005
aI48031
aI140831
aI140966
aI141830
aI141913
aI151092
aI188604
aI229679
aI229752
aI265039
aI278263
aI278922
aI302800
aI343202
aI369374
aI454926
aI457311
aI457587
aI457998
aI458129
aI462440
aI462617
aI462679
aI462897
aI463088
aI466698
aI466986
aI467964
aI481952
aI490252
aI490304
aI490500
aI490673
aI499386
aI534701
aI535352
aI535494
aI536426
aI536484
aI536668
aI536734
aI536888
aI537084
aI542153
aI555104
aI555925
aI556043
aI575670
aI579509
aI588151
aI600952
aI631724
aI638832
asS'label'
p8
(lp9
S'R'
p10
ag10
ag10
ag10
ag10
ag10
ag10
ag10
ag10
ag10
ag10
ag10
ag10
ag10
ag10
ag10
ag10
ag10
ag10
ag10
ag10
ag10
ag10
ag10
ag10
ag10
ag10
ag10
ag10
ag10
ag10
ag10
ag10
ag10
ag10
ag10
ag10
ag10
ag10
ag10
ag10
ag10
ag10
ag10
ag10
ag10
ag10
ag10
ag10
ag10
ag10
ag10
ag10
ag10
ag10
ag10
ag10
ag10
ag10
ag10
assS'FN'
p11
(dp12
g3
(lp13
g5
ag5
ag5
ag5
ag5
ag5
ag5
ag5
ag5
ag5
ag5
ag5
ag5
ag5
ag5
ag5
ag5
ag5
ag5
ag5
ag5
ag5
ag5
ag5
ag5
ag5
ag5
ag5
ag5
ag5
ag5
ag5
ag5
ag5
ag5
ag5
ag5
ag5
ag5
ag5
ag5
ag5
ag5
ag5
ag5
ag5
ag5
ag5
ag5
ag5
ag5
ag5
ag5
ag5
ag5
ag5
ag5
ag5
ag5
ag5
ag5
ag5
ag5
ag5
ag5
ag5
ag5
ag5
ag5
ag5
ag5
ag5
ag5
ag5
ag5
ag5
ag5
ag5
ag5
ag5
ag5
ag5
ag5
ag5
ag5
ag5
ag5
ag5
ag5
ag5
ag5
ag5
ag5
ag5
ag5
ag5
ag5
ag5
ag5
ag5
ag5
ag5
ag5
ag5
ag5
ag5
ag5
ag5
ag5
ag5
ag5
ag5
ag5
ag5
ag5
ag5
ag5
ag5
ag5
ag5
ag5
ag5
ag5
ag5
ag5
ag5
ag5
ag5
ag5
ag5
ag5
ag5
ag5
ag5
ag5
ag5
ag5
ag5
ag5
ag5
ag5
ag5
ag5
ag5
ag5
ag5
ag5
asg6
(lp14
F81.0
aF39144.0
aF40405.0
aF42095.0
aF191462.0
aF193398.0
aF195781.0
aF197176.0
aF199511.0
aF205750.0
aF206623.0
aF210337.0
aF222667.0
aF225271.0
aF226477.0
aF230022.0
aF233218.0
aF242728.0
aF247618.0
aF250517.0
aF251409.0
aF253897.0
aF256057.0
aF257703.0
aF258467.0
aF259507.0
aF260255.0
aF265829.0
aF266681.0
aF271699.0
aF273709.0
aF277876.0
aF279419.0
aF280876.0
aF288813.0
aF290901.0
aF293115.0
aF298250.0
aF298721.0
aF299799.0
aF301813.0
aF304240.0
aF304908.0
aF305733.0
aF312335.0
aF312645.0
aF313544.0
aF316617.0
aF317049.0
aF317863.0
aF319245.0
aF322331.0
aF327133.0
aF327863.0
aF333021.0
aF337225.0
aF339698.0
aF344707.0
aF345060.0
aF347056.0
aF348977.0
aF352960.0
aF356580.0
aF357285.0
aF362769.0
aF363235.0
aF373147.0
aF375314.0
aF375784.0
aF378558.0
aF382698.0
aF387297.0
aF392326.0
aF414970.0
aF439260.0
aF441924.0
aF446482.0
aF448146.0
aF449559.0
aF452489.0
aF454746.0
aF454834.0
aF459379.0
aF461280.0
aF461975.0
aF464800.0
aF466208.0
aF466895.0
aF468726.0
aF469272.0
aF469853.0
aF476344.0
aF477202.0
aF478549.0
aF479407.0
aF480158.0
aF481300.0
aF482865.0
aF484568.0
aF488178.0
aF490090.0
aF491234.0
aF493713.0
aF494322.0
aF495815.0
aF496710.0
aF498369.0
aF500008.0
aF503841.0
aF504620.0
aF508782.0
aF510017.0
aF510806.0
aF516993.0
aF517574.0
aF520257.0
aF520853.0
aF522494.0
aF523776.0
aF526850.0
aF528572.0
aF529429.0
aF530119.0
aF532908.0
aF535755.0
aF535805.0
aF537458.0
aF539384.0
aF543101.0
aF544605.0
aF552709.0
aF555326.0
aF556499.0
aF558688.0
aF565269.0
aF567874.0
aF570294.0
aF571025.0
aF571803.0
aF575390.0
aF578333.0
aF583789.0
aF584890.0
aF595365.0
aF596606.0
aF597599.0
aF598542.0
asg8
(lp15
g10
ag10
ag10
ag10
ag10
ag10
ag10
ag10
ag10
ag10
ag10
ag10
ag10
ag10
ag10
ag10
ag10
ag10
ag10
ag10
ag10
ag10
ag10
ag10
ag10
ag10
ag10
ag10
ag10
ag10
ag10
ag10
ag10
ag10
ag10
ag10
ag10
ag10
ag10
ag10
ag10
ag10
ag10
ag10
ag10
ag10
ag10
ag10
ag10
ag10
ag10
ag10
ag10
ag10
ag10
ag10
ag10
ag10
ag10
ag10
ag10
ag10
ag10
ag10
ag10
ag10
ag10
ag10
ag10
ag10
ag10
ag10
ag10
ag10
ag10
ag10
ag10
ag10
ag10
ag10
ag10
ag10
ag10
ag10
ag10
ag10
ag10
ag10
ag10
ag10
ag10
ag10
ag10
ag10
ag10
ag10
ag10
ag10
ag10
ag10
ag10
ag10
ag10
ag10
ag10
ag10
ag10
ag10
ag10
ag10
ag10
ag10
ag10
ag10
ag10
ag10
ag10
ag10
ag10
ag10
ag10
ag10
ag10
ag10
ag10
ag10
ag10
ag10
ag10
ag10
ag10
ag10
ag10
ag10
ag10
ag10
ag10
ag10
ag10
ag10
ag10
ag10
ag10
ag10
ag10
ag10
ag10
ass.