(dp0
S'FP'
p1
(dp2
S'recname'
p3
(lp4
S'223'
p5
ag5
asS'pos'
p6
(lp7
I154588
aI155392
asS'label'
p8
(lp9
S'R'
p10
ag10
assS'FN'
p11
(dp12
g3
(lp13
g5
ag5
ag5
ag5
ag5
ag5
ag5
ag5
ag5
ag5
ag5
ag5
ag5
ag5
ag5
ag5
ag5
ag5
ag5
ag5
ag5
ag5
ag5
ag5
ag5
ag5
ag5
ag5
ag5
ag5
ag5
ag5
ag5
ag5
ag5
ag5
ag5
ag5
ag5
asg6
(lp14
F96.0
aF43517.0
aF49529.0
aF56625.0
aF58483.0
aF150339.0
aF163359.0
aF208178.0
aF221142.0
aF227921.0
aF228004.0
aF229742.0
aF234214.0
aF263704.0
aF269062.0
aF269716.0
aF272453.0
aF272660.0
aF275042.0
aF298391.0
aF302440.0
aF334684.0
aF339636.0
aF364748.0
aF365500.0
aF373294.0
aF375556.0
aF389589.0
aF465146.0
aF519178.0
aF519767.0
aF520002.0
aF521445.0
aF558406.0
aF559599.0
aF565007.0
aF595718.0
aF596544.0
aF617075.0
asg8
(lp15
g10
ag10
ag10
ag10
ag10
ag10
ag10
ag10
ag10
ag10
ag10
ag10
ag10
ag10
ag10
ag10
ag10
ag10
ag10
ag10
ag10
ag10
ag10
ag10
ag10
ag10
ag10
ag10
ag10
ag10
ag10
ag10
ag10
ag10
ag10
ag10
ag10
ag10
ag10
ass.