(dp0
S'FP'
p1
(dp2
S'recname'
p3
(lp4
S'228'
p5
ag5
ag5
ag5
ag5
ag5
ag5
ag5
ag5
ag5
ag5
ag5
ag5
ag5
ag5
ag5
ag5
ag5
ag5
ag5
ag5
ag5
ag5
ag5
ag5
ag5
ag5
ag5
ag5
ag5
ag5
ag5
ag5
ag5
ag5
ag5
ag5
ag5
ag5
ag5
ag5
ag5
ag5
ag5
ag5
ag5
ag5
ag5
ag5
ag5
ag5
ag5
ag5
ag5
ag5
ag5
ag5
ag5
ag5
ag5
ag5
ag5
ag5
ag5
ag5
ag5
ag5
ag5
ag5
ag5
ag5
ag5
ag5
ag5
ag5
ag5
ag5
ag5
ag5
ag5
ag5
ag5
ag5
ag5
ag5
ag5
ag5
ag5
ag5
ag5
ag5
ag5
ag5
ag5
ag5
ag5
ag5
ag5
ag5
ag5
ag5
ag5
ag5
ag5
ag5
ag5
ag5
ag5
ag5
ag5
ag5
ag5
ag5
ag5
ag5
ag5
ag5
ag5
ag5
ag5
ag5
ag5
ag5
ag5
ag5
ag5
ag5
ag5
ag5
ag5
ag5
ag5
ag5
ag5
ag5
ag5
ag5
ag5
ag5
ag5
ag5
ag5
ag5
ag5
ag5
ag5
ag5
ag5
ag5
ag5
ag5
ag5
ag5
ag5
ag5
ag5
ag5
ag5
ag5
ag5
ag5
ag5
ag5
ag5
ag5
ag5
ag5
ag5
ag5
ag5
ag5
ag5
ag5
ag5
ag5
ag5
ag5
ag5
ag5
ag5
ag5
ag5
ag5
ag5
ag5
ag5
ag5
ag5
ag5
ag5
ag5
ag5
ag5
ag5
ag5
ag5
ag5
ag5
ag5
ag5
ag5
ag5
ag5
ag5
ag5
ag5
ag5
ag5
ag5
ag5
ag5
ag5
ag5
ag5
ag5
ag5
ag5
ag5
ag5
ag5
ag5
ag5
ag5
ag5
ag5
ag5
ag5
ag5
ag5
ag5
ag5
ag5
ag5
ag5
ag5
ag5
ag5
ag5
ag5
ag5
ag5
ag5
ag5
ag5
ag5
ag5
ag5
ag5
ag5
ag5
ag5
ag5
ag5
ag5
ag5
ag5
ag5
ag5
ag5
ag5
ag5
ag5
ag5
ag5
ag5
ag5
ag5
ag5
ag5
ag5
ag5
ag5
ag5
ag5
ag5
ag5
ag5
ag5
ag5
ag5
ag5
ag5
ag5
ag5
ag5
ag5
ag5
ag5
ag5
ag5
ag5
ag5
ag5
ag5
ag5
ag5
ag5
ag5
ag5
ag5
ag5
ag5
ag5
ag5
ag5
ag5
ag5
ag5
ag5
ag5
ag5
ag5
ag5
ag5
ag5
ag5
ag5
ag5
ag5
ag5
ag5
ag5
ag5
ag5
ag5
ag5
ag5
ag5
ag5
ag5
ag5
ag5
ag5
ag5
ag5
ag5
ag5
ag5
ag5
ag5
ag5
ag5
ag5
ag5
ag5
ag5
ag5
ag5
ag5
ag5
ag5
ag5
ag5
ag5
ag5
ag5
ag5
ag5
ag5
ag5
ag5
ag5
ag5
ag5
ag5
ag5
ag5
ag5
ag5
ag5
ag5
ag5
ag5
ag5
ag5
ag5
ag5
ag5
ag5
ag5
ag5
ag5
ag5
ag5
ag5
ag5
ag5
ag5
ag5
ag5
ag5
ag5
ag5
ag5
ag5
ag5
ag5
ag5
ag5
ag5
ag5
ag5
ag5
ag5
ag5
ag5
ag5
asS'pos'
p6
(lp7
I1689
aI5669
aI12534
aI16557
aI16616
aI19296
aI20812
aI21610
aI22085
aI22458
aI22543
aI24251
aI30637
aI48789
aI49702
aI49961
aI50134
aI54101
aI68946
aI69265
aI69404
aI71113
aI71681
aI73920
aI85565
aI86141
aI86200
aI86423
aI86750
aI87002
aI88998
aI89248
aI91139
aI91380
aI92006
aI92058
aI92153
aI92353
aI92455
aI92989
aI93083
aI93302
aI93571
aI93632
aI93835
aI93904
aI94005
aI94218
aI94281
aI94362
aI94488
aI94549
aI94797
aI94870
aI94922
aI95151
aI95332
aI95420
aI96290
aI96607
aI96991
aI97501
aI97731
aI98204
aI98397
aI98506
aI98852
aI99019
aI99078
aI99269
aI99779
aI99857
aI99908
aI100189
aI100430
aI100663
aI100774
aI100843
aI100915
aI100973
aI101117
aI101200
aI101278
aI101425
aI101484
aI101665
aI101965
aI102547
aI103530
aI103723
aI103808
aI103991
aI104718
aI105035
aI108544
aI108671
aI109172
aI111590
aI111642
aI112454
aI115773
aI115831
aI115925
aI119363
aI120828
aI122535
aI122600
aI122652
aI122835
aI122890
aI122980
aI123107
aI128592
aI137065
aI137151
aI156030
aI156112
aI156378
aI157906
aI158229
aI158502
aI160358
aI160756
aI161987
aI162815
aI164199
aI166493
aI170119
aI170201
aI170323
aI190745
aI190968
aI197448
aI197561
aI197627
aI197747
aI198161
aI198276
aI198458
aI198527
aI198588
aI198772
aI198886
aI199464
aI201911
aI207125
aI207194
aI207247
aI207434
aI209612
aI213971
aI215342
aI215725
aI215984
aI216194
aI216508
aI216631
aI217132
aI217208
aI217596
aI217751
aI218222
aI226961
aI227025
aI227093
aI227222
aI383789
aI383894
aI384237
aI386907
aI386994
aI387219
aI387294
aI388557
aI388611
aI388871
aI389241
aI390420
aI390843
aI391107
aI391365
aI391443
aI391694
aI432255
aI436232
aI450750
aI450815
aI450996
aI451080
aI456219
aI476257
aI477331
aI481559
aI482767
aI483006
aI483356
aI483437
aI483516
aI483654
aI484091
aI484612
aI484705
aI484914
aI485257
aI486687
aI486744
aI487041
aI487099
aI487315
aI487600
aI487963
aI488039
aI489266
aI489332
aI489482
aI489551
aI489650
aI489709
aI491332
aI491531
aI491603
aI491669
aI491885
aI491967
aI492147
aI492206
aI492269
aI492327
aI492497
aI492548
aI492602
aI493488
aI494113
aI494519
aI494634
aI494725
aI494777
aI494840
aI494960
aI495036
aI495088
aI495377
aI495439
aI495798
aI495975
aI514184
aI524677
aI526568
aI526692
aI526964
aI529164
aI529363
aI529982
aI530666
aI530762
aI530891
aI530949
aI531013
aI531082
aI531205
aI531271
aI531346
aI531398
aI531553
aI531619
aI531676
aI531837
aI531916
aI532181
aI532312
aI532509
aI532688
aI532753
aI532811
aI532863
aI533079
aI535974
aI539803
aI539880
aI539937
aI540013
aI540216
aI540305
aI540435
aI540570
aI540628
aI540796
aI540915
aI540981
aI541038
aI541212
aI541316
aI541466
aI541543
aI541773
aI542163
aI542218
aI542291
aI542419
aI545979
aI546785
aI546901
aI546976
aI547118
aI547173
aI547243
aI547439
aI547502
aI547740
aI547885
aI548035
aI548130
aI548198
aI548329
aI548398
aI548486
aI548630
aI548741
aI548901
aI584868
aI584942
aI585005
aI585189
aI585285
aI585480
aI585737
aI585795
aI587040
aI587336
aI587471
aI587674
aI587753
aI587822
aI588261
aI588411
aI588502
aI588676
aI588866
aI589024
aI589172
aI589239
aI589334
aI589473
aI589586
aI589765
aI589837
aI589915
aI590095
aI590146
aI590230
aI590360
aI590414
aI590474
aI590667
aI590721
aI590878
aI590968
aI591058
aI591385
aI591598
aI593083
aI593145
aI593231
aI593391
aI593505
aI593686
aI593764
aI593834
aI594040
aI594143
aI594258
aI594328
aI616532
aI616644
aI616706
aI617296
aI617414
aI618274
aI618523
aI618627
aI618866
aI618960
aI619114
aI619440
aI619609
aI619819
aI620361
aI623543
aI623913
aI624230
aI624459
aI625366
aI625493
aI626332
aI626423
aI626813
aI627323
aI627460
aI627947
aI628335
aI628402
aI628474
aI628616
aI628799
aI628914
aI628979
aI632750
asS'label'
p8
(lp9
S'R'
p10
ag10
ag10
ag10
ag10
ag10
ag10
ag10
ag10
ag10
ag10
ag10
ag10
ag10
ag10
ag10
ag10
ag10
ag10
ag10
ag10
ag10
ag10
ag10
ag10
ag10
ag10
ag10
ag10
ag10
ag10
ag10
ag10
ag10
ag10
ag10
ag10
ag10
ag10
ag10
ag10
ag10
ag10
ag10
ag10
ag10
ag10
ag10
ag10
ag10
ag10
ag10
ag10
ag10
ag10
ag10
ag10
ag10
ag10
ag10
ag10
ag10
ag10
ag10
ag10
ag10
ag10
ag10
ag10
ag10
ag10
ag10
ag10
ag10
ag10
ag10
ag10
ag10
ag10
ag10
ag10
ag10
ag10
ag10
ag10
ag10
ag10
ag10
ag10
ag10
ag10
ag10
ag10
ag10
ag10
ag10
ag10
ag10
ag10
ag10
ag10
ag10
ag10
ag10
ag10
ag10
ag10
ag10
ag10
ag10
ag10
ag10
ag10
ag10
ag10
ag10
ag10
ag10
ag10
ag10
ag10
ag10
ag10
ag10
ag10
ag10
ag10
ag10
ag10
ag10
ag10
ag10
ag10
ag10
ag10
ag10
ag10
ag10
ag10
ag10
ag10
ag10
ag10
ag10
ag10
ag10
ag10
ag10
ag10
ag10
ag10
ag10
ag10
ag10
ag10
ag10
ag10
ag10
ag10
ag10
ag10
ag10
ag10
ag10
ag10
ag10
ag10
ag10
ag10
ag10
ag10
ag10
ag10
ag10
ag10
ag10
ag10
ag10
ag10
ag10
ag10
ag10
ag10
ag10
ag10
ag10
ag10
ag10
ag10
ag10
ag10
ag10
ag10
ag10
ag10
ag10
ag10
ag10
ag10
ag10
ag10
ag10
ag10
ag10
ag10
ag10
ag10
ag10
ag10
ag10
ag10
ag10
ag10
ag10
ag10
ag10
ag10
ag10
ag10
ag10
ag10
ag10
ag10
ag10
ag10
ag10
ag10
ag10
ag10
ag10
ag10
ag10
ag10
ag10
ag10
ag10
ag10
ag10
ag10
ag10
ag10
ag10
ag10
ag10
ag10
ag10
ag10
ag10
ag10
ag10
ag10
ag10
ag10
ag10
ag10
ag10
ag10
ag10
ag10
ag10
ag10
ag10
ag10
ag10
ag10
ag10
ag10
ag10
ag10
ag10
ag10
ag10
ag10
ag10
ag10
ag10
ag10
ag10
ag10
ag10
ag10
ag10
ag10
ag10
ag10
ag10
ag10
ag10
ag10
ag10
ag10
ag10
ag10
ag10
ag10
ag10
ag10
ag10
ag10
ag10
ag10
ag10
ag10
ag10
ag10
ag10
ag10
ag10
ag10
ag10
ag10
ag10
ag10
ag10
ag10
ag10
ag10
ag10
ag10
ag10
ag10
ag10
ag10
ag10
ag10
ag10
ag10
ag10
ag10
ag10
ag10
ag10
ag10
ag10
ag10
ag10
ag10
ag10
ag10
ag10
ag10
ag10
ag10
ag10
ag10
ag10
ag10
ag10
ag10
ag10
ag10
ag10
ag10
ag10
ag10
ag10
ag10
ag10
ag10
ag10
ag10
ag10
ag10
ag10
ag10
ag10
ag10
ag10
ag10
ag10
ag10
ag10
ag10
ag10
ag10
ag10
ag10
ag10
ag10
ag10
ag10
ag10
ag10
ag10
ag10
ag10
ag10
ag10
ag10
ag10
ag10
ag10
ag10
ag10
ag10
ag10
ag10
ag10
ag10
ag10
ag10
ag10
ag10
ag10
ag10
ag10
ag10
assS'FN'
p11
(dp12
g3
(lp13
g5
ag5
ag5
ag5
ag5
ag5
ag5
ag5
ag5
ag5
ag5
ag5
ag5
ag5
ag5
ag5
ag5
ag5
ag5
ag5
ag5
ag5
ag5
ag5
ag5
ag5
ag5
ag5
ag5
ag5
ag5
ag5
ag5
ag5
ag5
ag5
ag5
ag5
ag5
ag5
ag5
ag5
ag5
ag5
ag5
ag5
ag5
ag5
ag5
ag5
ag5
ag5
ag5
ag5
ag5
ag5
ag5
ag5
ag5
ag5
ag5
ag5
ag5
ag5
ag5
ag5
ag5
ag5
ag5
ag5
ag5
ag5
ag5
ag5
ag5
ag5
ag5
ag5
ag5
ag5
ag5
ag5
ag5
ag5
ag5
ag5
ag5
ag5
ag5
ag5
ag5
ag5
ag5
ag5
ag5
ag5
ag5
ag5
ag5
ag5
ag5
ag5
ag5
ag5
ag5
ag5
ag5
ag5
ag5
ag5
ag5
ag5
ag5
ag5
ag5
ag5
ag5
ag5
ag5
ag5
ag5
ag5
ag5
ag5
ag5
ag5
ag5
ag5
ag5
ag5
ag5
ag5
ag5
ag5
ag5
ag5
ag5
ag5
ag5
ag5
ag5
ag5
ag5
ag5
ag5
ag5
ag5
ag5
asg6
(lp14
F27.0
aF6085.0
aF6192.0
aF7197.0
aF7825.0
aF8394.0
aF8931.0
aF10098.0
aF10656.0
aF11776.0
aF12198.0
aF15851.0
aF17113.0
aF21556.0
aF22803.0
aF33580.0
aF33948.0
aF34117.0
aF34639.0
aF35937.0
aF36709.0
aF37183.0
aF38590.0
aF39838.0
aF40304.0
aF40353.0
aF41012.0
aF46520.0
aF48067.0
aF51886.0
aF51985.0
aF53114.0
aF53521.0
aF54295.0
aF56181.0
aF56745.0
aF57606.0
aF57996.0
aF58189.0
aF62705.0
aF62992.0
aF63300.0
aF64744.0
aF65403.0
aF68108.0
aF69534.0
aF78389.0
aF82272.0
aF82857.0
aF99584.0
aF101884.0
aF111361.0
aF123399.0
aF124494.0
aF125629.0
aF126849.0
aF127428.0
aF128744.0
aF129984.0
aF131547.0
aF132760.0
aF133499.0
aF134138.0
aF135490.0
aF136139.0
aF138087.0
aF140519.0
aF142952.0
aF144195.0
aF145406.0
aF147235.0
aF147841.0
aF152743.0
aF153979.0
aF154638.0
aF155077.0
aF159388.0
aF161207.0
aF163046.0
aF174866.0
aF176094.0
aF179493.0
aF180896.0
aF182174.0
aF184119.0
aF184839.0
aF186092.0
aF186723.0
aF187395.0
aF188007.0
aF188391.0
aF196743.0
aF203374.0
aF207636.0
aF219961.0
aF221597.0
aF221694.0
aF222151.0
aF243541.0
aF245812.0
aF250267.0
aF257935.0
aF274733.0
aF279176.0
aF279817.0
aF280490.0
aF287311.0
aF370220.0
aF371835.0
aF435497.0
aF438552.0
aF438868.0
aF441410.0
aF442103.0
aF443559.0
aF450552.0
aF451982.0
aF454287.0
aF464458.0
aF466148.0
aF468125.0
aF470473.0
aF472120.0
aF472224.0
aF474628.0
aF477812.0
aF479391.0
aF496383.0
aF505596.0
aF514426.0
aF526272.0
aF530597.0
aF533726.0
aF539676.0
aF542711.0
aF549278.0
aF577749.0
aF579377.0
aF581019.0
aF583426.0
aF584050.0
aF584527.0
aF603848.0
aF605428.0
aF610162.0
aF613602.0
aF641509.0
aF643005.0
asg8
(lp15
g10
ag10
ag10
ag10
ag10
ag10
ag10
ag10
ag10
ag10
ag10
ag10
ag10
ag10
ag10
ag10
ag10
ag10
ag10
ag10
ag10
ag10
ag10
ag10
ag10
ag10
ag10
ag10
ag10
ag10
ag10
ag10
ag10
ag10
ag10
ag10
ag10
ag10
ag10
ag10
ag10
ag10
ag10
ag10
ag10
ag10
ag10
ag10
ag10
ag10
ag10
ag10
ag10
ag10
ag10
ag10
ag10
ag10
ag10
ag10
ag10
ag10
ag10
ag10
ag10
ag10
ag10
ag10
ag10
ag10
ag10
ag10
ag10
ag10
ag10
ag10
ag10
ag10
ag10
ag10
ag10
ag10
ag10
ag10
ag10
ag10
ag10
ag10
ag10
ag10
ag10
ag10
ag10
ag10
ag10
ag10
ag10
ag10
ag10
ag10
ag10
ag10
ag10
ag10
ag10
ag10
ag10
ag10
ag10
ag10
ag10
ag10
ag10
ag10
ag10
ag10
ag10
ag10
ag10
ag10
ag10
ag10
ag10
ag10
ag10
ag10
ag10
ag10
ag10
ag10
ag10
ag10
ag10
ag10
ag10
ag10
ag10
ag10
ag10
ag10
ag10
ag10
ag10
ag10
ag10
ag10
ag10
ag10
ass.