(dp0
S'FP'
p1
(dp2
S'recname'
p3
(lp4
S'230'
p5
ag5
ag5
ag5
asS'pos'
p6
(lp7
I35132
aI581938
aI639086
aI639143
asS'label'
p8
(lp9
S'R'
p10
ag10
ag10
ag10
assS'FN'
p11
(dp12
g3
(lp13
g5
ag5
ag5
ag5
ag5
ag5
ag5
ag5
ag5
ag5
ag5
ag5
ag5
ag5
ag5
ag5
ag5
ag5
ag5
ag5
ag5
ag5
ag5
ag5
ag5
ag5
ag5
ag5
ag5
ag5
ag5
ag5
ag5
ag5
ag5
ag5
ag5
ag5
ag5
ag5
ag5
ag5
ag5
ag5
ag5
ag5
ag5
ag5
ag5
ag5
ag5
ag5
ag5
ag5
ag5
ag5
ag5
ag5
ag5
ag5
ag5
ag5
ag5
ag5
ag5
ag5
ag5
ag5
ag5
ag5
ag5
ag5
ag5
ag5
ag5
ag5
ag5
ag5
ag5
ag5
ag5
ag5
ag5
ag5
ag5
ag5
ag5
ag5
ag5
ag5
ag5
ag5
ag5
ag5
ag5
ag5
ag5
ag5
ag5
ag5
ag5
ag5
ag5
ag5
ag5
ag5
ag5
ag5
ag5
ag5
ag5
ag5
ag5
ag5
ag5
ag5
ag5
ag5
ag5
ag5
ag5
ag5
ag5
ag5
ag5
ag5
ag5
ag5
ag5
ag5
ag5
ag5
ag5
ag5
ag5
ag5
ag5
ag5
ag5
ag5
ag5
ag5
ag5
ag5
ag5
ag5
ag5
ag5
ag5
ag5
ag5
ag5
ag5
ag5
ag5
ag5
ag5
ag5
ag5
ag5
ag5
ag5
ag5
ag5
ag5
ag5
ag5
ag5
ag5
ag5
ag5
ag5
ag5
ag5
ag5
ag5
ag5
ag5
ag5
ag5
ag5
ag5
ag5
ag5
ag5
ag5
ag5
ag5
ag5
ag5
ag5
ag5
ag5
ag5
ag5
ag5
ag5
ag5
ag5
ag5
ag5
ag5
ag5
ag5
ag5
ag5
ag5
ag5
ag5
asg6
(lp14
F30.0
aF1545.0
aF5566.0
aF9490.0
aF11148.0
aF13117.0
aF15336.0
aF41436.0
aF42307.0
aF47475.0
aF53350.0
aF53629.0
aF53920.0
aF55275.0
aF57731.0
aF58035.0
aF59431.0
aF62669.0
aF64636.0
aF64896.0
aF65344.0
aF67706.0
aF67979.0
aF76655.0
aF82312.0
aF83779.0
aF85247.0
aF85507.0
aF87025.0
aF88017.0
aF91852.0
aF96876.0
aF97566.0
aF117638.0
aF117969.0
aF119651.0
aF120056.0
aF128273.0
aF129561.0
aF130738.0
aF132731.0
aF139171.0
aF140801.0
aF146956.0
aF147701.0
aF148678.0
aF149341.0
aF150355.0
aF150681.0
aF151598.0
aF152612.0
aF155333.0
aF156625.0
aF157534.0
aF162587.0
aF163547.0
aF163872.0
aF165950.0
aF166278.0
aF166898.0
aF167221.0
aF168729.0
aF169417.0
aF170337.0
aF170986.0
aF171926.0
aF172283.0
aF173907.0
aF174873.0
aF177219.0
aF177538.0
aF178457.0
aF179855.0
aF181405.0
aF182141.0
aF183442.0
aF189828.0
aF192389.0
aF193163.0
aF194464.0
aF194833.0
aF195833.0
aF199090.0
aF202854.0
aF203890.0
aF204459.0
aF207866.0
aF210493.0
aF211860.0
aF212504.0
aF215985.0
aF221191.0
aF221855.0
aF222464.0
aF225946.0
aF228205.0
aF230191.0
aF230839.0
aF231155.0
aF231725.0
aF235904.0
aF236570.0
aF237217.0
aF237832.0
aF238524.0
aF240114.0
aF240447.0
aF241374.0
aF248089.0
aF248753.0
aF249102.0
aF250746.0
aF251084.0
aF253098.0
aF254988.0
aF255955.0
aF271546.0
aF272562.0
aF274094.0
aF275408.0
aF285873.0
aF286490.0
aF311326.0
aF312317.0
aF312665.0
aF314846.0
aF315198.0
aF315852.0
aF316432.0
aF317940.0
aF318587.0
aF319218.0
aF319518.0
aF320116.0
aF323092.0
aF325363.0
aF327882.0
aF328786.0
aF329403.0
aF330623.0
aF331271.0
aF334212.0
aF334534.0
aF334827.0
aF339352.0
aF340675.0
aF344360.0
aF345358.0
aF349025.0
aF350252.0
aF361686.0
aF363718.0
aF369657.0
aF373147.0
aF373758.0
aF374641.0
aF375806.0
aF380973.0
aF381293.0
aF381927.0
aF382563.0
aF383539.0
aF384773.0
aF385948.0
aF386314.0
aF388212.0
aF388864.0
aF389523.0
aF393671.0
aF396272.0
aF409329.0
aF414069.0
aF414348.0
aF415323.0
aF416316.0
aF417049.0
aF420825.0
aF422596.0
aF430441.0
aF431783.0
aF508203.0
aF511624.0
aF512901.0
aF515753.0
aF516058.0
aF517591.0
aF518147.0
aF522128.0
aF524833.0
aF525374.0
aF525595.0
aF525648.0
aF526634.0
aF540091.0
aF562411.0
aF567080.0
aF577919.0
aF590898.0
aF595066.0
aF595887.0
aF596415.0
aF597970.0
aF599287.0
aF611580.0
aF613318.0
aF629525.0
aF635670.0
aF635967.0
aF648554.0
asg8
(lp15
g10
ag10
ag10
ag10
ag10
ag10
ag10
ag10
ag10
ag10
ag10
ag10
ag10
ag10
ag10
ag10
ag10
ag10
ag10
ag10
ag10
ag10
ag10
ag10
ag10
ag10
ag10
ag10
ag10
ag10
ag10
ag10
ag10
ag10
ag10
ag10
ag10
ag10
ag10
ag10
ag10
ag10
ag10
ag10
ag10
ag10
ag10
ag10
ag10
ag10
ag10
ag10
ag10
ag10
ag10
ag10
ag10
ag10
ag10
ag10
ag10
ag10
ag10
ag10
ag10
ag10
ag10
ag10
ag10
ag10
ag10
ag10
ag10
ag10
ag10
ag10
ag10
ag10
ag10
ag10
ag10
ag10
ag10
ag10
ag10
ag10
ag10
ag10
ag10
ag10
ag10
ag10
ag10
ag10
ag10
ag10
ag10
ag10
ag10
ag10
ag10
ag10
ag10
ag10
ag10
ag10
ag10
ag10
ag10
ag10
ag10
ag10
ag10
ag10
ag10
ag10
ag10
ag10
ag10
ag10
ag10
ag10
ag10
ag10
ag10
ag10
ag10
ag10
ag10
ag10
ag10
ag10
ag10
ag10
ag10
ag10
ag10
ag10
ag10
ag10
ag10
ag10
ag10
ag10
ag10
ag10
ag10
ag10
ag10
ag10
ag10
ag10
ag10
ag10
ag10
ag10
ag10
ag10
ag10
ag10
ag10
ag10
ag10
ag10
ag10
ag10
ag10
ag10
ag10
ag10
ag10
ag10
ag10
ag10
ag10
ag10
ag10
ag10
ag10
ag10
ag10
ag10
ag10
ag10
ag10
ag10
ag10
ag10
ag10
ag10
ag10
ag10
ag10
ag10
ag10
ag10
ag10
ag10
ag10
ag10
ag10
ag10
ag10
ag10
ag10
ag10
ag10
ag10
ag10
ass.