(dp0
S'FP'
p1
(dp2
S'recname'
p3
(lp4
S'232'
p5
ag5
ag5
ag5
ag5
ag5
ag5
ag5
ag5
ag5
ag5
ag5
ag5
ag5
ag5
ag5
ag5
ag5
ag5
ag5
ag5
ag5
ag5
ag5
ag5
ag5
ag5
ag5
ag5
ag5
ag5
ag5
ag5
ag5
ag5
ag5
ag5
ag5
ag5
ag5
ag5
ag5
ag5
ag5
ag5
ag5
ag5
ag5
ag5
ag5
ag5
ag5
ag5
ag5
ag5
ag5
ag5
ag5
ag5
ag5
ag5
ag5
ag5
ag5
ag5
ag5
ag5
ag5
ag5
ag5
ag5
ag5
ag5
ag5
ag5
ag5
ag5
ag5
ag5
ag5
ag5
ag5
ag5
ag5
ag5
ag5
ag5
ag5
ag5
ag5
ag5
ag5
ag5
ag5
ag5
ag5
ag5
ag5
ag5
ag5
ag5
ag5
ag5
ag5
ag5
ag5
ag5
ag5
ag5
ag5
ag5
ag5
ag5
ag5
ag5
ag5
ag5
ag5
ag5
ag5
ag5
ag5
ag5
ag5
ag5
ag5
ag5
ag5
ag5
ag5
ag5
ag5
ag5
ag5
ag5
ag5
ag5
ag5
ag5
ag5
ag5
ag5
ag5
ag5
ag5
ag5
ag5
ag5
ag5
ag5
ag5
ag5
ag5
ag5
ag5
ag5
ag5
ag5
ag5
ag5
ag5
ag5
ag5
ag5
ag5
ag5
ag5
ag5
ag5
ag5
ag5
ag5
ag5
ag5
ag5
ag5
ag5
ag5
ag5
ag5
ag5
ag5
ag5
ag5
ag5
ag5
ag5
ag5
ag5
ag5
ag5
ag5
ag5
ag5
ag5
ag5
ag5
ag5
ag5
ag5
ag5
ag5
ag5
ag5
ag5
ag5
ag5
ag5
ag5
ag5
ag5
ag5
ag5
ag5
ag5
ag5
ag5
ag5
ag5
ag5
ag5
ag5
ag5
ag5
ag5
ag5
ag5
ag5
ag5
ag5
ag5
ag5
ag5
ag5
ag5
ag5
ag5
ag5
ag5
ag5
ag5
ag5
ag5
ag5
ag5
ag5
ag5
ag5
ag5
ag5
ag5
ag5
ag5
ag5
ag5
ag5
ag5
ag5
ag5
ag5
ag5
ag5
ag5
ag5
ag5
ag5
ag5
ag5
ag5
ag5
ag5
ag5
ag5
ag5
ag5
ag5
ag5
ag5
ag5
ag5
ag5
ag5
ag5
ag5
ag5
ag5
ag5
ag5
ag5
ag5
ag5
ag5
ag5
ag5
ag5
ag5
ag5
ag5
ag5
ag5
ag5
ag5
ag5
ag5
ag5
ag5
ag5
ag5
ag5
ag5
ag5
ag5
ag5
ag5
ag5
ag5
ag5
ag5
ag5
ag5
ag5
ag5
ag5
ag5
ag5
ag5
ag5
ag5
ag5
ag5
ag5
ag5
ag5
ag5
ag5
ag5
ag5
ag5
ag5
ag5
ag5
ag5
ag5
ag5
ag5
ag5
ag5
ag5
ag5
ag5
ag5
ag5
ag5
ag5
ag5
ag5
ag5
ag5
ag5
ag5
ag5
ag5
ag5
ag5
ag5
ag5
ag5
ag5
ag5
ag5
ag5
ag5
ag5
ag5
ag5
ag5
ag5
ag5
ag5
ag5
ag5
ag5
ag5
ag5
ag5
ag5
ag5
ag5
ag5
ag5
ag5
ag5
ag5
ag5
ag5
ag5
ag5
ag5
ag5
ag5
ag5
ag5
ag5
ag5
ag5
ag5
ag5
ag5
ag5
ag5
ag5
ag5
ag5
ag5
ag5
ag5
ag5
ag5
ag5
ag5
ag5
ag5
ag5
ag5
ag5
ag5
ag5
ag5
ag5
ag5
ag5
ag5
ag5
ag5
ag5
ag5
ag5
ag5
ag5
ag5
ag5
ag5
ag5
ag5
ag5
ag5
ag5
ag5
ag5
ag5
ag5
ag5
ag5
ag5
ag5
ag5
ag5
ag5
ag5
ag5
ag5
ag5
ag5
ag5
ag5
ag5
ag5
ag5
ag5
ag5
ag5
ag5
ag5
ag5
ag5
ag5
ag5
ag5
ag5
ag5
ag5
asS'pos'
p6
(lp7
I26
aI166
aI285
aI365
aI436
aI1264
aI2045
aI2223
aI2293
aI2641
aI3228
aI3421
aI3777
aI3967
aI4143
aI5223
aI6098
aI6231
aI6843
aI9327
aI9384
aI9450
aI9522
aI10068
aI10875
aI10948
aI12813
aI13595
aI14609
aI14734
aI14809
aI14868
aI14933
aI15621
aI16047
aI17297
aI17875
aI18161
aI18237
aI20637
aI20700
aI20838
aI21017
aI21901
aI22146
aI22216
aI22339
aI22471
aI22523
aI22592
aI22647
aI22755
aI22808
aI23082
aI25737
aI30641
aI30731
aI31007
aI31084
aI31241
aI31656
aI32626
aI36563
aI36765
aI36917
aI47625
aI48116
aI49431
aI58514
aI73987
aI81251
aI86717
aI86800
aI86862
aI98771
aI99380
aI99508
aI99564
aI99714
aI99803
aI99947
aI102429
aI102504
aI102580
aI112820
aI112873
aI112946
aI112997
aI122452
aI122603
aI122698
aI122956
aI123228
aI124367
aI124436
aI124551
aI125258
aI128023
aI128075
aI130984
aI131354
aI131416
aI137115
aI137195
aI137269
aI137327
aI138290
aI138473
aI138770
aI138897
aI139025
aI139365
aI139523
aI139611
aI139930
aI142631
aI142684
aI142789
aI147660
aI152493
aI152578
aI152644
aI154133
aI157186
aI157697
aI160006
aI166765
aI166851
aI166961
aI202504
aI229415
aI229510
aI229598
aI232930
aI233016
aI233133
aI244064
aI247565
aI247807
aI247886
aI248008
aI248092
aI248305
aI248376
aI248437
aI250370
aI254856
aI254987
aI255155
aI255351
aI257482
aI258307
aI258592
aI258813
aI258915
aI259121
aI259324
aI260195
aI260691
aI263571
aI263660
aI266964
aI315106
aI315181
aI315289
aI319342
aI323032
aI323097
aI323219
aI323333
aI328846
aI328903
aI328955
aI338738
aI343443
aI343503
aI343571
aI343652
aI343737
aI343803
aI343858
aI343913
aI344022
aI344098
aI347302
aI347353
aI347429
aI347511
aI352922
aI352997
aI353049
aI353110
aI353192
aI353323
aI353402
aI353470
aI353521
aI357551
aI357616
aI357668
aI357765
aI357844
aI363507
aI366447
aI366585
aI366636
aI369713
aI369785
aI370667
aI378960
aI379014
aI379073
aI379276
aI379344
aI379398
aI379471
aI379539
aI379622
aI379724
aI379788
aI379848
aI379905
aI379961
aI380054
aI380151
aI384362
aI384459
aI384579
aI393613
aI393680
aI394491
aI394575
aI394633
aI396900
aI397019
aI397079
aI397191
aI397279
aI397351
aI397404
aI397463
aI397537
aI397625
aI402092
aI402189
aI402256
aI402313
aI407707
aI407789
aI407889
aI407960
aI408015
aI408080
aI412332
aI412389
aI416572
aI416631
aI416701
aI416767
aI416827
aI416920
aI417001
aI417070
aI417148
aI421458
aI421511
aI421571
aI425029
aI425132
aI425248
aI428121
aI428183
aI428240
aI428351
aI428415
aI432086
aI432212
aI432268
aI432323
aI436195
aI436275
aI436364
aI436424
aI436490
aI445030
aI445088
aI445239
aI445311
aI445363
aI445418
aI445482
aI445550
aI445654
aI450854
aI450930
aI451083
aI451139
aI451205
aI451263
aI451334
aI451387
aI451456
aI451605
aI451680
aI451735
aI451808
aI451872
aI451932
aI455917
aI455980
aI459943
aI460068
aI460155
aI460940
aI461789
aI461866
aI461919
aI462799
aI466227
aI466282
aI466396
aI466453
aI466508
aI466605
aI466704
aI466766
aI466832
aI466885
aI466965
aI473591
aI473740
aI473797
aI473851
aI473922
aI474094
aI474151
aI474235
aI478971
aI479022
aI479115
aI479188
aI479257
aI479333
aI479480
aI479534
aI479650
aI479912
aI480027
aI489020
aI489083
aI489192
aI489255
aI489306
aI489367
aI489421
aI489539
aI493280
aI493340
aI493406
aI493478
aI494349
aI495209
aI495269
aI499938
aI500034
aI505336
aI506104
aI506163
aI506241
aI506340
aI506400
aI506451
aI506528
aI506616
aI506675
aI506749
aI510913
aI511012
aI511080
aI511150
aI511211
aI511283
aI511335
aI511464
aI511518
aI511592
aI511656
aI511752
aI511851
aI511938
aI512011
aI512081
aI515524
aI515651
aI517382
aI517435
aI518223
aI518325
aI519136
aI519216
aI533821
aI533913
aI534000
aI534115
aI534186
aI534244
aI534357
aI534443
aI534554
aI538569
aI538639
aI538706
aI538757
aI541748
aI541813
aI546398
aI551288
aI551346
aI551426
aI551483
aI551534
aI555565
aI560252
aI560311
aI560415
aI569524
aI572538
aI572599
aI572665
aI572721
aI572805
aI572878
aI572956
aI576844
aI576944
aI577025
aI577102
aI581499
aI585145
aI585202
aI585256
aI592133
aI596530
aI596588
aI596640
aI596712
aI596766
aI597712
aI597763
aI606290
aI612261
aI612314
aI612373
aI612451
aI612578
aI612642
aI612698
aI612749
aI612801
aI612904
aI616694
aI617571
aI618394
aI622636
aI622777
aI622845
aI623043
aI623125
aI623193
aI629574
aI633986
aI634050
aI634126
aI634195
aI634249
aI638464
aI638561
aI642555
aI642691
aI642752
aI642845
asS'label'
p8
(lp9
S'R'
p10
ag10
ag10
ag10
ag10
ag10
ag10
ag10
ag10
ag10
ag10
ag10
ag10
ag10
ag10
ag10
ag10
ag10
ag10
ag10
ag10
ag10
ag10
ag10
ag10
ag10
ag10
ag10
ag10
ag10
ag10
ag10
ag10
ag10
ag10
ag10
ag10
ag10
ag10
ag10
ag10
ag10
ag10
ag10
ag10
ag10
ag10
ag10
ag10
ag10
ag10
ag10
ag10
ag10
ag10
ag10
ag10
ag10
ag10
ag10
ag10
ag10
ag10
ag10
ag10
ag10
ag10
ag10
ag10
ag10
ag10
ag10
ag10
ag10
ag10
ag10
ag10
ag10
ag10
ag10
ag10
ag10
ag10
ag10
ag10
ag10
ag10
ag10
ag10
ag10
ag10
ag10
ag10
ag10
ag10
ag10
ag10
ag10
ag10
ag10
ag10
ag10
ag10
ag10
ag10
ag10
ag10
ag10
ag10
ag10
ag10
ag10
ag10
ag10
ag10
ag10
ag10
ag10
ag10
ag10
ag10
ag10
ag10
ag10
ag10
ag10
ag10
ag10
ag10
ag10
ag10
ag10
ag10
ag10
ag10
ag10
ag10
ag10
ag10
ag10
ag10
ag10
ag10
ag10
ag10
ag10
ag10
ag10
ag10
ag10
ag10
ag10
ag10
ag10
ag10
ag10
ag10
ag10
ag10
ag10
ag10
ag10
ag10
ag10
ag10
ag10
ag10
ag10
ag10
ag10
ag10
ag10
ag10
ag10
ag10
ag10
ag10
ag10
ag10
ag10
ag10
ag10
ag10
ag10
ag10
ag10
ag10
ag10
ag10
ag10
ag10
ag10
ag10
ag10
ag10
ag10
ag10
ag10
ag10
ag10
ag10
ag10
ag10
ag10
ag10
ag10
ag10
ag10
ag10
ag10
ag10
ag10
ag10
ag10
ag10
ag10
ag10
ag10
ag10
ag10
ag10
ag10
ag10
ag10
ag10
ag10
ag10
ag10
ag10
ag10
ag10
ag10
ag10
ag10
ag10
ag10
ag10
ag10
ag10
ag10
ag10
ag10
ag10
ag10
ag10
ag10
ag10
ag10
ag10
ag10
ag10
ag10
ag10
ag10
ag10
ag10
ag10
ag10
ag10
ag10
ag10
ag10
ag10
ag10
ag10
ag10
ag10
ag10
ag10
ag10
ag10
ag10
ag10
ag10
ag10
ag10
ag10
ag10
ag10
ag10
ag10
ag10
ag10
ag10
ag10
ag10
ag10
ag10
ag10
ag10
ag10
ag10
ag10
ag10
ag10
ag10
ag10
ag10
ag10
ag10
ag10
ag10
ag10
ag10
ag10
ag10
ag10
ag10
ag10
ag10
ag10
ag10
ag10
ag10
ag10
ag10
ag10
ag10
ag10
ag10
ag10
ag10
ag10
ag10
ag10
ag10
ag10
ag10
ag10
ag10
ag10
ag10
ag10
ag10
ag10
ag10
ag10
ag10
ag10
ag10
ag10
ag10
ag10
ag10
ag10
ag10
ag10
ag10
ag10
ag10
ag10
ag10
ag10
ag10
ag10
ag10
ag10
ag10
ag10
ag10
ag10
ag10
ag10
ag10
ag10
ag10
ag10
ag10
ag10
ag10
ag10
ag10
ag10
ag10
ag10
ag10
ag10
ag10
ag10
ag10
ag10
ag10
ag10
ag10
ag10
ag10
ag10
ag10
ag10
ag10
ag10
ag10
ag10
ag10
ag10
ag10
ag10
ag10
ag10
ag10
ag10
ag10
ag10
ag10
ag10
ag10
ag10
ag10
ag10
ag10
ag10
ag10
ag10
ag10
ag10
ag10
ag10
ag10
ag10
ag10
ag10
ag10
ag10
ag10
ag10
ag10
ag10
ag10
ag10
ag10
ag10
ag10
ag10
ag10
ag10
ag10
ag10
ag10
ag10
ag10
ag10
ag10
ag10
ag10
ag10
ag10
ag10
ag10
ag10
ag10
ag10
ag10
ag10
ag10
ag10
ag10
ag10
ag10
ag10
ag10
ag10
ag10
ag10
ag10
ag10
ag10
ag10
ag10
ag10
ag10
ag10
ag10
ag10
ag10
ag10
ag10
ag10
ag10
ag10
ag10
ag10
assS'FN'
p11
(dp12
g3
(lp13
g5
ag5
ag5
ag5
ag5
ag5
ag5
ag5
ag5
ag5
ag5
ag5
ag5
ag5
ag5
ag5
ag5
ag5
ag5
ag5
ag5
ag5
ag5
ag5
ag5
ag5
ag5
ag5
ag5
ag5
ag5
asg6
(lp14
F25657.0
aF30155.0
aF32412.0
aF81335.0
aF87470.0
aF96933.0
aF99238.0
aF101161.0
aF122278.0
aF122389.0
aF125861.0
aF129431.0
aF134385.0
aF136600.0
aF140311.0
aF141231.0
aF147329.0
aF148235.0
aF243896.0
aF248905.0
aF252568.0
aF254492.0
aF256132.0
aF263913.0
aF268556.0
aF316208.0
aF316968.0
aF479736.0
aF480482.0
aF483704.0
aF485026.0
asg8
(lp15
g10
ag10
ag10
ag10
ag10
ag10
ag10
ag10
ag10
ag10
ag10
ag10
ag10
ag10
ag10
ag10
ag10
ag10
ag10
ag10
ag10
ag10
ag10
ag10
ag10
ag10
ag10
ag10
ag10
ag10
ag10
ass.