(dp0
S'FP'
p1
(dp2
S'recname'
p3
(lp4
S'233'
p5
ag5
ag5
ag5
asS'pos'
p6
(lp7
I20642
aI256941
aI330093
aI427641
asS'label'
p8
(lp9
S'R'
p10
ag10
ag10
ag10
assS'FN'
p11
(dp12
g3
(lp13
g5
ag5
ag5
ag5
ag5
ag5
ag5
ag5
ag5
ag5
ag5
ag5
ag5
ag5
ag5
ag5
ag5
ag5
ag5
ag5
ag5
ag5
ag5
ag5
ag5
ag5
ag5
ag5
ag5
ag5
ag5
ag5
ag5
ag5
ag5
ag5
ag5
ag5
ag5
ag5
ag5
ag5
ag5
ag5
ag5
ag5
ag5
ag5
ag5
ag5
ag5
ag5
ag5
ag5
ag5
ag5
ag5
ag5
ag5
ag5
ag5
ag5
ag5
ag5
ag5
ag5
ag5
ag5
ag5
ag5
ag5
ag5
ag5
ag5
ag5
ag5
asg6
(lp14
F42.0
aF9923.0
aF10577.0
aF28214.0
aF29581.0
aF44623.0
aF46117.0
aF47552.0
aF48999.0
aF50249.0
aF51730.0
aF52144.0
aF54255.0
aF55751.0
aF56799.0
aF58276.0
aF59779.0
aF76831.0
aF77895.0
aF109386.0
aF110905.0
aF112845.0
aF114373.0
aF177453.0
aF211590.0
aF212250.0
aF226721.0
aF228204.0
aF244160.0
aF245635.0
aF246037.0
aF247525.0
aF247935.0
aF249394.0
aF257800.0
aF292260.0
aF293323.0
aF299832.0
aF300890.0
aF305133.0
aF306985.0
aF307400.0
aF308451.0
aF309702.0
aF311190.0
aF312664.0
aF313722.0
aF315213.0
aF316702.0
aF359507.0
aF360575.0
aF398071.0
aF399121.0
aF422293.0
aF423342.0
aF485406.0
aF485991.0
aF486760.0
aF487044.0
aF487422.0
aF492319.0
aF492965.0
aF510856.0
aF512367.0
aF526129.0
aF531677.0
aF549437.0
aF550493.0
aF605492.0
aF607429.0
aF629638.0
aF630737.0
aF631418.0
aF632061.0
aF644479.0
aF646373.0
asg8
(lp15
g10
ag10
ag10
ag10
ag10
ag10
ag10
ag10
ag10
ag10
ag10
ag10
ag10
ag10
ag10
ag10
ag10
ag10
ag10
ag10
ag10
ag10
ag10
ag10
ag10
ag10
ag10
ag10
ag10
ag10
ag10
ag10
ag10
ag10
ag10
ag10
ag10
ag10
ag10
ag10
ag10
ag10
ag10
ag10
ag10
ag10
ag10
ag10
ag10
ag10
ag10
ag10
ag10
ag10
ag10
ag10
ag10
ag10
ag10
ag10
ag10
ag10
ag10
ag10
ag10
ag10
ag10
ag10
ag10
ag10
ag10
ag10
ag10
ag10
ag10
ag10
ass.