(dp0
S'FP'
p1
(dp2
S'recname'
p3
(lp4
S'234'
p5
asS'pos'
p6
(lp7
I504485
asS'label'
p8
(lp9
S'R'
p10
assS'FN'
p11
(dp12
g3
(lp13
g5
ag5
ag5
ag5
ag5
ag5
ag5
ag5
ag5
ag5
ag5
asg6
(lp14
F52.0
aF144095.0
aF144534.0
aF147172.0
aF147428.0
aF304425.0
aF313772.0
aF486404.0
aF487388.0
aF493822.0
aF520265.0
asg8
(lp15
g10
ag10
ag10
ag10
ag10
ag10
ag10
ag10
ag10
ag10
ag10
ass.